   1               		.file	"HIDParser.c"
   2               	__SP_H__ = 0x3e
   3               	__SP_L__ = 0x3d
   4               	__SREG__ = 0x3f
   5               	__tmp_reg__ = 0
   6               	__zero_reg__ = 1
   7               		.text
   8               	.Ltext0:
   9               		.cfi_sections	.debug_frame
  10               		.section	.text.USB_ProcessHIDReport,"ax",@progbits
  11               	.global	USB_ProcessHIDReport
  13               	USB_ProcessHIDReport:
  14               	.LFB16:
  15               		.file 1 "../../protocol/lufa/LUFA-120730/LUFA/Drivers/USB/Class/Common/HIDParser.c"
   1:../../protocol/lufa/LUFA-120730/LUFA/Drivers/USB/Class/Common/HIDParser.c **** /*
   2:../../protocol/lufa/LUFA-120730/LUFA/Drivers/USB/Class/Common/HIDParser.c ****              LUFA Library
   3:../../protocol/lufa/LUFA-120730/LUFA/Drivers/USB/Class/Common/HIDParser.c ****      Copyright (C) Dean Camera, 2012.
   4:../../protocol/lufa/LUFA-120730/LUFA/Drivers/USB/Class/Common/HIDParser.c **** 
   5:../../protocol/lufa/LUFA-120730/LUFA/Drivers/USB/Class/Common/HIDParser.c ****   dean [at] fourwalledcubicle [dot] com
   6:../../protocol/lufa/LUFA-120730/LUFA/Drivers/USB/Class/Common/HIDParser.c ****            www.lufa-lib.org
   7:../../protocol/lufa/LUFA-120730/LUFA/Drivers/USB/Class/Common/HIDParser.c **** */
   8:../../protocol/lufa/LUFA-120730/LUFA/Drivers/USB/Class/Common/HIDParser.c **** 
   9:../../protocol/lufa/LUFA-120730/LUFA/Drivers/USB/Class/Common/HIDParser.c **** /*
  10:../../protocol/lufa/LUFA-120730/LUFA/Drivers/USB/Class/Common/HIDParser.c ****   Copyright 2012  Dean Camera (dean [at] fourwalledcubicle [dot] com)
  11:../../protocol/lufa/LUFA-120730/LUFA/Drivers/USB/Class/Common/HIDParser.c **** 
  12:../../protocol/lufa/LUFA-120730/LUFA/Drivers/USB/Class/Common/HIDParser.c ****   Permission to use, copy, modify, distribute, and sell this
  13:../../protocol/lufa/LUFA-120730/LUFA/Drivers/USB/Class/Common/HIDParser.c ****   software and its documentation for any purpose is hereby granted
  14:../../protocol/lufa/LUFA-120730/LUFA/Drivers/USB/Class/Common/HIDParser.c ****   without fee, provided that the above copyright notice appear in
  15:../../protocol/lufa/LUFA-120730/LUFA/Drivers/USB/Class/Common/HIDParser.c ****   all copies and that both that the copyright notice and this
  16:../../protocol/lufa/LUFA-120730/LUFA/Drivers/USB/Class/Common/HIDParser.c ****   permission notice and warranty disclaimer appear in supporting
  17:../../protocol/lufa/LUFA-120730/LUFA/Drivers/USB/Class/Common/HIDParser.c ****   documentation, and that the name of the author not be used in
  18:../../protocol/lufa/LUFA-120730/LUFA/Drivers/USB/Class/Common/HIDParser.c ****   advertising or publicity pertaining to distribution of the
  19:../../protocol/lufa/LUFA-120730/LUFA/Drivers/USB/Class/Common/HIDParser.c ****   software without specific, written prior permission.
  20:../../protocol/lufa/LUFA-120730/LUFA/Drivers/USB/Class/Common/HIDParser.c **** 
  21:../../protocol/lufa/LUFA-120730/LUFA/Drivers/USB/Class/Common/HIDParser.c ****   The author disclaim all warranties with regard to this
  22:../../protocol/lufa/LUFA-120730/LUFA/Drivers/USB/Class/Common/HIDParser.c ****   software, including all implied warranties of merchantability
  23:../../protocol/lufa/LUFA-120730/LUFA/Drivers/USB/Class/Common/HIDParser.c ****   and fitness.  In no event shall the author be liable for any
  24:../../protocol/lufa/LUFA-120730/LUFA/Drivers/USB/Class/Common/HIDParser.c ****   special, indirect or consequential damages or any damages
  25:../../protocol/lufa/LUFA-120730/LUFA/Drivers/USB/Class/Common/HIDParser.c ****   whatsoever resulting from loss of use, data or profits, whether
  26:../../protocol/lufa/LUFA-120730/LUFA/Drivers/USB/Class/Common/HIDParser.c ****   in an action of contract, negligence or other tortious action,
  27:../../protocol/lufa/LUFA-120730/LUFA/Drivers/USB/Class/Common/HIDParser.c ****   arising out of or in connection with the use or performance of
  28:../../protocol/lufa/LUFA-120730/LUFA/Drivers/USB/Class/Common/HIDParser.c ****   this software.
  29:../../protocol/lufa/LUFA-120730/LUFA/Drivers/USB/Class/Common/HIDParser.c **** */
  30:../../protocol/lufa/LUFA-120730/LUFA/Drivers/USB/Class/Common/HIDParser.c **** 
  31:../../protocol/lufa/LUFA-120730/LUFA/Drivers/USB/Class/Common/HIDParser.c **** #define  __INCLUDE_FROM_USB_DRIVER
  32:../../protocol/lufa/LUFA-120730/LUFA/Drivers/USB/Class/Common/HIDParser.c **** #define  __INCLUDE_FROM_HID_DRIVER
  33:../../protocol/lufa/LUFA-120730/LUFA/Drivers/USB/Class/Common/HIDParser.c **** #include "HIDParser.h"
  34:../../protocol/lufa/LUFA-120730/LUFA/Drivers/USB/Class/Common/HIDParser.c **** 
  35:../../protocol/lufa/LUFA-120730/LUFA/Drivers/USB/Class/Common/HIDParser.c **** uint8_t USB_ProcessHIDReport(const uint8_t* ReportData,
  36:../../protocol/lufa/LUFA-120730/LUFA/Drivers/USB/Class/Common/HIDParser.c ****                              uint16_t ReportSize,
  37:../../protocol/lufa/LUFA-120730/LUFA/Drivers/USB/Class/Common/HIDParser.c ****                              HID_ReportInfo_t* const ParserData)
  38:../../protocol/lufa/LUFA-120730/LUFA/Drivers/USB/Class/Common/HIDParser.c **** {
  16               		.loc 1 38 0
  17               		.cfi_startproc
  18               	.LVL0:
  19 0000 2F92      		push r2
  20               	.LCFI0:
  21               		.cfi_def_cfa_offset 3
  22               		.cfi_offset 2, -2
  23 0002 3F92      		push r3
  24               	.LCFI1:
  25               		.cfi_def_cfa_offset 4
  26               		.cfi_offset 3, -3
  27 0004 4F92      		push r4
  28               	.LCFI2:
  29               		.cfi_def_cfa_offset 5
  30               		.cfi_offset 4, -4
  31 0006 5F92      		push r5
  32               	.LCFI3:
  33               		.cfi_def_cfa_offset 6
  34               		.cfi_offset 5, -5
  35 0008 6F92      		push r6
  36               	.LCFI4:
  37               		.cfi_def_cfa_offset 7
  38               		.cfi_offset 6, -6
  39 000a 7F92      		push r7
  40               	.LCFI5:
  41               		.cfi_def_cfa_offset 8
  42               		.cfi_offset 7, -7
  43 000c 8F92      		push r8
  44               	.LCFI6:
  45               		.cfi_def_cfa_offset 9
  46               		.cfi_offset 8, -8
  47 000e 9F92      		push r9
  48               	.LCFI7:
  49               		.cfi_def_cfa_offset 10
  50               		.cfi_offset 9, -9
  51 0010 AF92      		push r10
  52               	.LCFI8:
  53               		.cfi_def_cfa_offset 11
  54               		.cfi_offset 10, -10
  55 0012 BF92      		push r11
  56               	.LCFI9:
  57               		.cfi_def_cfa_offset 12
  58               		.cfi_offset 11, -11
  59 0014 CF92      		push r12
  60               	.LCFI10:
  61               		.cfi_def_cfa_offset 13
  62               		.cfi_offset 12, -12
  63 0016 DF92      		push r13
  64               	.LCFI11:
  65               		.cfi_def_cfa_offset 14
  66               		.cfi_offset 13, -13
  67 0018 EF92      		push r14
  68               	.LCFI12:
  69               		.cfi_def_cfa_offset 15
  70               		.cfi_offset 14, -14
  71 001a FF92      		push r15
  72               	.LCFI13:
  73               		.cfi_def_cfa_offset 16
  74               		.cfi_offset 15, -15
  75 001c 0F93      		push r16
  76               	.LCFI14:
  77               		.cfi_def_cfa_offset 17
  78               		.cfi_offset 16, -16
  79 001e 1F93      		push r17
  80               	.LCFI15:
  81               		.cfi_def_cfa_offset 18
  82               		.cfi_offset 17, -17
  83 0020 CF93      		push r28
  84               	.LCFI16:
  85               		.cfi_def_cfa_offset 19
  86               		.cfi_offset 28, -18
  87 0022 DF93      		push r29
  88               	.LCFI17:
  89               		.cfi_def_cfa_offset 20
  90               		.cfi_offset 29, -19
  91 0024 CDB7      		in r28,__SP_L__
  92 0026 DEB7      		in r29,__SP_H__
  93               	.LCFI18:
  94               		.cfi_def_cfa_register 28
  95 0028 CD58      		subi r28,-115
  96 002a D109      		sbc r29,__zero_reg__
  97               	.LCFI19:
  98               		.cfi_def_cfa_offset 161
  99 002c 0FB6      		in __tmp_reg__,__SREG__
 100 002e F894      		cli
 101 0030 DEBF      		out __SP_H__,r29
 102 0032 0FBE      		out __SREG__,__tmp_reg__
 103 0034 CDBF      		out __SP_L__,r28
 104               	/* prologue: function */
 105               	/* frame size = 141 */
 106               	/* stack size = 159 */
 107               	.L__stack_usage = 159
 108 0036 1C01      		movw r2,r24
 109               	.LVL1:
  39:../../protocol/lufa/LUFA-120730/LUFA/Drivers/USB/Class/Common/HIDParser.c **** 	HID_StateTable_t      StateTable[HID_STATETABLE_STACK_DEPTH];
  40:../../protocol/lufa/LUFA-120730/LUFA/Drivers/USB/Class/Common/HIDParser.c **** 	HID_StateTable_t*     CurrStateTable          = &StateTable[0];
  41:../../protocol/lufa/LUFA-120730/LUFA/Drivers/USB/Class/Common/HIDParser.c **** 	HID_CollectionPath_t* CurrCollectionPath      = NULL;
  42:../../protocol/lufa/LUFA-120730/LUFA/Drivers/USB/Class/Common/HIDParser.c **** 	HID_ReportSizeInfo_t* CurrReportIDInfo        = &ParserData->ReportIDSizes[0];
 110               		.loc 1 42 0
 111 0038 9A01      		movw r18,r20
 112 003a 2057      		subi r18,112
 113 003c 3C4F      		sbci r19,-4
 114 003e E896      		adiw r28,118-62
 115 0040 3FAF      		std Y+63,r19
 116 0042 2EAF      		std Y+62,r18
 117 0044 E897      		sbiw r28,118-62
 118               	.LVL2:
  43:../../protocol/lufa/LUFA-120730/LUFA/Drivers/USB/Class/Common/HIDParser.c **** 	uint16_t              UsageList[HID_USAGE_STACK_DEPTH];
  44:../../protocol/lufa/LUFA-120730/LUFA/Drivers/USB/Class/Common/HIDParser.c **** 	uint8_t               UsageListSize           = 0;
  45:../../protocol/lufa/LUFA-120730/LUFA/Drivers/USB/Class/Common/HIDParser.c **** 	HID_MinMax_t          UsageMinMax             = {0, 0};
  46:../../protocol/lufa/LUFA-120730/LUFA/Drivers/USB/Class/Common/HIDParser.c **** 
  47:../../protocol/lufa/LUFA-120730/LUFA/Drivers/USB/Class/Common/HIDParser.c **** 	memset(ParserData,       0x00, sizeof(HID_ReportInfo_t));
 119               		.loc 1 47 0
 120 0046 89ED      		ldi r24,lo8(-39)
 121 0048 93E0      		ldi r25,lo8(3)
 122               	.LVL3:
 123 004a DA01      		movw r26,r20
 124 004c FC01      		movw r30,r24
 125               		0:
 126 004e 1D92      		st X+,__zero_reg__
 127 0050 3197      		sbiw r30,1
 128 0052 01F4      		brne 0b
  48:../../protocol/lufa/LUFA-120730/LUFA/Drivers/USB/Class/Common/HIDParser.c **** 	memset(CurrStateTable,   0x00, sizeof(HID_StateTable_t));
 129               		.loc 1 48 0
 130 0054 FE01      		movw r30,r28
 131 0056 3196      		adiw r30,1
 132 0058 8CE1      		ldi r24,lo8(28)
 133 005a DF01      		movw r26,r30
 134               		0:
 135 005c 1D92      		st X+,__zero_reg__
 136 005e 8A95      		dec r24
 137 0060 01F4      		brne 0b
  49:../../protocol/lufa/LUFA-120730/LUFA/Drivers/USB/Class/Common/HIDParser.c **** 	memset(CurrReportIDInfo, 0x00, sizeof(HID_ReportSizeInfo_t));
 138               		.loc 1 49 0
 139 0062 87E0      		ldi r24,lo8(7)
 140 0064 D901      		movw r26,r18
 141               		0:
 142 0066 1D92      		st X+,__zero_reg__
 143 0068 8A95      		dec r24
 144 006a 01F4      		brne 0b
  50:../../protocol/lufa/LUFA-120730/LUFA/Drivers/USB/Class/Common/HIDParser.c **** 
  51:../../protocol/lufa/LUFA-120730/LUFA/Drivers/USB/Class/Common/HIDParser.c **** 	ParserData->TotalDeviceReports = 1;
 145               		.loc 1 51 0
 146 006c 2150      		subi r18,1
 147 006e 3109      		sbc r19,__zero_reg__
 148               	.LVL4:
 149 0070 EB96      		adiw r28,121-62
 150 0072 3FAF      		std Y+63,r19
 151 0074 2EAF      		std Y+62,r18
 152 0076 EB97      		sbiw r28,121-62
 153 0078 81E0      		ldi r24,lo8(1)
 154 007a D901      		movw r26,r18
 155 007c 8C93      		st X,r24
  45:../../protocol/lufa/LUFA-120730/LUFA/Drivers/USB/Class/Common/HIDParser.c **** 	HID_MinMax_t          UsageMinMax             = {0, 0};
 156               		.loc 1 45 0
 157 007e 412C      		mov r4,__zero_reg__
 158 0080 512C      		mov r5,__zero_reg__
 159 0082 3201      		movw r6,r4
 160 0084 812C      		mov r8,__zero_reg__
 161 0086 912C      		mov r9,__zero_reg__
 162 0088 5401      		movw r10,r8
  44:../../protocol/lufa/LUFA-120730/LUFA/Drivers/USB/Class/Common/HIDParser.c **** 	uint8_t               UsageListSize           = 0;
 163               		.loc 1 44 0
 164 008a E496      		adiw r28,115-63
 165 008c 1FAE      		std Y+63,__zero_reg__
 166 008e E497      		sbiw r28,115-63
  41:../../protocol/lufa/LUFA-120730/LUFA/Drivers/USB/Class/Common/HIDParser.c **** 	HID_CollectionPath_t* CurrCollectionPath      = NULL;
 167               		.loc 1 41 0
 168 0090 E696      		adiw r28,116-62
 169 0092 1FAE      		std Y+63,__zero_reg__
 170 0094 1EAE      		std Y+62,__zero_reg__
 171 0096 E697      		sbiw r28,116-62
  40:../../protocol/lufa/LUFA-120730/LUFA/Drivers/USB/Class/Common/HIDParser.c **** 	HID_StateTable_t*     CurrStateTable          = &StateTable[0];
 172               		.loc 1 40 0
 173 0098 8F01      		movw r16,r30
 174               	.LBB2:
 175               	.LBB3:
 176               	.LBB4:
  52:../../protocol/lufa/LUFA-120730/LUFA/Drivers/USB/Class/Common/HIDParser.c **** 
  53:../../protocol/lufa/LUFA-120730/LUFA/Drivers/USB/Class/Common/HIDParser.c **** 	while (ReportSize)
  54:../../protocol/lufa/LUFA-120730/LUFA/Drivers/USB/Class/Common/HIDParser.c **** 	{
  55:../../protocol/lufa/LUFA-120730/LUFA/Drivers/USB/Class/Common/HIDParser.c **** 		uint8_t  HIDReportItem  = *ReportData;
  56:../../protocol/lufa/LUFA-120730/LUFA/Drivers/USB/Class/Common/HIDParser.c **** 		uint32_t ReportItemData = 0;
  57:../../protocol/lufa/LUFA-120730/LUFA/Drivers/USB/Class/Common/HIDParser.c **** 
  58:../../protocol/lufa/LUFA-120730/LUFA/Drivers/USB/Class/Common/HIDParser.c **** 		ReportData++;
  59:../../protocol/lufa/LUFA-120730/LUFA/Drivers/USB/Class/Common/HIDParser.c **** 		ReportSize--;
  60:../../protocol/lufa/LUFA-120730/LUFA/Drivers/USB/Class/Common/HIDParser.c **** 
  61:../../protocol/lufa/LUFA-120730/LUFA/Drivers/USB/Class/Common/HIDParser.c **** 		switch (HIDReportItem & HID_RI_DATA_SIZE_MASK)
  62:../../protocol/lufa/LUFA-120730/LUFA/Drivers/USB/Class/Common/HIDParser.c **** 		{
  63:../../protocol/lufa/LUFA-120730/LUFA/Drivers/USB/Class/Common/HIDParser.c **** 			case HID_RI_DATA_BITS_32:
  64:../../protocol/lufa/LUFA-120730/LUFA/Drivers/USB/Class/Common/HIDParser.c **** 				ReportItemData  = (((uint32_t)ReportData[3] << 24) | ((uint32_t)ReportData[2] << 16) |
  65:../../protocol/lufa/LUFA-120730/LUFA/Drivers/USB/Class/Common/HIDParser.c **** 			                       ((uint16_t)ReportData[1] << 8)  | ReportData[0]);
  66:../../protocol/lufa/LUFA-120730/LUFA/Drivers/USB/Class/Common/HIDParser.c **** 				ReportSize     -= 4;
  67:../../protocol/lufa/LUFA-120730/LUFA/Drivers/USB/Class/Common/HIDParser.c **** 				ReportData     += 4;
  68:../../protocol/lufa/LUFA-120730/LUFA/Drivers/USB/Class/Common/HIDParser.c **** 				break;
  69:../../protocol/lufa/LUFA-120730/LUFA/Drivers/USB/Class/Common/HIDParser.c **** 			case HID_RI_DATA_BITS_16:
  70:../../protocol/lufa/LUFA-120730/LUFA/Drivers/USB/Class/Common/HIDParser.c **** 				ReportItemData  = (((uint16_t)ReportData[1] << 8) | (ReportData[0]));
  71:../../protocol/lufa/LUFA-120730/LUFA/Drivers/USB/Class/Common/HIDParser.c **** 				ReportSize     -= 2;
  72:../../protocol/lufa/LUFA-120730/LUFA/Drivers/USB/Class/Common/HIDParser.c **** 				ReportData     += 2;
  73:../../protocol/lufa/LUFA-120730/LUFA/Drivers/USB/Class/Common/HIDParser.c **** 				break;
  74:../../protocol/lufa/LUFA-120730/LUFA/Drivers/USB/Class/Common/HIDParser.c **** 			case HID_RI_DATA_BITS_8:
  75:../../protocol/lufa/LUFA-120730/LUFA/Drivers/USB/Class/Common/HIDParser.c **** 				ReportItemData  = ReportData[0];
  76:../../protocol/lufa/LUFA-120730/LUFA/Drivers/USB/Class/Common/HIDParser.c **** 				ReportSize     -= 1;
  77:../../protocol/lufa/LUFA-120730/LUFA/Drivers/USB/Class/Common/HIDParser.c **** 				ReportData     += 1;
  78:../../protocol/lufa/LUFA-120730/LUFA/Drivers/USB/Class/Common/HIDParser.c **** 				break;
  79:../../protocol/lufa/LUFA-120730/LUFA/Drivers/USB/Class/Common/HIDParser.c **** 		}
  80:../../protocol/lufa/LUFA-120730/LUFA/Drivers/USB/Class/Common/HIDParser.c **** 
  81:../../protocol/lufa/LUFA-120730/LUFA/Drivers/USB/Class/Common/HIDParser.c **** 		switch (HIDReportItem & (HID_RI_TYPE_MASK | HID_RI_TAG_MASK))
  82:../../protocol/lufa/LUFA-120730/LUFA/Drivers/USB/Class/Common/HIDParser.c **** 		{
  83:../../protocol/lufa/LUFA-120730/LUFA/Drivers/USB/Class/Common/HIDParser.c **** 			case HID_RI_PUSH(0):
  84:../../protocol/lufa/LUFA-120730/LUFA/Drivers/USB/Class/Common/HIDParser.c **** 				if (CurrStateTable == &StateTable[HID_STATETABLE_STACK_DEPTH - 1])
  85:../../protocol/lufa/LUFA-120730/LUFA/Drivers/USB/Class/Common/HIDParser.c **** 				  return HID_PARSE_HIDStackOverflow;
  86:../../protocol/lufa/LUFA-120730/LUFA/Drivers/USB/Class/Common/HIDParser.c **** 
  87:../../protocol/lufa/LUFA-120730/LUFA/Drivers/USB/Class/Common/HIDParser.c **** 				memcpy((CurrStateTable + 1),
  88:../../protocol/lufa/LUFA-120730/LUFA/Drivers/USB/Class/Common/HIDParser.c **** 				       CurrStateTable,
  89:../../protocol/lufa/LUFA-120730/LUFA/Drivers/USB/Class/Common/HIDParser.c **** 				       sizeof(HID_ReportItem_t));
  90:../../protocol/lufa/LUFA-120730/LUFA/Drivers/USB/Class/Common/HIDParser.c **** 
  91:../../protocol/lufa/LUFA-120730/LUFA/Drivers/USB/Class/Common/HIDParser.c **** 				CurrStateTable++;
  92:../../protocol/lufa/LUFA-120730/LUFA/Drivers/USB/Class/Common/HIDParser.c **** 				break;
  93:../../protocol/lufa/LUFA-120730/LUFA/Drivers/USB/Class/Common/HIDParser.c **** 			case HID_RI_POP(0):
  94:../../protocol/lufa/LUFA-120730/LUFA/Drivers/USB/Class/Common/HIDParser.c **** 				if (CurrStateTable == &StateTable[0])
  95:../../protocol/lufa/LUFA-120730/LUFA/Drivers/USB/Class/Common/HIDParser.c **** 				  return HID_PARSE_HIDStackUnderflow;
  96:../../protocol/lufa/LUFA-120730/LUFA/Drivers/USB/Class/Common/HIDParser.c **** 
  97:../../protocol/lufa/LUFA-120730/LUFA/Drivers/USB/Class/Common/HIDParser.c **** 				CurrStateTable--;
  98:../../protocol/lufa/LUFA-120730/LUFA/Drivers/USB/Class/Common/HIDParser.c **** 				break;
  99:../../protocol/lufa/LUFA-120730/LUFA/Drivers/USB/Class/Common/HIDParser.c **** 			case HID_RI_USAGE_PAGE(0):
 100:../../protocol/lufa/LUFA-120730/LUFA/Drivers/USB/Class/Common/HIDParser.c **** 				if ((HIDReportItem & HID_RI_DATA_SIZE_MASK) == HID_RI_DATA_BITS_32)
 101:../../protocol/lufa/LUFA-120730/LUFA/Drivers/USB/Class/Common/HIDParser.c **** 				  CurrStateTable->Attributes.Usage.Page = (ReportItemData >> 16);
 102:../../protocol/lufa/LUFA-120730/LUFA/Drivers/USB/Class/Common/HIDParser.c **** 
 103:../../protocol/lufa/LUFA-120730/LUFA/Drivers/USB/Class/Common/HIDParser.c **** 				CurrStateTable->Attributes.Usage.Page       = ReportItemData;
 104:../../protocol/lufa/LUFA-120730/LUFA/Drivers/USB/Class/Common/HIDParser.c **** 				break;
 105:../../protocol/lufa/LUFA-120730/LUFA/Drivers/USB/Class/Common/HIDParser.c **** 			case HID_RI_LOGICAL_MINIMUM(0):
 106:../../protocol/lufa/LUFA-120730/LUFA/Drivers/USB/Class/Common/HIDParser.c **** 				CurrStateTable->Attributes.Logical.Minimum  = ReportItemData;
 107:../../protocol/lufa/LUFA-120730/LUFA/Drivers/USB/Class/Common/HIDParser.c **** 				break;
 108:../../protocol/lufa/LUFA-120730/LUFA/Drivers/USB/Class/Common/HIDParser.c **** 			case HID_RI_LOGICAL_MAXIMUM(0):
 109:../../protocol/lufa/LUFA-120730/LUFA/Drivers/USB/Class/Common/HIDParser.c **** 				CurrStateTable->Attributes.Logical.Maximum  = ReportItemData;
 110:../../protocol/lufa/LUFA-120730/LUFA/Drivers/USB/Class/Common/HIDParser.c **** 				break;
 111:../../protocol/lufa/LUFA-120730/LUFA/Drivers/USB/Class/Common/HIDParser.c **** 			case HID_RI_PHYSICAL_MINIMUM(0):
 112:../../protocol/lufa/LUFA-120730/LUFA/Drivers/USB/Class/Common/HIDParser.c **** 				CurrStateTable->Attributes.Physical.Minimum = ReportItemData;
 113:../../protocol/lufa/LUFA-120730/LUFA/Drivers/USB/Class/Common/HIDParser.c **** 				break;
 114:../../protocol/lufa/LUFA-120730/LUFA/Drivers/USB/Class/Common/HIDParser.c **** 			case HID_RI_PHYSICAL_MAXIMUM(0):
 115:../../protocol/lufa/LUFA-120730/LUFA/Drivers/USB/Class/Common/HIDParser.c **** 				CurrStateTable->Attributes.Physical.Maximum = ReportItemData;
 116:../../protocol/lufa/LUFA-120730/LUFA/Drivers/USB/Class/Common/HIDParser.c **** 				break;
 117:../../protocol/lufa/LUFA-120730/LUFA/Drivers/USB/Class/Common/HIDParser.c **** 			case HID_RI_UNIT_EXPONENT(0):
 118:../../protocol/lufa/LUFA-120730/LUFA/Drivers/USB/Class/Common/HIDParser.c **** 				CurrStateTable->Attributes.Unit.Exponent    = ReportItemData;
 119:../../protocol/lufa/LUFA-120730/LUFA/Drivers/USB/Class/Common/HIDParser.c **** 				break;
 120:../../protocol/lufa/LUFA-120730/LUFA/Drivers/USB/Class/Common/HIDParser.c **** 			case HID_RI_UNIT(0):
 121:../../protocol/lufa/LUFA-120730/LUFA/Drivers/USB/Class/Common/HIDParser.c **** 				CurrStateTable->Attributes.Unit.Type        = ReportItemData;
 122:../../protocol/lufa/LUFA-120730/LUFA/Drivers/USB/Class/Common/HIDParser.c **** 				break;
 123:../../protocol/lufa/LUFA-120730/LUFA/Drivers/USB/Class/Common/HIDParser.c **** 			case HID_RI_REPORT_SIZE(0):
 124:../../protocol/lufa/LUFA-120730/LUFA/Drivers/USB/Class/Common/HIDParser.c **** 				CurrStateTable->Attributes.BitSize          = ReportItemData;
 125:../../protocol/lufa/LUFA-120730/LUFA/Drivers/USB/Class/Common/HIDParser.c **** 				break;
 126:../../protocol/lufa/LUFA-120730/LUFA/Drivers/USB/Class/Common/HIDParser.c **** 			case HID_RI_REPORT_COUNT(0):
 127:../../protocol/lufa/LUFA-120730/LUFA/Drivers/USB/Class/Common/HIDParser.c **** 				CurrStateTable->ReportCount                 = ReportItemData;
 128:../../protocol/lufa/LUFA-120730/LUFA/Drivers/USB/Class/Common/HIDParser.c **** 				break;
 129:../../protocol/lufa/LUFA-120730/LUFA/Drivers/USB/Class/Common/HIDParser.c **** 			case HID_RI_REPORT_ID(0):
 130:../../protocol/lufa/LUFA-120730/LUFA/Drivers/USB/Class/Common/HIDParser.c **** 				CurrStateTable->ReportID                    = ReportItemData;
 131:../../protocol/lufa/LUFA-120730/LUFA/Drivers/USB/Class/Common/HIDParser.c **** 
 132:../../protocol/lufa/LUFA-120730/LUFA/Drivers/USB/Class/Common/HIDParser.c **** 				if (ParserData->UsingReportIDs)
 133:../../protocol/lufa/LUFA-120730/LUFA/Drivers/USB/Class/Common/HIDParser.c **** 				{
 134:../../protocol/lufa/LUFA-120730/LUFA/Drivers/USB/Class/Common/HIDParser.c **** 					CurrReportIDInfo = NULL;
 135:../../protocol/lufa/LUFA-120730/LUFA/Drivers/USB/Class/Common/HIDParser.c **** 
 136:../../protocol/lufa/LUFA-120730/LUFA/Drivers/USB/Class/Common/HIDParser.c **** 					for (uint8_t i = 0; i < ParserData->TotalDeviceReports; i++)
 137:../../protocol/lufa/LUFA-120730/LUFA/Drivers/USB/Class/Common/HIDParser.c **** 					{
 138:../../protocol/lufa/LUFA-120730/LUFA/Drivers/USB/Class/Common/HIDParser.c **** 						if (ParserData->ReportIDSizes[i].ReportID == CurrStateTable->ReportID)
 139:../../protocol/lufa/LUFA-120730/LUFA/Drivers/USB/Class/Common/HIDParser.c **** 						{
 140:../../protocol/lufa/LUFA-120730/LUFA/Drivers/USB/Class/Common/HIDParser.c **** 							CurrReportIDInfo = &ParserData->ReportIDSizes[i];
 141:../../protocol/lufa/LUFA-120730/LUFA/Drivers/USB/Class/Common/HIDParser.c **** 							break;
 142:../../protocol/lufa/LUFA-120730/LUFA/Drivers/USB/Class/Common/HIDParser.c **** 						}
 143:../../protocol/lufa/LUFA-120730/LUFA/Drivers/USB/Class/Common/HIDParser.c **** 					}
 144:../../protocol/lufa/LUFA-120730/LUFA/Drivers/USB/Class/Common/HIDParser.c **** 
 145:../../protocol/lufa/LUFA-120730/LUFA/Drivers/USB/Class/Common/HIDParser.c **** 					if (CurrReportIDInfo == NULL)
 146:../../protocol/lufa/LUFA-120730/LUFA/Drivers/USB/Class/Common/HIDParser.c **** 					{
 147:../../protocol/lufa/LUFA-120730/LUFA/Drivers/USB/Class/Common/HIDParser.c **** 						if (ParserData->TotalDeviceReports == HID_MAX_REPORT_IDS)
 148:../../protocol/lufa/LUFA-120730/LUFA/Drivers/USB/Class/Common/HIDParser.c **** 						  return HID_PARSE_InsufficientReportIDItems;
 149:../../protocol/lufa/LUFA-120730/LUFA/Drivers/USB/Class/Common/HIDParser.c **** 
 150:../../protocol/lufa/LUFA-120730/LUFA/Drivers/USB/Class/Common/HIDParser.c **** 						CurrReportIDInfo = &ParserData->ReportIDSizes[ParserData->TotalDeviceReports++];
 151:../../protocol/lufa/LUFA-120730/LUFA/Drivers/USB/Class/Common/HIDParser.c **** 						memset(CurrReportIDInfo, 0x00, sizeof(HID_ReportSizeInfo_t));
 152:../../protocol/lufa/LUFA-120730/LUFA/Drivers/USB/Class/Common/HIDParser.c **** 					}
 153:../../protocol/lufa/LUFA-120730/LUFA/Drivers/USB/Class/Common/HIDParser.c **** 				}
 154:../../protocol/lufa/LUFA-120730/LUFA/Drivers/USB/Class/Common/HIDParser.c **** 
 155:../../protocol/lufa/LUFA-120730/LUFA/Drivers/USB/Class/Common/HIDParser.c **** 				ParserData->UsingReportIDs = true;
 156:../../protocol/lufa/LUFA-120730/LUFA/Drivers/USB/Class/Common/HIDParser.c **** 
 157:../../protocol/lufa/LUFA-120730/LUFA/Drivers/USB/Class/Common/HIDParser.c **** 				CurrReportIDInfo->ReportID = CurrStateTable->ReportID;
 158:../../protocol/lufa/LUFA-120730/LUFA/Drivers/USB/Class/Common/HIDParser.c **** 				break;
 159:../../protocol/lufa/LUFA-120730/LUFA/Drivers/USB/Class/Common/HIDParser.c **** 			case HID_RI_USAGE(0):
 160:../../protocol/lufa/LUFA-120730/LUFA/Drivers/USB/Class/Common/HIDParser.c **** 				if (UsageListSize == HID_USAGE_STACK_DEPTH)
 161:../../protocol/lufa/LUFA-120730/LUFA/Drivers/USB/Class/Common/HIDParser.c **** 				  return HID_PARSE_UsageListOverflow;
 162:../../protocol/lufa/LUFA-120730/LUFA/Drivers/USB/Class/Common/HIDParser.c **** 
 163:../../protocol/lufa/LUFA-120730/LUFA/Drivers/USB/Class/Common/HIDParser.c **** 				UsageList[UsageListSize++] = ReportItemData;
 164:../../protocol/lufa/LUFA-120730/LUFA/Drivers/USB/Class/Common/HIDParser.c **** 				break;
 165:../../protocol/lufa/LUFA-120730/LUFA/Drivers/USB/Class/Common/HIDParser.c **** 			case HID_RI_USAGE_MINIMUM(0):
 166:../../protocol/lufa/LUFA-120730/LUFA/Drivers/USB/Class/Common/HIDParser.c **** 				UsageMinMax.Minimum = ReportItemData;
 167:../../protocol/lufa/LUFA-120730/LUFA/Drivers/USB/Class/Common/HIDParser.c **** 				break;
 168:../../protocol/lufa/LUFA-120730/LUFA/Drivers/USB/Class/Common/HIDParser.c **** 			case HID_RI_USAGE_MAXIMUM(0):
 169:../../protocol/lufa/LUFA-120730/LUFA/Drivers/USB/Class/Common/HIDParser.c **** 				UsageMinMax.Maximum = ReportItemData;
 170:../../protocol/lufa/LUFA-120730/LUFA/Drivers/USB/Class/Common/HIDParser.c **** 				break;
 171:../../protocol/lufa/LUFA-120730/LUFA/Drivers/USB/Class/Common/HIDParser.c **** 			case HID_RI_COLLECTION(0):
 172:../../protocol/lufa/LUFA-120730/LUFA/Drivers/USB/Class/Common/HIDParser.c **** 				if (CurrCollectionPath == NULL)
 173:../../protocol/lufa/LUFA-120730/LUFA/Drivers/USB/Class/Common/HIDParser.c **** 				{
 174:../../protocol/lufa/LUFA-120730/LUFA/Drivers/USB/Class/Common/HIDParser.c **** 					CurrCollectionPath = &ParserData->CollectionPaths[0];
 175:../../protocol/lufa/LUFA-120730/LUFA/Drivers/USB/Class/Common/HIDParser.c **** 				}
 176:../../protocol/lufa/LUFA-120730/LUFA/Drivers/USB/Class/Common/HIDParser.c **** 				else
 177:../../protocol/lufa/LUFA-120730/LUFA/Drivers/USB/Class/Common/HIDParser.c **** 				{
 178:../../protocol/lufa/LUFA-120730/LUFA/Drivers/USB/Class/Common/HIDParser.c **** 					HID_CollectionPath_t* ParentCollectionPath = CurrCollectionPath;
 179:../../protocol/lufa/LUFA-120730/LUFA/Drivers/USB/Class/Common/HIDParser.c **** 
 180:../../protocol/lufa/LUFA-120730/LUFA/Drivers/USB/Class/Common/HIDParser.c **** 					CurrCollectionPath = &ParserData->CollectionPaths[1];
 181:../../protocol/lufa/LUFA-120730/LUFA/Drivers/USB/Class/Common/HIDParser.c **** 
 182:../../protocol/lufa/LUFA-120730/LUFA/Drivers/USB/Class/Common/HIDParser.c **** 					while (CurrCollectionPath->Parent != NULL)
 183:../../protocol/lufa/LUFA-120730/LUFA/Drivers/USB/Class/Common/HIDParser.c **** 					{
 184:../../protocol/lufa/LUFA-120730/LUFA/Drivers/USB/Class/Common/HIDParser.c **** 						if (CurrCollectionPath == &ParserData->CollectionPaths[HID_MAX_COLLECTIONS - 1])
 185:../../protocol/lufa/LUFA-120730/LUFA/Drivers/USB/Class/Common/HIDParser.c **** 						  return HID_PARSE_InsufficientCollectionPaths;
 186:../../protocol/lufa/LUFA-120730/LUFA/Drivers/USB/Class/Common/HIDParser.c **** 
 187:../../protocol/lufa/LUFA-120730/LUFA/Drivers/USB/Class/Common/HIDParser.c **** 						CurrCollectionPath++;
 188:../../protocol/lufa/LUFA-120730/LUFA/Drivers/USB/Class/Common/HIDParser.c **** 					}
 189:../../protocol/lufa/LUFA-120730/LUFA/Drivers/USB/Class/Common/HIDParser.c **** 
 190:../../protocol/lufa/LUFA-120730/LUFA/Drivers/USB/Class/Common/HIDParser.c **** 					CurrCollectionPath->Parent = ParentCollectionPath;
 191:../../protocol/lufa/LUFA-120730/LUFA/Drivers/USB/Class/Common/HIDParser.c **** 				}
 192:../../protocol/lufa/LUFA-120730/LUFA/Drivers/USB/Class/Common/HIDParser.c **** 
 193:../../protocol/lufa/LUFA-120730/LUFA/Drivers/USB/Class/Common/HIDParser.c **** 				CurrCollectionPath->Type       = ReportItemData;
 194:../../protocol/lufa/LUFA-120730/LUFA/Drivers/USB/Class/Common/HIDParser.c **** 				CurrCollectionPath->Usage.Page = CurrStateTable->Attributes.Usage.Page;
 195:../../protocol/lufa/LUFA-120730/LUFA/Drivers/USB/Class/Common/HIDParser.c **** 
 196:../../protocol/lufa/LUFA-120730/LUFA/Drivers/USB/Class/Common/HIDParser.c **** 				if (UsageListSize)
 197:../../protocol/lufa/LUFA-120730/LUFA/Drivers/USB/Class/Common/HIDParser.c **** 				{
 198:../../protocol/lufa/LUFA-120730/LUFA/Drivers/USB/Class/Common/HIDParser.c **** 					CurrCollectionPath->Usage.Usage = UsageList[0];
 199:../../protocol/lufa/LUFA-120730/LUFA/Drivers/USB/Class/Common/HIDParser.c **** 
 200:../../protocol/lufa/LUFA-120730/LUFA/Drivers/USB/Class/Common/HIDParser.c **** 					for (uint8_t i = 0; i < UsageListSize; i++)
 201:../../protocol/lufa/LUFA-120730/LUFA/Drivers/USB/Class/Common/HIDParser.c **** 					  UsageList[i] = UsageList[i + 1];
 202:../../protocol/lufa/LUFA-120730/LUFA/Drivers/USB/Class/Common/HIDParser.c **** 
 203:../../protocol/lufa/LUFA-120730/LUFA/Drivers/USB/Class/Common/HIDParser.c **** 					UsageListSize--;
 204:../../protocol/lufa/LUFA-120730/LUFA/Drivers/USB/Class/Common/HIDParser.c **** 				}
 205:../../protocol/lufa/LUFA-120730/LUFA/Drivers/USB/Class/Common/HIDParser.c **** 				else if (UsageMinMax.Minimum <= UsageMinMax.Maximum)
 206:../../protocol/lufa/LUFA-120730/LUFA/Drivers/USB/Class/Common/HIDParser.c **** 				{
 207:../../protocol/lufa/LUFA-120730/LUFA/Drivers/USB/Class/Common/HIDParser.c **** 					CurrCollectionPath->Usage.Usage = UsageMinMax.Minimum++;
 208:../../protocol/lufa/LUFA-120730/LUFA/Drivers/USB/Class/Common/HIDParser.c **** 				}
 209:../../protocol/lufa/LUFA-120730/LUFA/Drivers/USB/Class/Common/HIDParser.c **** 
 210:../../protocol/lufa/LUFA-120730/LUFA/Drivers/USB/Class/Common/HIDParser.c **** 				break;
 211:../../protocol/lufa/LUFA-120730/LUFA/Drivers/USB/Class/Common/HIDParser.c **** 			case HID_RI_END_COLLECTION(0):
 212:../../protocol/lufa/LUFA-120730/LUFA/Drivers/USB/Class/Common/HIDParser.c **** 				if (CurrCollectionPath == NULL)
 213:../../protocol/lufa/LUFA-120730/LUFA/Drivers/USB/Class/Common/HIDParser.c **** 				  return HID_PARSE_UnexpectedEndCollection;
 214:../../protocol/lufa/LUFA-120730/LUFA/Drivers/USB/Class/Common/HIDParser.c **** 
 215:../../protocol/lufa/LUFA-120730/LUFA/Drivers/USB/Class/Common/HIDParser.c **** 				CurrCollectionPath = CurrCollectionPath->Parent;
 216:../../protocol/lufa/LUFA-120730/LUFA/Drivers/USB/Class/Common/HIDParser.c **** 				break;
 217:../../protocol/lufa/LUFA-120730/LUFA/Drivers/USB/Class/Common/HIDParser.c **** 			case HID_RI_INPUT(0):
 218:../../protocol/lufa/LUFA-120730/LUFA/Drivers/USB/Class/Common/HIDParser.c **** 			case HID_RI_OUTPUT(0):
 219:../../protocol/lufa/LUFA-120730/LUFA/Drivers/USB/Class/Common/HIDParser.c **** 			case HID_RI_FEATURE(0):
 220:../../protocol/lufa/LUFA-120730/LUFA/Drivers/USB/Class/Common/HIDParser.c **** 				for (uint8_t ReportItemNum = 0; ReportItemNum < CurrStateTable->ReportCount; ReportItemNum++)
 221:../../protocol/lufa/LUFA-120730/LUFA/Drivers/USB/Class/Common/HIDParser.c **** 				{
 222:../../protocol/lufa/LUFA-120730/LUFA/Drivers/USB/Class/Common/HIDParser.c **** 					HID_ReportItem_t NewReportItem;
 223:../../protocol/lufa/LUFA-120730/LUFA/Drivers/USB/Class/Common/HIDParser.c **** 
 224:../../protocol/lufa/LUFA-120730/LUFA/Drivers/USB/Class/Common/HIDParser.c **** 					memcpy(&NewReportItem.Attributes,
 225:../../protocol/lufa/LUFA-120730/LUFA/Drivers/USB/Class/Common/HIDParser.c **** 					       &CurrStateTable->Attributes,
 226:../../protocol/lufa/LUFA-120730/LUFA/Drivers/USB/Class/Common/HIDParser.c **** 					       sizeof(HID_ReportItem_Attributes_t));
 227:../../protocol/lufa/LUFA-120730/LUFA/Drivers/USB/Class/Common/HIDParser.c **** 
 228:../../protocol/lufa/LUFA-120730/LUFA/Drivers/USB/Class/Common/HIDParser.c **** 					NewReportItem.ItemFlags      = ReportItemData;
 229:../../protocol/lufa/LUFA-120730/LUFA/Drivers/USB/Class/Common/HIDParser.c **** 					NewReportItem.CollectionPath = CurrCollectionPath;
 230:../../protocol/lufa/LUFA-120730/LUFA/Drivers/USB/Class/Common/HIDParser.c **** 					NewReportItem.ReportID       = CurrStateTable->ReportID;
 231:../../protocol/lufa/LUFA-120730/LUFA/Drivers/USB/Class/Common/HIDParser.c **** 
 232:../../protocol/lufa/LUFA-120730/LUFA/Drivers/USB/Class/Common/HIDParser.c **** 					if (UsageListSize)
 233:../../protocol/lufa/LUFA-120730/LUFA/Drivers/USB/Class/Common/HIDParser.c **** 					{
 234:../../protocol/lufa/LUFA-120730/LUFA/Drivers/USB/Class/Common/HIDParser.c **** 						NewReportItem.Attributes.Usage.Usage = UsageList[0];
 235:../../protocol/lufa/LUFA-120730/LUFA/Drivers/USB/Class/Common/HIDParser.c **** 
 236:../../protocol/lufa/LUFA-120730/LUFA/Drivers/USB/Class/Common/HIDParser.c **** 						for (uint8_t i = 0; i < UsageListSize; i++)
 237:../../protocol/lufa/LUFA-120730/LUFA/Drivers/USB/Class/Common/HIDParser.c **** 						  UsageList[i] = UsageList[i + 1];
 238:../../protocol/lufa/LUFA-120730/LUFA/Drivers/USB/Class/Common/HIDParser.c **** 
 239:../../protocol/lufa/LUFA-120730/LUFA/Drivers/USB/Class/Common/HIDParser.c **** 						UsageListSize--;
 240:../../protocol/lufa/LUFA-120730/LUFA/Drivers/USB/Class/Common/HIDParser.c **** 					}
 241:../../protocol/lufa/LUFA-120730/LUFA/Drivers/USB/Class/Common/HIDParser.c **** 					else if (UsageMinMax.Minimum <= UsageMinMax.Maximum)
 242:../../protocol/lufa/LUFA-120730/LUFA/Drivers/USB/Class/Common/HIDParser.c **** 					{
 243:../../protocol/lufa/LUFA-120730/LUFA/Drivers/USB/Class/Common/HIDParser.c **** 						NewReportItem.Attributes.Usage.Usage = UsageMinMax.Minimum++;
 244:../../protocol/lufa/LUFA-120730/LUFA/Drivers/USB/Class/Common/HIDParser.c **** 					}
 245:../../protocol/lufa/LUFA-120730/LUFA/Drivers/USB/Class/Common/HIDParser.c **** 
 246:../../protocol/lufa/LUFA-120730/LUFA/Drivers/USB/Class/Common/HIDParser.c **** 					uint8_t ItemTypeTag = (HIDReportItem & (HID_RI_TYPE_MASK | HID_RI_TAG_MASK));
 247:../../protocol/lufa/LUFA-120730/LUFA/Drivers/USB/Class/Common/HIDParser.c **** 
 248:../../protocol/lufa/LUFA-120730/LUFA/Drivers/USB/Class/Common/HIDParser.c **** 					if (ItemTypeTag == HID_RI_INPUT(0))
 249:../../protocol/lufa/LUFA-120730/LUFA/Drivers/USB/Class/Common/HIDParser.c **** 					  NewReportItem.ItemType = HID_REPORT_ITEM_In;
 250:../../protocol/lufa/LUFA-120730/LUFA/Drivers/USB/Class/Common/HIDParser.c **** 					else if (ItemTypeTag == HID_RI_OUTPUT(0))
 251:../../protocol/lufa/LUFA-120730/LUFA/Drivers/USB/Class/Common/HIDParser.c **** 					  NewReportItem.ItemType = HID_REPORT_ITEM_Out;
 252:../../protocol/lufa/LUFA-120730/LUFA/Drivers/USB/Class/Common/HIDParser.c **** 					else
 253:../../protocol/lufa/LUFA-120730/LUFA/Drivers/USB/Class/Common/HIDParser.c **** 					  NewReportItem.ItemType = HID_REPORT_ITEM_Feature;
 254:../../protocol/lufa/LUFA-120730/LUFA/Drivers/USB/Class/Common/HIDParser.c **** 
 255:../../protocol/lufa/LUFA-120730/LUFA/Drivers/USB/Class/Common/HIDParser.c **** 					NewReportItem.BitOffset = CurrReportIDInfo->ReportSizeBits[NewReportItem.ItemType];
 256:../../protocol/lufa/LUFA-120730/LUFA/Drivers/USB/Class/Common/HIDParser.c **** 
 257:../../protocol/lufa/LUFA-120730/LUFA/Drivers/USB/Class/Common/HIDParser.c **** 					CurrReportIDInfo->ReportSizeBits[NewReportItem.ItemType] += CurrStateTable->Attributes.BitSize
 258:../../protocol/lufa/LUFA-120730/LUFA/Drivers/USB/Class/Common/HIDParser.c **** 
 259:../../protocol/lufa/LUFA-120730/LUFA/Drivers/USB/Class/Common/HIDParser.c **** 					ParserData->LargestReportSizeBits = MAX(ParserData->LargestReportSizeBits, CurrReportIDInfo->R
 177               		.loc 1 259 0
 178 009a 295B      		subi r18,-71
 179 009c 3F4F      		sbci r19,-1
 180 009e ED96      		adiw r28,123-62
 181 00a0 3FAF      		std Y+63,r19
 182 00a2 2EAF      		std Y+62,r18
 183 00a4 ED97      		sbiw r28,123-62
 184               	.LBE4:
 185               	.LBE3:
 186               	.LBB9:
 184:../../protocol/lufa/LUFA-120730/LUFA/Drivers/USB/Class/Common/HIDParser.c **** 						if (CurrCollectionPath == &ParserData->CollectionPaths[HID_MAX_COLLECTIONS - 1])
 187               		.loc 1 184 0
 188 00a6 2E54      		subi r18,78
 189 00a8 3109      		sbc r19,__zero_reg__
 190 00aa CD57      		subi r28,lo8(-131)
 191 00ac DF4F      		sbci r29,hi8(-131)
 192 00ae 3983      		std Y+1,r19
 193 00b0 2883      		st Y,r18
 194 00b2 C358      		subi r28,lo8(131)
 195 00b4 D040      		sbci r29,hi8(131)
 196               	.LBE9:
 132:../../protocol/lufa/LUFA-120730/LUFA/Drivers/USB/Class/Common/HIDParser.c **** 				if (ParserData->UsingReportIDs)
 197               		.loc 1 132 0
 198 00b6 205B      		subi r18,-80
 199 00b8 3F4F      		sbci r19,-1
 200 00ba EF96      		adiw r28,125-62
 201 00bc 3FAF      		std Y+63,r19
 202 00be 2EAF      		std Y+62,r18
 203 00c0 EF97      		sbiw r28,125-62
 204               	.LBB10:
 136:../../protocol/lufa/LUFA-120730/LUFA/Drivers/USB/Class/Common/HIDParser.c **** 					for (uint8_t i = 0; i < ParserData->TotalDeviceReports; i++)
 205               		.loc 1 136 0
 206 00c2 CB57      		subi r28,lo8(-133)
 207 00c4 DF4F      		sbci r29,hi8(-133)
 208 00c6 B983      		std Y+1,r27
 209 00c8 A883      		st Y,r26
 210 00ca C558      		subi r28,lo8(133)
 211 00cc D040      		sbci r29,hi8(133)
 212               	.LVL5:
 213               	.L2:
 214               	.LBE10:
 215               	.LBE2:
  53:../../protocol/lufa/LUFA-120730/LUFA/Drivers/USB/Class/Common/HIDParser.c **** 	while (ReportSize)
 216               		.loc 1 53 0 discriminator 1
 217 00ce 6115      		cp r22,__zero_reg__
 218 00d0 7105      		cpc r23,__zero_reg__
 219 00d2 01F4      		brne .+2
 220 00d4 00C0      		rjmp .L91
 221               	.LBB17:
  55:../../protocol/lufa/LUFA-120730/LUFA/Drivers/USB/Class/Common/HIDParser.c **** 		uint8_t  HIDReportItem  = *ReportData;
 222               		.loc 1 55 0
 223 00d6 D101      		movw r26,r2
 224 00d8 BC91      		ld r27,X
 225 00da E996      		adiw r28,120-63
 226 00dc BFAF      		std Y+63,r27
 227 00de E997      		sbiw r28,120-63
 228               	.LVL6:
  61:../../protocol/lufa/LUFA-120730/LUFA/Drivers/USB/Class/Common/HIDParser.c **** 		switch (HIDReportItem & HID_RI_DATA_SIZE_MASK)
 229               		.loc 1 61 0
 230 00e0 8B2F      		mov r24,r27
 231 00e2 8370      		andi r24,lo8(3)
 232 00e4 8230      		cpi r24,lo8(2)
 233 00e6 01F0      		breq .L4
 234 00e8 8330      		cpi r24,lo8(3)
 235 00ea 01F0      		breq .L5
 236 00ec 8130      		cpi r24,lo8(1)
 237 00ee 01F0      		breq .L6
  58:../../protocol/lufa/LUFA-120730/LUFA/Drivers/USB/Class/Common/HIDParser.c **** 		ReportData++;
 238               		.loc 1 58 0
 239 00f0 EFEF      		ldi r30,-1
 240 00f2 2E1A      		sub r2,r30
 241 00f4 3E0A      		sbc r3,r30
 242               	.LVL7:
  59:../../protocol/lufa/LUFA-120730/LUFA/Drivers/USB/Class/Common/HIDParser.c **** 		ReportSize--;
 243               		.loc 1 59 0
 244 00f6 6150      		subi r22,1
 245 00f8 7109      		sbc r23,__zero_reg__
 246               	.LVL8:
  56:../../protocol/lufa/LUFA-120730/LUFA/Drivers/USB/Class/Common/HIDParser.c **** 		uint32_t ReportItemData = 0;
 247               		.loc 1 56 0
 248 00fa C12C      		mov r12,__zero_reg__
 249 00fc D12C      		mov r13,__zero_reg__
 250 00fe 7601      		movw r14,r12
 251 0100 00C0      		rjmp .L7
 252               	.LVL9:
 253               	.L5:
  64:../../protocol/lufa/LUFA-120730/LUFA/Drivers/USB/Class/Common/HIDParser.c **** 				ReportItemData  = (((uint32_t)ReportData[3] << 24) | ((uint32_t)ReportData[2] << 16) |
 254               		.loc 1 64 0
 255 0102 D101      		movw r26,r2
 256 0104 1496      		adiw r26,4
 257 0106 8C91      		ld r24,X
 258 0108 1497      		sbiw r26,4
 259 010a 1396      		adiw r26,3
 260 010c CC90      		ld r12,X
 261 010e 1397      		sbiw r26,3
 262 0110 D12C      		mov r13,__zero_reg__
 263 0112 E12C      		mov r14,__zero_reg__
 264 0114 F12C      		mov r15,__zero_reg__
 265 0116 7601      		movw r14,r12
 266 0118 DD24      		clr r13
 267 011a CC24      		clr r12
 268 011c F82A      		or r15,r24
  65:../../protocol/lufa/LUFA-120730/LUFA/Drivers/USB/Class/Common/HIDParser.c **** 			                       ((uint16_t)ReportData[1] << 8)  | ReportData[0]);
 269               		.loc 1 65 0
 270 011e 1196      		adiw r26,1
 271 0120 8C91      		ld r24,X
 272 0122 1197      		sbiw r26,1
  64:../../protocol/lufa/LUFA-120730/LUFA/Drivers/USB/Class/Common/HIDParser.c **** 				ReportItemData  = (((uint32_t)ReportData[3] << 24) | ((uint32_t)ReportData[2] << 16) |
 273               		.loc 1 64 0
 274 0124 C82A      		or r12,r24
  65:../../protocol/lufa/LUFA-120730/LUFA/Drivers/USB/Class/Common/HIDParser.c **** 			                       ((uint16_t)ReportData[1] << 8)  | ReportData[0]);
 275               		.loc 1 65 0
 276 0126 1296      		adiw r26,2
 277 0128 8C91      		ld r24,X
 278 012a 90E0      		ldi r25,0
 279 012c 982F      		mov r25,r24
 280 012e 8827      		clr r24
  64:../../protocol/lufa/LUFA-120730/LUFA/Drivers/USB/Class/Common/HIDParser.c **** 				ReportItemData  = (((uint32_t)ReportData[3] << 24) | ((uint32_t)ReportData[2] << 16) |
 281               		.loc 1 64 0
 282 0130 A0E0      		ldi r26,0
 283 0132 B0E0      		ldi r27,0
 284 0134 C82A      		or r12,r24
 285 0136 D92A      		or r13,r25
 286 0138 EA2A      		or r14,r26
 287 013a FB2A      		or r15,r27
 288               	.LVL10:
  66:../../protocol/lufa/LUFA-120730/LUFA/Drivers/USB/Class/Common/HIDParser.c **** 				ReportSize     -= 4;
 289               		.loc 1 66 0
 290 013c 6550      		subi r22,5
 291 013e 7109      		sbc r23,__zero_reg__
 292               	.LVL11:
  67:../../protocol/lufa/LUFA-120730/LUFA/Drivers/USB/Class/Common/HIDParser.c **** 				ReportData     += 4;
 293               		.loc 1 67 0
 294 0140 B5E0      		ldi r27,5
 295 0142 2B0E      		add r2,r27
 296 0144 311C      		adc r3,__zero_reg__
 297               	.LVL12:
  68:../../protocol/lufa/LUFA-120730/LUFA/Drivers/USB/Class/Common/HIDParser.c **** 				break;
 298               		.loc 1 68 0
 299 0146 00C0      		rjmp .L7
 300               	.LVL13:
 301               	.L4:
  70:../../protocol/lufa/LUFA-120730/LUFA/Drivers/USB/Class/Common/HIDParser.c **** 				ReportItemData  = (((uint16_t)ReportData[1] << 8) | (ReportData[0]));
 302               		.loc 1 70 0
 303 0148 F101      		movw r30,r2
 304 014a C280      		ldd r12,Z+2
 305 014c D12C      		mov r13,__zero_reg__
 306 014e DC2C      		mov r13,r12
 307 0150 CC24      		clr r12
 308 0152 8181      		ldd r24,Z+1
 309 0154 C82A      		or r12,r24
 310 0156 E12C      		mov r14,__zero_reg__
 311 0158 F12C      		mov r15,__zero_reg__
 312               	.LVL14:
  71:../../protocol/lufa/LUFA-120730/LUFA/Drivers/USB/Class/Common/HIDParser.c **** 				ReportSize     -= 2;
 313               		.loc 1 71 0
 314 015a 6350      		subi r22,3
 315 015c 7109      		sbc r23,__zero_reg__
 316               	.LVL15:
  72:../../protocol/lufa/LUFA-120730/LUFA/Drivers/USB/Class/Common/HIDParser.c **** 				ReportData     += 2;
 317               		.loc 1 72 0
 318 015e F3E0      		ldi r31,3
 319 0160 2F0E      		add r2,r31
 320 0162 311C      		adc r3,__zero_reg__
 321               	.LVL16:
  73:../../protocol/lufa/LUFA-120730/LUFA/Drivers/USB/Class/Common/HIDParser.c **** 				break;
 322               		.loc 1 73 0
 323 0164 00C0      		rjmp .L7
 324               	.LVL17:
 325               	.L6:
  75:../../protocol/lufa/LUFA-120730/LUFA/Drivers/USB/Class/Common/HIDParser.c **** 				ReportItemData  = ReportData[0];
 326               		.loc 1 75 0
 327 0166 D101      		movw r26,r2
 328 0168 1196      		adiw r26,1
 329 016a CC90      		ld r12,X
 330 016c D12C      		mov r13,__zero_reg__
 331 016e E12C      		mov r14,__zero_reg__
 332 0170 F12C      		mov r15,__zero_reg__
 333               	.LVL18:
  76:../../protocol/lufa/LUFA-120730/LUFA/Drivers/USB/Class/Common/HIDParser.c **** 				ReportSize     -= 1;
 334               		.loc 1 76 0
 335 0172 6250      		subi r22,2
 336 0174 7109      		sbc r23,__zero_reg__
 337               	.LVL19:
  77:../../protocol/lufa/LUFA-120730/LUFA/Drivers/USB/Class/Common/HIDParser.c **** 				ReportData     += 1;
 338               		.loc 1 77 0
 339 0176 B2E0      		ldi r27,2
 340 0178 2B0E      		add r2,r27
 341 017a 311C      		adc r3,__zero_reg__
 342               	.LVL20:
 343               	.L7:
  81:../../protocol/lufa/LUFA-120730/LUFA/Drivers/USB/Class/Common/HIDParser.c **** 		switch (HIDReportItem & (HID_RI_TYPE_MASK | HID_RI_TAG_MASK))
 344               		.loc 1 81 0
 345 017c E996      		adiw r28,120-63
 346 017e 2FAD      		ldd r18,Y+63
 347 0180 E997      		sbiw r28,120-63
 348 0182 2C7F      		andi r18,lo8(-4)
 349 0184 2436      		cpi r18,lo8(100)
 350 0186 01F4      		brne .+2
 351 0188 00C0      		rjmp .L9
 352 018a 00F4      		brsh .L10
 353 018c 2432      		cpi r18,lo8(36)
 354 018e 01F4      		brne .+2
 355 0190 00C0      		rjmp .L11
 356 0192 00F4      		brsh .L12
 357 0194 2830      		cpi r18,lo8(8)
 358 0196 01F4      		brne .+2
 359 0198 00C0      		rjmp .L13
 360 019a 00F4      		brsh .L14
 361 019c 2430      		cpi r18,lo8(4)
 362 019e 01F0      		breq .+2
 363 01a0 00C0      		rjmp .L8
 103:../../protocol/lufa/LUFA-120730/LUFA/Drivers/USB/Class/Common/HIDParser.c **** 				CurrStateTable->Attributes.Usage.Page       = ReportItemData;
 364               		.loc 1 103 0
 365 01a2 D801      		movw r26,r16
 366 01a4 1296      		adiw r26,1+1
 367 01a6 DC92      		st X,r13
 368 01a8 CE92      		st -X,r12
 369 01aa 1197      		sbiw r26,1
 104:../../protocol/lufa/LUFA-120730/LUFA/Drivers/USB/Class/Common/HIDParser.c **** 				break;
 370               		.loc 1 104 0
 371 01ac 00C0      		rjmp .L8
 372               	.L14:
  81:../../protocol/lufa/LUFA-120730/LUFA/Drivers/USB/Class/Common/HIDParser.c **** 		switch (HIDReportItem & (HID_RI_TYPE_MASK | HID_RI_TAG_MASK))
 373               		.loc 1 81 0
 374 01ae 2431      		cpi r18,lo8(20)
 375 01b0 01F4      		brne .+2
 376 01b2 00C0      		rjmp .L16
 377 01b4 2831      		cpi r18,lo8(24)
 378 01b6 01F0      		breq .+2
 379 01b8 00C0      		rjmp .L8
 380 01ba 4601      		movw r8,r12
 381 01bc 5701      		movw r10,r14
 382               	.LVL21:
 383 01be 00C0      		rjmp .L8
 384               	.LVL22:
 385               	.L12:
 386 01c0 2433      		cpi r18,lo8(52)
 387 01c2 01F4      		brne .+2
 388 01c4 00C0      		rjmp .L18
 389 01c6 00F4      		brsh .L19
 390 01c8 2832      		cpi r18,lo8(40)
 391 01ca 01F0      		breq .+2
 392 01cc 00C0      		rjmp .L8
 393               	.LVL23:
 170:../../protocol/lufa/LUFA-120730/LUFA/Drivers/USB/Class/Common/HIDParser.c **** 				break;
 394               		.loc 1 170 0
 395 01ce 2601      		movw r4,r12
 396 01d0 3701      		movw r6,r14
 397 01d2 00C0      		rjmp .L8
 398               	.LVL24:
 399               	.L19:
  81:../../protocol/lufa/LUFA-120730/LUFA/Drivers/USB/Class/Common/HIDParser.c **** 		switch (HIDReportItem & (HID_RI_TYPE_MASK | HID_RI_TAG_MASK))
 400               		.loc 1 81 0
 401 01d4 2434      		cpi r18,lo8(68)
 402 01d6 01F4      		brne .+2
 403 01d8 00C0      		rjmp .L21
 404 01da 2435      		cpi r18,lo8(84)
 405 01dc 01F0      		breq .+2
 406 01de 00C0      		rjmp .L8
 118:../../protocol/lufa/LUFA-120730/LUFA/Drivers/USB/Class/Common/HIDParser.c **** 				CurrStateTable->Attributes.Unit.Exponent    = ReportItemData;
 407               		.loc 1 118 0
 408 01e0 F801      		movw r30,r16
 409 01e2 C186      		std Z+9,r12
 119:../../protocol/lufa/LUFA-120730/LUFA/Drivers/USB/Class/Common/HIDParser.c **** 				break;
 410               		.loc 1 119 0
 411 01e4 00C0      		rjmp .L8
 412               	.L10:
  81:../../protocol/lufa/LUFA-120730/LUFA/Drivers/USB/Class/Common/HIDParser.c **** 		switch (HIDReportItem & (HID_RI_TYPE_MASK | HID_RI_TAG_MASK))
 413               		.loc 1 81 0
 414 01e6 2439      		cpi r18,lo8(-108)
 415 01e8 01F4      		brne .+2
 416 01ea 00C0      		rjmp .L23
 417 01ec 00F4      		brsh .L24
 418 01ee 2038      		cpi r18,lo8(-128)
 419 01f0 01F0      		breq .L25
 420 01f2 00F4      		brsh .L26
 421 01f4 2437      		cpi r18,lo8(116)
 422 01f6 01F0      		breq .+2
 423 01f8 00C0      		rjmp .L8
 124:../../protocol/lufa/LUFA-120730/LUFA/Drivers/USB/Class/Common/HIDParser.c **** 				CurrStateTable->Attributes.BitSize          = ReportItemData;
 424               		.loc 1 124 0
 425 01fa F801      		movw r30,r16
 426 01fc C082      		st Z,r12
 125:../../protocol/lufa/LUFA-120730/LUFA/Drivers/USB/Class/Common/HIDParser.c **** 				break;
 427               		.loc 1 125 0
 428 01fe 00C0      		rjmp .L8
 429               	.L26:
  81:../../protocol/lufa/LUFA-120730/LUFA/Drivers/USB/Class/Common/HIDParser.c **** 		switch (HIDReportItem & (HID_RI_TYPE_MASK | HID_RI_TAG_MASK))
 430               		.loc 1 81 0
 431 0200 2438      		cpi r18,lo8(-124)
 432 0202 01F4      		brne .+2
 433 0204 00C0      		rjmp .L28
 434 0206 2039      		cpi r18,lo8(-112)
 435 0208 01F0      		breq .L25
 436 020a 00C0      		rjmp .L8
 437               	.L24:
 438 020c 203B      		cpi r18,lo8(-80)
 439 020e 01F0      		breq .L25
 440 0210 00F4      		brsh .L29
 441 0212 203A      		cpi r18,lo8(-96)
 442 0214 01F4      		brne .+2
 443 0216 00C0      		rjmp .L30
 444 0218 243A      		cpi r18,lo8(-92)
 445 021a 01F0      		breq .L31
 446 021c 00C0      		rjmp .L8
 447               	.L29:
 448 021e 243B      		cpi r18,lo8(-76)
 449 0220 01F0      		breq .L32
 450 0222 203C      		cpi r18,lo8(-64)
 451 0224 01F4      		brne .+2
 452 0226 00C0      		rjmp .L33
 453 0228 00C0      		rjmp .L8
 454               	.L25:
 455 022a 30E0      		ldi r19,0
 456               	.LBB11:
 457               	.LBB6:
 260:../../protocol/lufa/LUFA-120730/LUFA/Drivers/USB/Class/Common/HIDParser.c **** 
 261:../../protocol/lufa/LUFA-120730/LUFA/Drivers/USB/Class/Common/HIDParser.c **** 					if (ParserData->TotalReportItems == HID_MAX_REPORTITEMS)
 262:../../protocol/lufa/LUFA-120730/LUFA/Drivers/USB/Class/Common/HIDParser.c **** 					  return HID_PARSE_InsufficientReportItems;
 263:../../protocol/lufa/LUFA-120730/LUFA/Drivers/USB/Class/Common/HIDParser.c **** 
 264:../../protocol/lufa/LUFA-120730/LUFA/Drivers/USB/Class/Common/HIDParser.c **** 					memcpy(&ParserData->ReportItems[ParserData->TotalReportItems],
 265:../../protocol/lufa/LUFA-120730/LUFA/Drivers/USB/Class/Common/HIDParser.c **** 					       &NewReportItem, sizeof(HID_ReportItem_t));
 266:../../protocol/lufa/LUFA-120730/LUFA/Drivers/USB/Class/Common/HIDParser.c **** 
 267:../../protocol/lufa/LUFA-120730/LUFA/Drivers/USB/Class/Common/HIDParser.c **** 					if (!(ReportItemData & HID_IOF_CONSTANT) && CALLBACK_HIDParser_FilterHIDReportItem(&NewReportI
 458               		.loc 1 267 0
 459 022c D701      		movw r26,r14
 460 022e C601      		movw r24,r12
 461 0230 8170      		andi r24,1
 462 0232 9927      		clr r25
 463 0234 AA27      		clr r26
 464 0236 BB27      		clr r27
 465 0238 C158      		subi r28,lo8(-127)
 466 023a DF4F      		sbci r29,hi8(-127)
 467 023c 8883      		st Y,r24
 468 023e 9983      		std Y+1,r25
 469 0240 AA83      		std Y+2,r26
 470 0242 BB83      		std Y+3,r27
 471 0244 CF57      		subi r28,lo8(127)
 472 0246 D040      		sbci r29,hi8(127)
 473 0248 00C0      		rjmp .L34
 474               	.L31:
 475               	.LBE6:
 476               	.LBE11:
  84:../../protocol/lufa/LUFA-120730/LUFA/Drivers/USB/Class/Common/HIDParser.c **** 				if (CurrStateTable == &StateTable[HID_STATETABLE_STACK_DEPTH - 1])
 477               		.loc 1 84 0
 478 024a CE01      		movw r24,r28
 479 024c 4D96      		adiw r24,29
 480 024e 0817      		cp r16,r24
 481 0250 1907      		cpc r17,r25
 482 0252 01F4      		brne .+2
 483 0254 00C0      		rjmp .L64
  87:../../protocol/lufa/LUFA-120730/LUFA/Drivers/USB/Class/Common/HIDParser.c **** 				memcpy((CurrStateTable + 1),
 484               		.loc 1 87 0
 485 0256 C801      		movw r24,r16
 486 0258 4C96      		adiw r24,28
 487 025a 2AE2      		ldi r18,lo8(42)
 488 025c F801      		movw r30,r16
 489 025e DC01      		movw r26,r24
 490               		0:
 491 0260 0190      		ld r0,Z+
 492 0262 0D92      		st X+,r0
 493 0264 2A95      		dec r18
 494 0266 01F4      		brne 0b
 495               	.LVL25:
  91:../../protocol/lufa/LUFA-120730/LUFA/Drivers/USB/Class/Common/HIDParser.c **** 				CurrStateTable++;
 496               		.loc 1 91 0
 497 0268 8C01      		movw r16,r24
  92:../../protocol/lufa/LUFA-120730/LUFA/Drivers/USB/Class/Common/HIDParser.c **** 				break;
 498               		.loc 1 92 0
 499 026a 00C0      		rjmp .L8
 500               	.LVL26:
 501               	.L32:
  94:../../protocol/lufa/LUFA-120730/LUFA/Drivers/USB/Class/Common/HIDParser.c **** 				if (CurrStateTable == &StateTable[0])
 502               		.loc 1 94 0
 503 026c CE01      		movw r24,r28
 504 026e 0196      		adiw r24,1
 505 0270 0817      		cp r16,r24
 506 0272 1907      		cpc r17,r25
 507 0274 01F4      		brne .+2
 508 0276 00C0      		rjmp .L65
  97:../../protocol/lufa/LUFA-120730/LUFA/Drivers/USB/Class/Common/HIDParser.c **** 				CurrStateTable--;
 509               		.loc 1 97 0
 510 0278 0C51      		subi r16,28
 511 027a 1109      		sbc r17,__zero_reg__
 512               	.LVL27:
  98:../../protocol/lufa/LUFA-120730/LUFA/Drivers/USB/Class/Common/HIDParser.c **** 				break;
 513               		.loc 1 98 0
 514 027c 00C0      		rjmp .L8
 515               	.L16:
 106:../../protocol/lufa/LUFA-120730/LUFA/Drivers/USB/Class/Common/HIDParser.c **** 				CurrStateTable->Attributes.Logical.Minimum  = ReportItemData;
 516               		.loc 1 106 0
 517 027e F801      		movw r30,r16
 518 0280 C286      		std Z+10,r12
 519 0282 D386      		std Z+11,r13
 520 0284 E486      		std Z+12,r14
 521 0286 F586      		std Z+13,r15
 107:../../protocol/lufa/LUFA-120730/LUFA/Drivers/USB/Class/Common/HIDParser.c **** 				break;
 522               		.loc 1 107 0
 523 0288 00C0      		rjmp .L8
 524               	.L11:
 109:../../protocol/lufa/LUFA-120730/LUFA/Drivers/USB/Class/Common/HIDParser.c **** 				CurrStateTable->Attributes.Logical.Maximum  = ReportItemData;
 525               		.loc 1 109 0
 526 028a D801      		movw r26,r16
 527 028c 1E96      		adiw r26,14
 528 028e CD92      		st X+,r12
 529 0290 DD92      		st X+,r13
 530 0292 ED92      		st X+,r14
 531 0294 FC92      		st X,r15
 532 0296 5197      		sbiw r26,14+3
 110:../../protocol/lufa/LUFA-120730/LUFA/Drivers/USB/Class/Common/HIDParser.c **** 				break;
 533               		.loc 1 110 0
 534 0298 00C0      		rjmp .L8
 535               	.L18:
 112:../../protocol/lufa/LUFA-120730/LUFA/Drivers/USB/Class/Common/HIDParser.c **** 				CurrStateTable->Attributes.Physical.Minimum = ReportItemData;
 536               		.loc 1 112 0
 537 029a F801      		movw r30,r16
 538 029c C28A      		std Z+18,r12
 539 029e D38A      		std Z+19,r13
 540 02a0 E48A      		std Z+20,r14
 541 02a2 F58A      		std Z+21,r15
 113:../../protocol/lufa/LUFA-120730/LUFA/Drivers/USB/Class/Common/HIDParser.c **** 				break;
 542               		.loc 1 113 0
 543 02a4 00C0      		rjmp .L8
 544               	.L21:
 115:../../protocol/lufa/LUFA-120730/LUFA/Drivers/USB/Class/Common/HIDParser.c **** 				CurrStateTable->Attributes.Physical.Maximum = ReportItemData;
 545               		.loc 1 115 0
 546 02a6 D801      		movw r26,r16
 547 02a8 5696      		adiw r26,22
 548 02aa CD92      		st X+,r12
 549 02ac DD92      		st X+,r13
 550 02ae ED92      		st X+,r14
 551 02b0 FC92      		st X,r15
 552 02b2 5997      		sbiw r26,22+3
 116:../../protocol/lufa/LUFA-120730/LUFA/Drivers/USB/Class/Common/HIDParser.c **** 				break;
 553               		.loc 1 116 0
 554 02b4 00C0      		rjmp .L8
 555               	.L9:
 121:../../protocol/lufa/LUFA-120730/LUFA/Drivers/USB/Class/Common/HIDParser.c **** 				CurrStateTable->Attributes.Unit.Type        = ReportItemData;
 556               		.loc 1 121 0
 557 02b6 D801      		movw r26,r16
 558 02b8 1596      		adiw r26,5
 559 02ba CD92      		st X+,r12
 560 02bc DD92      		st X+,r13
 561 02be ED92      		st X+,r14
 562 02c0 FC92      		st X,r15
 563 02c2 1897      		sbiw r26,5+3
 122:../../protocol/lufa/LUFA-120730/LUFA/Drivers/USB/Class/Common/HIDParser.c **** 				break;
 564               		.loc 1 122 0
 565 02c4 00C0      		rjmp .L8
 566               	.L23:
 127:../../protocol/lufa/LUFA-120730/LUFA/Drivers/USB/Class/Common/HIDParser.c **** 				CurrStateTable->ReportCount                 = ReportItemData;
 567               		.loc 1 127 0
 568 02c6 D801      		movw r26,r16
 569 02c8 5A96      		adiw r26,26
 570 02ca CC92      		st X,r12
 128:../../protocol/lufa/LUFA-120730/LUFA/Drivers/USB/Class/Common/HIDParser.c **** 				break;
 571               		.loc 1 128 0
 572 02cc 00C0      		rjmp .L8
 573               	.L28:
 130:../../protocol/lufa/LUFA-120730/LUFA/Drivers/USB/Class/Common/HIDParser.c **** 				CurrStateTable->ReportID                    = ReportItemData;
 574               		.loc 1 130 0
 575 02ce AC2D      		mov r26,r12
 576 02d0 F801      		movw r30,r16
 577 02d2 C38E      		std Z+27,r12
 132:../../protocol/lufa/LUFA-120730/LUFA/Drivers/USB/Class/Common/HIDParser.c **** 				if (ParserData->UsingReportIDs)
 578               		.loc 1 132 0
 579 02d4 EF96      		adiw r28,125-62
 580 02d6 EEAD      		ldd r30,Y+62
 581 02d8 FFAD      		ldd r31,Y+63
 582 02da EF97      		sbiw r28,125-62
 583 02dc 8081      		ld r24,Z
 584 02de 8823      		tst r24
 585 02e0 01F4      		brne .+2
 586 02e2 00C0      		rjmp .L36
 587               	.LBB12:
 136:../../protocol/lufa/LUFA-120730/LUFA/Drivers/USB/Class/Common/HIDParser.c **** 					for (uint8_t i = 0; i < ParserData->TotalDeviceReports; i++)
 588               		.loc 1 136 0
 589 02e4 CB57      		subi r28,lo8(-133)
 590 02e6 DF4F      		sbci r29,hi8(-133)
 591 02e8 E881      		ld r30,Y
 592 02ea F981      		ldd r31,Y+1
 593 02ec C558      		subi r28,lo8(133)
 594 02ee D040      		sbci r29,hi8(133)
 595 02f0 B081      		ld r27,Z
 596 02f2 9A01      		movw r18,r20
 597 02f4 80E0      		ldi r24,0
 598 02f6 90E0      		ldi r25,0
 599               	.L37:
 600               	.LVL28:
 136:../../protocol/lufa/LUFA-120730/LUFA/Drivers/USB/Class/Common/HIDParser.c **** 					for (uint8_t i = 0; i < ParserData->TotalDeviceReports; i++)
 601               		.loc 1 136 0 is_stmt 0 discriminator 1
 602 02f8 8B17      		cp r24,r27
 603 02fa 00F4      		brsh .L92
 138:../../protocol/lufa/LUFA-120730/LUFA/Drivers/USB/Class/Common/HIDParser.c **** 						if (ParserData->ReportIDSizes[i].ReportID == CurrStateTable->ReportID)
 604               		.loc 1 138 0 is_stmt 1
 605 02fc 7C01      		movw r14,r24
 606 02fe F901      		movw r30,r18
 607 0300 E057      		subi r30,112
 608 0302 FC4F      		sbci r31,-4
 609 0304 E081      		ld r30,Z
 610 0306 0196      		adiw r24,1
 611               	.LVL29:
 612 0308 295F      		subi r18,-7
 613 030a 3F4F      		sbci r19,-1
 614 030c EA13      		cpse r30,r26
 615 030e 00C0      		rjmp .L37
 140:../../protocol/lufa/LUFA-120730/LUFA/Drivers/USB/Class/Common/HIDParser.c **** 							CurrReportIDInfo = &ParserData->ReportIDSizes[i];
 616               		.loc 1 140 0
 617 0310 27E0      		ldi r18,lo8(7)
 618 0312 2E9D      		mul r18,r14
 619 0314 C001      		movw r24,r0
 620 0316 2F9D      		mul r18,r15
 621 0318 900D      		add r25,r0
 622 031a 1124      		clr __zero_reg__
 623 031c 9C01      		movw r18,r24
 624 031e 2057      		subi r18,112
 625 0320 3C4F      		sbci r19,-4
 626 0322 240F      		add r18,r20
 627 0324 351F      		adc r19,r21
 628 0326 E896      		adiw r28,118-62
 629 0328 3FAF      		std Y+63,r19
 630 032a 2EAF      		std Y+62,r18
 631 032c E897      		sbiw r28,118-62
 632               	.LVL30:
 633 032e 00C0      		rjmp .L36
 634               	.LVL31:
 635               	.L92:
 636               	.LBE12:
 147:../../protocol/lufa/LUFA-120730/LUFA/Drivers/USB/Class/Common/HIDParser.c **** 						if (ParserData->TotalDeviceReports == HID_MAX_REPORT_IDS)
 637               		.loc 1 147 0
 638 0330 BA30      		cpi r27,lo8(10)
 639 0332 01F4      		brne .+2
 640 0334 00C0      		rjmp .L93
 150:../../protocol/lufa/LUFA-120730/LUFA/Drivers/USB/Class/Common/HIDParser.c **** 						CurrReportIDInfo = &ParserData->ReportIDSizes[ParserData->TotalDeviceReports++];
 641               		.loc 1 150 0
 642 0336 81E0      		ldi r24,lo8(1)
 643               	.LVL32:
 644 0338 8B0F      		add r24,r27
 645 033a EB96      		adiw r28,121-62
 646 033c EEAD      		ldd r30,Y+62
 647 033e FFAD      		ldd r31,Y+63
 648 0340 EB97      		sbiw r28,121-62
 649 0342 8083      		st Z,r24
 650 0344 87E0      		ldi r24,lo8(7)
 651 0346 9A01      		movw r18,r20
 652 0348 8B9F      		mul r24,r27
 653 034a 200D      		add r18,r0
 654 034c 311D      		adc r19,r1
 655 034e 1124      		clr __zero_reg__
 656 0350 2057      		subi r18,112
 657 0352 3C4F      		sbci r19,-4
 658 0354 E896      		adiw r28,118-62
 659 0356 3FAF      		std Y+63,r19
 660 0358 2EAF      		std Y+62,r18
 661 035a E897      		sbiw r28,118-62
 662               	.LVL33:
 151:../../protocol/lufa/LUFA-120730/LUFA/Drivers/USB/Class/Common/HIDParser.c **** 						memset(CurrReportIDInfo, 0x00, sizeof(HID_ReportSizeInfo_t));
 663               		.loc 1 151 0
 664 035c D901      		movw r26,r18
 665               		0:
 666 035e 1D92      		st X+,__zero_reg__
 667 0360 8A95      		dec r24
 668 0362 01F4      		brne 0b
 669               	.LVL34:
 670               	.L36:
 155:../../protocol/lufa/LUFA-120730/LUFA/Drivers/USB/Class/Common/HIDParser.c **** 				ParserData->UsingReportIDs = true;
 671               		.loc 1 155 0
 672 0364 81E0      		ldi r24,lo8(1)
 673 0366 EF96      		adiw r28,125-62
 674 0368 EEAD      		ldd r30,Y+62
 675 036a FFAD      		ldd r31,Y+63
 676 036c EF97      		sbiw r28,125-62
 677 036e 8083      		st Z,r24
 157:../../protocol/lufa/LUFA-120730/LUFA/Drivers/USB/Class/Common/HIDParser.c **** 				CurrReportIDInfo->ReportID = CurrStateTable->ReportID;
 678               		.loc 1 157 0
 679 0370 D801      		movw r26,r16
 680 0372 5B96      		adiw r26,27
 681 0374 8C91      		ld r24,X
 682 0376 E896      		adiw r28,118-62
 683 0378 EEAD      		ldd r30,Y+62
 684 037a FFAD      		ldd r31,Y+63
 685 037c E897      		sbiw r28,118-62
 686 037e 8083      		st Z,r24
 158:../../protocol/lufa/LUFA-120730/LUFA/Drivers/USB/Class/Common/HIDParser.c **** 				break;
 687               		.loc 1 158 0
 688 0380 00C0      		rjmp .L8
 689               	.L13:
 160:../../protocol/lufa/LUFA-120730/LUFA/Drivers/USB/Class/Common/HIDParser.c **** 				if (UsageListSize == HID_USAGE_STACK_DEPTH)
 690               		.loc 1 160 0
 691 0382 E496      		adiw r28,115-63
 692 0384 2FAD      		ldd r18,Y+63
 693 0386 E497      		sbiw r28,115-63
 694 0388 2830      		cpi r18,lo8(8)
 695 038a 01F4      		brne .+2
 696 038c 00C0      		rjmp .L66
 697               	.LVL35:
 163:../../protocol/lufa/LUFA-120730/LUFA/Drivers/USB/Class/Common/HIDParser.c **** 				UsageList[UsageListSize++] = ReportItemData;
 698               		.loc 1 163 0
 699 038e FE01      		movw r30,r28
 700 0390 ED59      		subi r30,-99
 701 0392 FF4F      		sbci r31,-1
 702 0394 E20F      		add r30,r18
 703 0396 F11D      		adc r31,__zero_reg__
 704 0398 E20F      		add r30,r18
 705 039a F11D      		adc r31,__zero_reg__
 706 039c D182      		std Z+1,r13
 707 039e C082      		st Z,r12
 708 03a0 2F5F      		subi r18,lo8(-(1))
 709               	.LVL36:
 710 03a2 E496      		adiw r28,115-63
 711 03a4 2FAF      		std Y+63,r18
 712 03a6 E497      		sbiw r28,115-63
 164:../../protocol/lufa/LUFA-120730/LUFA/Drivers/USB/Class/Common/HIDParser.c **** 				break;
 713               		.loc 1 164 0
 714 03a8 00C0      		rjmp .L8
 715               	.LVL37:
 716               	.L30:
 172:../../protocol/lufa/LUFA-120730/LUFA/Drivers/USB/Class/Common/HIDParser.c **** 				if (CurrCollectionPath == NULL)
 717               		.loc 1 172 0
 718 03aa E696      		adiw r28,116-62
 719 03ac 2EAD      		ldd r18,Y+62
 720 03ae 3FAD      		ldd r19,Y+63
 721 03b0 E697      		sbiw r28,116-62
 722 03b2 232B      		or r18,r19
 723 03b4 01F4      		brne .L41
 174:../../protocol/lufa/LUFA-120730/LUFA/Drivers/USB/Class/Common/HIDParser.c **** 					CurrCollectionPath = &ParserData->CollectionPaths[0];
 724               		.loc 1 174 0
 725 03b6 9A01      		movw r18,r20
 726 03b8 275B      		subi r18,-73
 727 03ba 3C4F      		sbci r19,-4
 728 03bc E696      		adiw r28,116-62
 729 03be 3FAF      		std Y+63,r19
 730 03c0 2EAF      		std Y+62,r18
 731 03c2 E697      		sbiw r28,116-62
 732               	.LVL38:
 733 03c4 00C0      		rjmp .L42
 734               	.LVL39:
 735               	.L41:
 736               	.LBB13:
 180:../../protocol/lufa/LUFA-120730/LUFA/Drivers/USB/Class/Common/HIDParser.c **** 					CurrCollectionPath = &ParserData->CollectionPaths[1];
 737               		.loc 1 180 0
 738 03c6 FA01      		movw r30,r20
 739 03c8 E05B      		subi r30,-80
 740 03ca FC4F      		sbci r31,-4
 741               	.LVL40:
 742               	.L43:
 182:../../protocol/lufa/LUFA-120730/LUFA/Drivers/USB/Class/Common/HIDParser.c **** 					while (CurrCollectionPath->Parent != NULL)
 743               		.loc 1 182 0 discriminator 1
 744 03cc 8581      		ldd r24,Z+5
 745 03ce 9681      		ldd r25,Z+6
 746 03d0 892B      		or r24,r25
 747 03d2 01F0      		breq .L94
 184:../../protocol/lufa/LUFA-120730/LUFA/Drivers/USB/Class/Common/HIDParser.c **** 						if (CurrCollectionPath == &ParserData->CollectionPaths[HID_MAX_COLLECTIONS - 1])
 748               		.loc 1 184 0
 749 03d4 CD57      		subi r28,lo8(-131)
 750 03d6 DF4F      		sbci r29,hi8(-131)
 751 03d8 2881      		ld r18,Y
 752 03da 3981      		ldd r19,Y+1
 753 03dc C358      		subi r28,lo8(131)
 754 03de D040      		sbci r29,hi8(131)
 755 03e0 E217      		cp r30,r18
 756 03e2 F307      		cpc r31,r19
 757 03e4 01F4      		brne .+2
 758 03e6 00C0      		rjmp .L67
 187:../../protocol/lufa/LUFA-120730/LUFA/Drivers/USB/Class/Common/HIDParser.c **** 						CurrCollectionPath++;
 759               		.loc 1 187 0
 760 03e8 3796      		adiw r30,7
 761               	.LVL41:
 762 03ea 00C0      		rjmp .L43
 763               	.L94:
 190:../../protocol/lufa/LUFA-120730/LUFA/Drivers/USB/Class/Common/HIDParser.c **** 					CurrCollectionPath->Parent = ParentCollectionPath;
 764               		.loc 1 190 0
 765 03ec E696      		adiw r28,116-62
 766 03ee 2EAD      		ldd r18,Y+62
 767 03f0 3FAD      		ldd r19,Y+63
 768 03f2 E697      		sbiw r28,116-62
 769 03f4 3683      		std Z+6,r19
 770 03f6 2583      		std Z+5,r18
 771 03f8 E696      		adiw r28,116-62
 772 03fa FFAF      		std Y+63,r31
 773 03fc EEAF      		std Y+62,r30
 774 03fe E697      		sbiw r28,116-62
 775               	.LVL42:
 776               	.L42:
 777               	.LBE13:
 193:../../protocol/lufa/LUFA-120730/LUFA/Drivers/USB/Class/Common/HIDParser.c **** 				CurrCollectionPath->Type       = ReportItemData;
 778               		.loc 1 193 0
 779 0400 E696      		adiw r28,116-62
 780 0402 AEAD      		ldd r26,Y+62
 781 0404 BFAD      		ldd r27,Y+63
 782 0406 E697      		sbiw r28,116-62
 783 0408 CC92      		st X,r12
 194:../../protocol/lufa/LUFA-120730/LUFA/Drivers/USB/Class/Common/HIDParser.c **** 				CurrCollectionPath->Usage.Page = CurrStateTable->Attributes.Usage.Page;
 784               		.loc 1 194 0
 785 040a F801      		movw r30,r16
 786 040c 8181      		ldd r24,Z+1
 787 040e 9281      		ldd r25,Z+2
 788 0410 1296      		adiw r26,1+1
 789 0412 9C93      		st X,r25
 790 0414 8E93      		st -X,r24
 791 0416 1197      		sbiw r26,1
 196:../../protocol/lufa/LUFA-120730/LUFA/Drivers/USB/Class/Common/HIDParser.c **** 				if (UsageListSize)
 792               		.loc 1 196 0
 793 0418 E496      		adiw r28,115-63
 794 041a 2FAD      		ldd r18,Y+63
 795 041c E497      		sbiw r28,115-63
 796 041e 2223      		tst r18
 797 0420 01F0      		breq .L45
 198:../../protocol/lufa/LUFA-120730/LUFA/Drivers/USB/Class/Common/HIDParser.c **** 					CurrCollectionPath->Usage.Usage = UsageList[0];
 798               		.loc 1 198 0
 799 0422 A596      		adiw r28,99-62
 800 0424 8EAD      		ldd r24,Y+62
 801 0426 9FAD      		ldd r25,Y+63
 802 0428 A597      		sbiw r28,99-62
 803 042a 1496      		adiw r26,3+1
 804 042c 9C93      		st X,r25
 805 042e 8E93      		st -X,r24
 806 0430 1397      		sbiw r26,3
 807               	.LVL43:
 808 0432 FE01      		movw r30,r28
 809 0434 ED59      		subi r30,-99
 810 0436 FF4F      		sbci r31,-1
 811               	.LBB14:
 200:../../protocol/lufa/LUFA-120730/LUFA/Drivers/USB/Class/Common/HIDParser.c **** 					for (uint8_t i = 0; i < UsageListSize; i++)
 812               		.loc 1 200 0
 813 0438 20E0      		ldi r18,0
 814               	.LVL44:
 815               	.L46:
 201:../../protocol/lufa/LUFA-120730/LUFA/Drivers/USB/Class/Common/HIDParser.c **** 					  UsageList[i] = UsageList[i + 1];
 816               		.loc 1 201 0 discriminator 2
 817 043a 8281      		ldd r24,Z+2
 818 043c 9381      		ldd r25,Z+3
 819 043e 8193      		st Z+,r24
 820 0440 9193      		st Z+,r25
 200:../../protocol/lufa/LUFA-120730/LUFA/Drivers/USB/Class/Common/HIDParser.c **** 					for (uint8_t i = 0; i < UsageListSize; i++)
 821               		.loc 1 200 0 discriminator 2
 822 0442 2F5F      		subi r18,lo8(-(1))
 823               	.LVL45:
 824 0444 E496      		adiw r28,115-63
 825 0446 3FAD      		ldd r19,Y+63
 826 0448 E497      		sbiw r28,115-63
 827 044a 2313      		cpse r18,r19
 828 044c 00C0      		rjmp .L46
 829               	.LBE14:
 203:../../protocol/lufa/LUFA-120730/LUFA/Drivers/USB/Class/Common/HIDParser.c **** 					UsageListSize--;
 830               		.loc 1 203 0
 831 044e 3150      		subi r19,lo8(-(-1))
 832 0450 E496      		adiw r28,115-63
 833 0452 3FAF      		std Y+63,r19
 834 0454 E497      		sbiw r28,115-63
 835               	.LVL46:
 836 0456 00C0      		rjmp .L8
 837               	.LVL47:
 838               	.L45:
 205:../../protocol/lufa/LUFA-120730/LUFA/Drivers/USB/Class/Common/HIDParser.c **** 				else if (UsageMinMax.Minimum <= UsageMinMax.Maximum)
 839               		.loc 1 205 0
 840 0458 4814      		cp r4,r8
 841 045a 5904      		cpc r5,r9
 842 045c 6A04      		cpc r6,r10
 843 045e 7B04      		cpc r7,r11
 844 0460 00F4      		brsh .+2
 845 0462 00C0      		rjmp .L8
 846               	.LVL48:
 207:../../protocol/lufa/LUFA-120730/LUFA/Drivers/USB/Class/Common/HIDParser.c **** 					CurrCollectionPath->Usage.Usage = UsageMinMax.Minimum++;
 847               		.loc 1 207 0
 848 0464 E696      		adiw r28,116-62
 849 0466 AEAD      		ldd r26,Y+62
 850 0468 BFAD      		ldd r27,Y+63
 851 046a E697      		sbiw r28,116-62
 852 046c 1496      		adiw r26,3+1
 853 046e 9C92      		st X,r9
 854 0470 8E92      		st -X,r8
 855 0472 1397      		sbiw r26,3
 856 0474 BFEF      		ldi r27,-1
 857 0476 8B1A      		sub r8,r27
 858 0478 9B0A      		sbc r9,r27
 859 047a AB0A      		sbc r10,r27
 860 047c BB0A      		sbc r11,r27
 861               	.LVL49:
 862 047e 00C0      		rjmp .L8
 863               	.L33:
 212:../../protocol/lufa/LUFA-120730/LUFA/Drivers/USB/Class/Common/HIDParser.c **** 				if (CurrCollectionPath == NULL)
 864               		.loc 1 212 0
 865 0480 E696      		adiw r28,116-62
 866 0482 2EAD      		ldd r18,Y+62
 867 0484 3FAD      		ldd r19,Y+63
 868 0486 E697      		sbiw r28,116-62
 869 0488 2115      		cp r18,__zero_reg__
 870 048a 3105      		cpc r19,__zero_reg__
 871 048c 01F4      		brne .+2
 872 048e 00C0      		rjmp .L68
 215:../../protocol/lufa/LUFA-120730/LUFA/Drivers/USB/Class/Common/HIDParser.c **** 				CurrCollectionPath = CurrCollectionPath->Parent;
 873               		.loc 1 215 0
 874 0490 D901      		movw r26,r18
 875 0492 1596      		adiw r26,5
 876 0494 0D90      		ld __tmp_reg__,X+
 877 0496 BC91      		ld r27,X
 878 0498 A02D      		mov r26,__tmp_reg__
 879 049a E696      		adiw r28,116-62
 880 049c BFAF      		std Y+63,r27
 881 049e AEAF      		std Y+62,r26
 882 04a0 E697      		sbiw r28,116-62
 883               	.LVL50:
 216:../../protocol/lufa/LUFA-120730/LUFA/Drivers/USB/Class/Common/HIDParser.c **** 				break;
 884               		.loc 1 216 0
 885 04a2 00C0      		rjmp .L8
 886               	.LVL51:
 887               	.L56:
 888               	.LBB15:
 889               	.LBB7:
 264:../../protocol/lufa/LUFA-120730/LUFA/Drivers/USB/Class/Common/HIDParser.c **** 					memcpy(&ParserData->ReportItems[ParserData->TotalReportItems],
 890               		.loc 1 264 0
 891 04a4 DA01      		movw r26,r20
 892 04a6 FAE2      		ldi r31,lo8(42)
 893 04a8 F89F      		mul r31,r24
 894 04aa A00D      		add r26,r0
 895 04ac B11D      		adc r27,r1
 896 04ae 1124      		clr __zero_reg__
 897 04b0 1196      		adiw r26,1
 898 04b2 FE01      		movw r30,r28
 899 04b4 F996      		adiw r30,57
 900 04b6 8AE2      		ldi r24,lo8(42)
 901               		0:
 902 04b8 0190      		ld r0,Z+
 903 04ba 0D92      		st X+,r0
 904 04bc 8A95      		dec r24
 905 04be 01F4      		brne 0b
 906               		.loc 1 267 0
 907 04c0 C158      		subi r28,lo8(-127)
 908 04c2 DF4F      		sbci r29,hi8(-127)
 909 04c4 8881      		ld r24,Y
 910 04c6 9981      		ldd r25,Y+1
 911 04c8 AA81      		ldd r26,Y+2
 912 04ca BB81      		ldd r27,Y+3
 913 04cc CF57      		subi r28,lo8(127)
 914 04ce D040      		sbci r29,hi8(127)
 915 04d0 892B      		or r24,r25
 916 04d2 8A2B      		or r24,r26
 917 04d4 8B2B      		or r24,r27
 918 04d6 01F4      		brne .+2
 919 04d8 00C0      		rjmp .L95
 920               	.LVL52:
 921               	.L58:
 922               	.LBE7:
 220:../../protocol/lufa/LUFA-120730/LUFA/Drivers/USB/Class/Common/HIDParser.c **** 				for (uint8_t ReportItemNum = 0; ReportItemNum < CurrStateTable->ReportCount; ReportItemNum++)
 923               		.loc 1 220 0
 924 04da 3F5F      		subi r19,lo8(-(1))
 925               	.LVL53:
 926               	.L34:
 220:../../protocol/lufa/LUFA-120730/LUFA/Drivers/USB/Class/Common/HIDParser.c **** 				for (uint8_t ReportItemNum = 0; ReportItemNum < CurrStateTable->ReportCount; ReportItemNum++)
 927               		.loc 1 220 0 is_stmt 0 discriminator 1
 928 04dc F801      		movw r30,r16
 929 04de 828D      		ldd r24,Z+26
 930 04e0 3817      		cp r19,r24
 931 04e2 00F0      		brlo .+2
 932 04e4 00C0      		rjmp .L8
 933               	.LBB8:
 224:../../protocol/lufa/LUFA-120730/LUFA/Drivers/USB/Class/Common/HIDParser.c **** 					memcpy(&NewReportItem.Attributes,
 934               		.loc 1 224 0 is_stmt 1
 935 04e6 F801      		movw r30,r16
 936 04e8 DE01      		movw r26,r28
 937 04ea AF5B      		subi r26,-65
 938 04ec BF4F      		sbci r27,-1
 939 04ee 8AE1      		ldi r24,lo8(26)
 940               		0:
 941 04f0 0190      		ld r0,Z+
 942 04f2 0D92      		st X+,r0
 943 04f4 8A95      		dec r24
 944 04f6 01F4      		brne 0b
 228:../../protocol/lufa/LUFA-120730/LUFA/Drivers/USB/Class/Common/HIDParser.c **** 					NewReportItem.ItemFlags      = ReportItemData;
 945               		.loc 1 228 0
 946 04f8 DDAE      		std Y+61,r13
 947 04fa CCAE      		std Y+60,r12
 229:../../protocol/lufa/LUFA-120730/LUFA/Drivers/USB/Class/Common/HIDParser.c **** 					NewReportItem.CollectionPath = CurrCollectionPath;
 948               		.loc 1 229 0
 949 04fc E696      		adiw r28,116-62
 950 04fe EEAD      		ldd r30,Y+62
 951 0500 FFAD      		ldd r31,Y+63
 952 0502 E697      		sbiw r28,116-62
 953 0504 2196      		adiw r28,63-62
 954 0506 FFAF      		std Y+63,r31
 955 0508 EEAF      		std Y+62,r30
 956 050a 2197      		sbiw r28,63-62
 230:../../protocol/lufa/LUFA-120730/LUFA/Drivers/USB/Class/Common/HIDParser.c **** 					NewReportItem.ReportID       = CurrStateTable->ReportID;
 957               		.loc 1 230 0
 958 050c D801      		movw r26,r16
 959 050e 5B96      		adiw r26,27
 960 0510 8C91      		ld r24,X
 961 0512 8EAF      		std Y+62,r24
 232:../../protocol/lufa/LUFA-120730/LUFA/Drivers/USB/Class/Common/HIDParser.c **** 					if (UsageListSize)
 962               		.loc 1 232 0
 963 0514 E496      		adiw r28,115-63
 964 0516 BFAD      		ldd r27,Y+63
 965 0518 E497      		sbiw r28,115-63
 966 051a BB23      		tst r27
 967 051c 01F0      		breq .L48
 234:../../protocol/lufa/LUFA-120730/LUFA/Drivers/USB/Class/Common/HIDParser.c **** 						NewReportItem.Attributes.Usage.Usage = UsageList[0];
 968               		.loc 1 234 0
 969 051e A596      		adiw r28,99-62
 970 0520 8EAD      		ldd r24,Y+62
 971 0522 9FAD      		ldd r25,Y+63
 972 0524 A597      		sbiw r28,99-62
 973 0526 2696      		adiw r28,68-62
 974 0528 9FAF      		std Y+63,r25
 975 052a 8EAF      		std Y+62,r24
 976 052c 2697      		sbiw r28,68-62
 977               	.LVL54:
 978 052e FE01      		movw r30,r28
 979 0530 ED59      		subi r30,-99
 980 0532 FF4F      		sbci r31,-1
 981               	.LBB5:
 236:../../protocol/lufa/LUFA-120730/LUFA/Drivers/USB/Class/Common/HIDParser.c **** 						for (uint8_t i = 0; i < UsageListSize; i++)
 982               		.loc 1 236 0
 983 0534 A0E0      		ldi r26,0
 984               	.LVL55:
 985               	.L49:
 237:../../protocol/lufa/LUFA-120730/LUFA/Drivers/USB/Class/Common/HIDParser.c **** 						  UsageList[i] = UsageList[i + 1];
 986               		.loc 1 237 0 discriminator 2
 987 0536 8281      		ldd r24,Z+2
 988 0538 9381      		ldd r25,Z+3
 989 053a 8193      		st Z+,r24
 990 053c 9193      		st Z+,r25
 236:../../protocol/lufa/LUFA-120730/LUFA/Drivers/USB/Class/Common/HIDParser.c **** 						for (uint8_t i = 0; i < UsageListSize; i++)
 991               		.loc 1 236 0 discriminator 2
 992 053e AF5F      		subi r26,lo8(-(1))
 993               	.LVL56:
 994 0540 E496      		adiw r28,115-63
 995 0542 8FAD      		ldd r24,Y+63
 996 0544 E497      		sbiw r28,115-63
 997 0546 A813      		cpse r26,r24
 998 0548 00C0      		rjmp .L49
 999               	.LBE5:
 239:../../protocol/lufa/LUFA-120730/LUFA/Drivers/USB/Class/Common/HIDParser.c **** 						UsageListSize--;
 1000               		.loc 1 239 0
 1001 054a 8150      		subi r24,lo8(-(-1))
 1002 054c E496      		adiw r28,115-63
 1003 054e 8FAF      		std Y+63,r24
 1004 0550 E497      		sbiw r28,115-63
 1005               	.LVL57:
 1006 0552 00C0      		rjmp .L51
 1007               	.LVL58:
 1008               	.L48:
 241:../../protocol/lufa/LUFA-120730/LUFA/Drivers/USB/Class/Common/HIDParser.c **** 					else if (UsageMinMax.Minimum <= UsageMinMax.Maximum)
 1009               		.loc 1 241 0
 1010 0554 4814      		cp r4,r8
 1011 0556 5904      		cpc r5,r9
 1012 0558 6A04      		cpc r6,r10
 1013 055a 7B04      		cpc r7,r11
 1014 055c 00F0      		brlo .L51
 1015               	.LVL59:
 243:../../protocol/lufa/LUFA-120730/LUFA/Drivers/USB/Class/Common/HIDParser.c **** 						NewReportItem.Attributes.Usage.Usage = UsageMinMax.Minimum++;
 1016               		.loc 1 243 0
 1017 055e 2696      		adiw r28,68-62
 1018 0560 9FAE      		std Y+63,r9
 1019 0562 8EAE      		std Y+62,r8
 1020 0564 2697      		sbiw r28,68-62
 1021 0566 9FEF      		ldi r25,-1
 1022 0568 891A      		sub r8,r25
 1023 056a 990A      		sbc r9,r25
 1024 056c A90A      		sbc r10,r25
 1025 056e B90A      		sbc r11,r25
 1026               	.LVL60:
 1027               	.L51:
 248:../../protocol/lufa/LUFA-120730/LUFA/Drivers/USB/Class/Common/HIDParser.c **** 					if (ItemTypeTag == HID_RI_INPUT(0))
 1028               		.loc 1 248 0
 1029 0570 2038      		cpi r18,lo8(-128)
 1030 0572 01F4      		brne .L52
 249:../../protocol/lufa/LUFA-120730/LUFA/Drivers/USB/Class/Common/HIDParser.c **** 					  NewReportItem.ItemType = HID_REPORT_ITEM_In;
 1031               		.loc 1 249 0
 1032 0574 1BAE      		std Y+59,__zero_reg__
 1033 0576 00C0      		rjmp .L53
 1034               	.L52:
 250:../../protocol/lufa/LUFA-120730/LUFA/Drivers/USB/Class/Common/HIDParser.c **** 					else if (ItemTypeTag == HID_RI_OUTPUT(0))
 1035               		.loc 1 250 0
 1036 0578 2039      		cpi r18,lo8(-112)
 1037 057a 01F4      		brne .L54
 251:../../protocol/lufa/LUFA-120730/LUFA/Drivers/USB/Class/Common/HIDParser.c **** 					  NewReportItem.ItemType = HID_REPORT_ITEM_Out;
 1038               		.loc 1 251 0
 1039 057c A1E0      		ldi r26,lo8(1)
 1040 057e ABAF      		std Y+59,r26
 1041 0580 00C0      		rjmp .L53
 1042               	.L54:
 253:../../protocol/lufa/LUFA-120730/LUFA/Drivers/USB/Class/Common/HIDParser.c **** 					  NewReportItem.ItemType = HID_REPORT_ITEM_Feature;
 1043               		.loc 1 253 0
 1044 0582 B2E0      		ldi r27,lo8(2)
 1045 0584 BBAF      		std Y+59,r27
 1046               	.L53:
 255:../../protocol/lufa/LUFA-120730/LUFA/Drivers/USB/Class/Common/HIDParser.c **** 					NewReportItem.BitOffset = CurrReportIDInfo->ReportSizeBits[NewReportItem.ItemType];
 1047               		.loc 1 255 0
 1048 0586 8BAD      		ldd r24,Y+59
 1049 0588 E896      		adiw r28,118-62
 1050 058a EEAD      		ldd r30,Y+62
 1051 058c FFAD      		ldd r31,Y+63
 1052 058e E897      		sbiw r28,118-62
 1053 0590 E80F      		add r30,r24
 1054 0592 F11D      		adc r31,__zero_reg__
 1055 0594 E80F      		add r30,r24
 1056 0596 F11D      		adc r31,__zero_reg__
 1057 0598 8181      		ldd r24,Z+1
 1058 059a 9281      		ldd r25,Z+2
 1059 059c 9AAF      		std Y+58,r25
 1060 059e 89AF      		std Y+57,r24
 257:../../protocol/lufa/LUFA-120730/LUFA/Drivers/USB/Class/Common/HIDParser.c **** 					CurrReportIDInfo->ReportSizeBits[NewReportItem.ItemType] += CurrStateTable->Attributes.BitSize
 1061               		.loc 1 257 0
 1062 05a0 D801      		movw r26,r16
 1063 05a2 BC91      		ld r27,X
 1064 05a4 8181      		ldd r24,Z+1
 1065 05a6 9281      		ldd r25,Z+2
 1066 05a8 8B0F      		add r24,r27
 1067 05aa 911D      		adc r25,__zero_reg__
 1068 05ac 9283      		std Z+2,r25
 1069 05ae 8183      		std Z+1,r24
 259:../../protocol/lufa/LUFA-120730/LUFA/Drivers/USB/Class/Common/HIDParser.c **** 					ParserData->LargestReportSizeBits = MAX(ParserData->LargestReportSizeBits, CurrReportIDInfo->R
 1070               		.loc 1 259 0
 1071 05b0 8BAD      		ldd r24,Y+59
 1072 05b2 E896      		adiw r28,118-62
 1073 05b4 EEAD      		ldd r30,Y+62
 1074 05b6 FFAD      		ldd r31,Y+63
 1075 05b8 E897      		sbiw r28,118-62
 1076 05ba E80F      		add r30,r24
 1077 05bc F11D      		adc r31,__zero_reg__
 1078 05be E80F      		add r30,r24
 1079 05c0 F11D      		adc r31,__zero_reg__
 1080 05c2 ED96      		adiw r28,123-62
 1081 05c4 AEAD      		ldd r26,Y+62
 1082 05c6 BFAD      		ldd r27,Y+63
 1083 05c8 ED97      		sbiw r28,123-62
 1084 05ca 8D91      		ld r24,X+
 1085 05cc 9C91      		ld r25,X
 1086 05ce 0180      		ldd __tmp_reg__,Z+1
 1087 05d0 F281      		ldd r31,Z+2
 1088 05d2 E02D      		mov r30,__tmp_reg__
 1089 05d4 E817      		cp r30,r24
 1090 05d6 F907      		cpc r31,r25
 1091 05d8 00F4      		brsh .L55
 1092 05da FC01      		movw r30,r24
 1093               	.L55:
 1094 05dc ED96      		adiw r28,123-62
 1095 05de AEAD      		ldd r26,Y+62
 1096 05e0 BFAD      		ldd r27,Y+63
 1097 05e2 ED97      		sbiw r28,123-62
 1098 05e4 ED93      		st X+,r30
 1099 05e6 FC93      		st X,r31
 261:../../protocol/lufa/LUFA-120730/LUFA/Drivers/USB/Class/Common/HIDParser.c **** 					if (ParserData->TotalReportItems == HID_MAX_REPORTITEMS)
 1100               		.loc 1 261 0
 1101 05e8 FA01      		movw r30,r20
 1102 05ea 8081      		ld r24,Z
 1103 05ec 8431      		cpi r24,lo8(20)
 1104 05ee 01F0      		breq .+2
 1105 05f0 00C0      		rjmp .L56
 262:../../protocol/lufa/LUFA-120730/LUFA/Drivers/USB/Class/Common/HIDParser.c **** 					  return HID_PARSE_InsufficientReportItems;
 1106               		.loc 1 262 0
 1107 05f2 83E0      		ldi r24,lo8(3)
 1108 05f4 00C0      		rjmp .L88
 1109               	.L95:
 1110               		.loc 1 267 0 discriminator 1
 1111 05f6 CE01      		movw r24,r28
 1112 05f8 C996      		adiw r24,57
 1113 05fa C857      		subi r28,lo8(-136)
 1114 05fc DF4F      		sbci r29,hi8(-136)
 1115 05fe 2883      		st Y,r18
 1116 0600 C858      		subi r28,lo8(136)
 1117 0602 D040      		sbci r29,hi8(136)
 1118 0604 C957      		subi r28,lo8(-135)
 1119 0606 DF4F      		sbci r29,hi8(-135)
 1120 0608 3883      		st Y,r19
 1121 060a C758      		subi r28,lo8(135)
 1122 060c D040      		sbci r29,hi8(135)
 1123 060e C557      		subi r28,lo8(-139)
 1124 0610 DF4F      		sbci r29,hi8(-139)
 1125 0612 4883      		st Y,r20
 1126 0614 CB58      		subi r28,lo8(139)
 1127 0616 D040      		sbci r29,hi8(139)
 1128 0618 C457      		subi r28,lo8(-140)
 1129 061a DF4F      		sbci r29,hi8(-140)
 1130 061c 5883      		st Y,r21
 1131 061e CC58      		subi r28,lo8(140)
 1132 0620 D040      		sbci r29,hi8(140)
 1133 0622 C757      		subi r28,lo8(-137)
 1134 0624 DF4F      		sbci r29,hi8(-137)
 1135 0626 6883      		st Y,r22
 1136 0628 C958      		subi r28,lo8(137)
 1137 062a D040      		sbci r29,hi8(137)
 1138 062c C657      		subi r28,lo8(-138)
 1139 062e DF4F      		sbci r29,hi8(-138)
 1140 0630 7883      		st Y,r23
 1141 0632 CA58      		subi r28,lo8(138)
 1142 0634 D040      		sbci r29,hi8(138)
 1143 0636 0E94 0000 		call CALLBACK_HIDParser_FilterHIDReportItem
 1144               	.LVL61:
 1145 063a C857      		subi r28,lo8(-136)
 1146 063c DF4F      		sbci r29,hi8(-136)
 1147 063e 2881      		ld r18,Y
 1148 0640 C858      		subi r28,lo8(136)
 1149 0642 D040      		sbci r29,hi8(136)
 1150 0644 C957      		subi r28,lo8(-135)
 1151 0646 DF4F      		sbci r29,hi8(-135)
 1152 0648 3881      		ld r19,Y
 1153 064a C758      		subi r28,lo8(135)
 1154 064c D040      		sbci r29,hi8(135)
 1155 064e C557      		subi r28,lo8(-139)
 1156 0650 DF4F      		sbci r29,hi8(-139)
 1157 0652 4881      		ld r20,Y
 1158 0654 CB58      		subi r28,lo8(139)
 1159 0656 D040      		sbci r29,hi8(139)
 1160 0658 C457      		subi r28,lo8(-140)
 1161 065a DF4F      		sbci r29,hi8(-140)
 1162 065c 5881      		ld r21,Y
 1163 065e CC58      		subi r28,lo8(140)
 1164 0660 D040      		sbci r29,hi8(140)
 1165 0662 C757      		subi r28,lo8(-137)
 1166 0664 DF4F      		sbci r29,hi8(-137)
 1167 0666 6881      		ld r22,Y
 1168 0668 C958      		subi r28,lo8(137)
 1169 066a D040      		sbci r29,hi8(137)
 1170 066c C657      		subi r28,lo8(-138)
 1171 066e DF4F      		sbci r29,hi8(-138)
 1172 0670 7881      		ld r23,Y
 1173 0672 CA58      		subi r28,lo8(138)
 1174 0674 D040      		sbci r29,hi8(138)
 1175 0676 8823      		tst r24
 1176 0678 01F4      		brne .+2
 1177 067a 00C0      		rjmp .L58
 268:../../protocol/lufa/LUFA-120730/LUFA/Drivers/USB/Class/Common/HIDParser.c **** 					  ParserData->TotalReportItems++;
 1178               		.loc 1 268 0
 1179 067c DA01      		movw r26,r20
 1180 067e 8C91      		ld r24,X
 1181 0680 8F5F      		subi r24,lo8(-(1))
 1182 0682 8C93      		st X,r24
 1183 0684 00C0      		rjmp .L58
 1184               	.LVL62:
 1185               	.L8:
 1186               	.LBE8:
 1187               	.LBE15:
 269:../../protocol/lufa/LUFA-120730/LUFA/Drivers/USB/Class/Common/HIDParser.c **** 				}
 270:../../protocol/lufa/LUFA-120730/LUFA/Drivers/USB/Class/Common/HIDParser.c **** 
 271:../../protocol/lufa/LUFA-120730/LUFA/Drivers/USB/Class/Common/HIDParser.c **** 				break;
 272:../../protocol/lufa/LUFA-120730/LUFA/Drivers/USB/Class/Common/HIDParser.c **** 		}
 273:../../protocol/lufa/LUFA-120730/LUFA/Drivers/USB/Class/Common/HIDParser.c **** 
 274:../../protocol/lufa/LUFA-120730/LUFA/Drivers/USB/Class/Common/HIDParser.c **** 		if ((HIDReportItem & HID_RI_TYPE_MASK) == HID_RI_TYPE_MAIN)
 1188               		.loc 1 274 0
 1189 0686 E996      		adiw r28,120-63
 1190 0688 8FAD      		ldd r24,Y+63
 1191 068a E997      		sbiw r28,120-63
 1192 068c 8C70      		andi r24,lo8(12)
 1193 068e 01F0      		breq .+2
 1194 0690 00C0      		rjmp .L2
 275:../../protocol/lufa/LUFA-120730/LUFA/Drivers/USB/Class/Common/HIDParser.c **** 		{
 276:../../protocol/lufa/LUFA-120730/LUFA/Drivers/USB/Class/Common/HIDParser.c **** 			UsageMinMax.Minimum = 0;
 277:../../protocol/lufa/LUFA-120730/LUFA/Drivers/USB/Class/Common/HIDParser.c **** 			UsageMinMax.Maximum = 0;
 1195               		.loc 1 277 0
 1196 0692 412C      		mov r4,__zero_reg__
 1197 0694 512C      		mov r5,__zero_reg__
 1198 0696 3201      		movw r6,r4
 1199               	.LVL63:
 276:../../protocol/lufa/LUFA-120730/LUFA/Drivers/USB/Class/Common/HIDParser.c **** 			UsageMinMax.Minimum = 0;
 1200               		.loc 1 276 0
 1201 0698 812C      		mov r8,__zero_reg__
 1202 069a 912C      		mov r9,__zero_reg__
 1203 069c 5401      		movw r10,r8
 1204               	.LVL64:
 278:../../protocol/lufa/LUFA-120730/LUFA/Drivers/USB/Class/Common/HIDParser.c **** 			UsageListSize       = 0;
 1205               		.loc 1 278 0
 1206 069e E496      		adiw r28,115-63
 1207 06a0 1FAE      		std Y+63,__zero_reg__
 1208 06a2 E497      		sbiw r28,115-63
 1209               	.LVL65:
 1210 06a4 00C0      		rjmp .L2
 1211               	.LVL66:
 1212               	.L91:
 1213               	.LBE17:
 279:../../protocol/lufa/LUFA-120730/LUFA/Drivers/USB/Class/Common/HIDParser.c **** 		}
 280:../../protocol/lufa/LUFA-120730/LUFA/Drivers/USB/Class/Common/HIDParser.c **** 	}
 281:../../protocol/lufa/LUFA-120730/LUFA/Drivers/USB/Class/Common/HIDParser.c **** 
 282:../../protocol/lufa/LUFA-120730/LUFA/Drivers/USB/Class/Common/HIDParser.c **** 	if (!(ParserData->TotalReportItems))
 1214               		.loc 1 282 0
 1215 06a6 DA01      		movw r26,r20
 1216 06a8 8C91      		ld r24,X
 1217 06aa 8111      		cpse r24,__zero_reg__
 1218 06ac 00C0      		rjmp .L70
 283:../../protocol/lufa/LUFA-120730/LUFA/Drivers/USB/Class/Common/HIDParser.c **** 	  return HID_PARSE_NoUnfilteredReportItems;
 1219               		.loc 1 283 0
 1220 06ae 88E0      		ldi r24,lo8(8)
 1221 06b0 00C0      		rjmp .L88
 1222               	.LVL67:
 1223               	.L64:
 1224               	.LBB18:
  85:../../protocol/lufa/LUFA-120730/LUFA/Drivers/USB/Class/Common/HIDParser.c **** 				  return HID_PARSE_HIDStackOverflow;
 1225               		.loc 1 85 0
 1226 06b2 81E0      		ldi r24,lo8(1)
 1227 06b4 00C0      		rjmp .L88
 1228               	.L65:
  95:../../protocol/lufa/LUFA-120730/LUFA/Drivers/USB/Class/Common/HIDParser.c **** 				  return HID_PARSE_HIDStackUnderflow;
 1229               		.loc 1 95 0
 1230 06b6 82E0      		ldi r24,lo8(2)
 1231 06b8 00C0      		rjmp .L88
 1232               	.L66:
 161:../../protocol/lufa/LUFA-120730/LUFA/Drivers/USB/Class/Common/HIDParser.c **** 				  return HID_PARSE_UsageListOverflow;
 1233               		.loc 1 161 0
 1234 06ba 86E0      		ldi r24,lo8(6)
 1235 06bc 00C0      		rjmp .L88
 1236               	.LVL68:
 1237               	.L67:
 1238               	.LBB16:
 185:../../protocol/lufa/LUFA-120730/LUFA/Drivers/USB/Class/Common/HIDParser.c **** 						  return HID_PARSE_InsufficientCollectionPaths;
 1239               		.loc 1 185 0
 1240 06be 85E0      		ldi r24,lo8(5)
 1241 06c0 00C0      		rjmp .L88
 1242               	.LVL69:
 1243               	.L68:
 1244               	.LBE16:
 213:../../protocol/lufa/LUFA-120730/LUFA/Drivers/USB/Class/Common/HIDParser.c **** 				  return HID_PARSE_UnexpectedEndCollection;
 1245               		.loc 1 213 0
 1246 06c2 84E0      		ldi r24,lo8(4)
 1247 06c4 00C0      		rjmp .L88
 1248               	.LVL70:
 1249               	.L70:
 1250               	.LBE18:
 284:../../protocol/lufa/LUFA-120730/LUFA/Drivers/USB/Class/Common/HIDParser.c **** 
 285:../../protocol/lufa/LUFA-120730/LUFA/Drivers/USB/Class/Common/HIDParser.c **** 	return HID_PARSE_Successful;
 1251               		.loc 1 285 0
 1252 06c6 80E0      		ldi r24,0
 1253 06c8 00C0      		rjmp .L88
 1254               	.LVL71:
 1255               	.L93:
 1256               	.LBB19:
 148:../../protocol/lufa/LUFA-120730/LUFA/Drivers/USB/Class/Common/HIDParser.c **** 						  return HID_PARSE_InsufficientReportIDItems;
 1257               		.loc 1 148 0
 1258 06ca 87E0      		ldi r24,lo8(7)
 1259               	.LVL72:
 1260               	.L88:
 1261               	/* epilogue start */
 1262               	.LBE19:
 286:../../protocol/lufa/LUFA-120730/LUFA/Drivers/USB/Class/Common/HIDParser.c **** }
 1263               		.loc 1 286 0
 1264 06cc C357      		subi r28,115
 1265 06ce DF4F      		sbci r29,-1
 1266 06d0 0FB6      		in __tmp_reg__,__SREG__
 1267 06d2 F894      		cli
 1268 06d4 DEBF      		out __SP_H__,r29
 1269 06d6 0FBE      		out __SREG__,__tmp_reg__
 1270 06d8 CDBF      		out __SP_L__,r28
 1271 06da DF91      		pop r29
 1272 06dc CF91      		pop r28
 1273 06de 1F91      		pop r17
 1274 06e0 0F91      		pop r16
 1275               	.LVL73:
 1276 06e2 FF90      		pop r15
 1277 06e4 EF90      		pop r14
 1278 06e6 DF90      		pop r13
 1279 06e8 CF90      		pop r12
 1280 06ea BF90      		pop r11
 1281 06ec AF90      		pop r10
 1282 06ee 9F90      		pop r9
 1283 06f0 8F90      		pop r8
 1284               	.LVL74:
 1285 06f2 7F90      		pop r7
 1286 06f4 6F90      		pop r6
 1287 06f6 5F90      		pop r5
 1288 06f8 4F90      		pop r4
 1289               	.LVL75:
 1290 06fa 3F90      		pop r3
 1291 06fc 2F90      		pop r2
 1292               	.LVL76:
 1293 06fe 0895      		ret
 1294               		.cfi_endproc
 1295               	.LFE16:
 1297               		.section	.text.USB_GetHIDReportItemInfo,"ax",@progbits
 1298               	.global	USB_GetHIDReportItemInfo
 1300               	USB_GetHIDReportItemInfo:
 1301               	.LFB17:
 287:../../protocol/lufa/LUFA-120730/LUFA/Drivers/USB/Class/Common/HIDParser.c **** 
 288:../../protocol/lufa/LUFA-120730/LUFA/Drivers/USB/Class/Common/HIDParser.c **** bool USB_GetHIDReportItemInfo(const uint8_t* ReportData,
 289:../../protocol/lufa/LUFA-120730/LUFA/Drivers/USB/Class/Common/HIDParser.c ****                               HID_ReportItem_t* const ReportItem)
 290:../../protocol/lufa/LUFA-120730/LUFA/Drivers/USB/Class/Common/HIDParser.c **** {
 1302               		.loc 1 290 0
 1303               		.cfi_startproc
 1304               	.LVL77:
 1305 0000 EF92      		push r14
 1306               	.LCFI20:
 1307               		.cfi_def_cfa_offset 3
 1308               		.cfi_offset 14, -2
 1309 0002 FF92      		push r15
 1310               	.LCFI21:
 1311               		.cfi_def_cfa_offset 4
 1312               		.cfi_offset 15, -3
 1313 0004 0F93      		push r16
 1314               	.LCFI22:
 1315               		.cfi_def_cfa_offset 5
 1316               		.cfi_offset 16, -4
 1317 0006 1F93      		push r17
 1318               	.LCFI23:
 1319               		.cfi_def_cfa_offset 6
 1320               		.cfi_offset 17, -5
 1321 0008 CF93      		push r28
 1322               	.LCFI24:
 1323               		.cfi_def_cfa_offset 7
 1324               		.cfi_offset 28, -6
 1325 000a DF93      		push r29
 1326               	.LCFI25:
 1327               		.cfi_def_cfa_offset 8
 1328               		.cfi_offset 29, -7
 1329               	/* prologue: function */
 1330               	/* frame size = 0 */
 1331               	/* stack size = 6 */
 1332               	.L__stack_usage = 6
 1333 000c FB01      		movw r30,r22
 291:../../protocol/lufa/LUFA-120730/LUFA/Drivers/USB/Class/Common/HIDParser.c **** 	if (ReportItem == NULL)
 1334               		.loc 1 291 0
 1335 000e 3097      		sbiw r30,0
 1336 0010 01F4      		brne .+2
 1337 0012 00C0      		rjmp .L103
 292:../../protocol/lufa/LUFA-120730/LUFA/Drivers/USB/Class/Common/HIDParser.c **** 	  return false;
 293:../../protocol/lufa/LUFA-120730/LUFA/Drivers/USB/Class/Common/HIDParser.c **** 
 294:../../protocol/lufa/LUFA-120730/LUFA/Drivers/USB/Class/Common/HIDParser.c **** 	uint16_t DataBitsRem  = ReportItem->Attributes.BitSize;
 1338               		.loc 1 294 0
 1339 0014 3085      		ldd r19,Z+8
 1340               	.LVL78:
 295:../../protocol/lufa/LUFA-120730/LUFA/Drivers/USB/Class/Common/HIDParser.c **** 	uint16_t CurrentBit   = ReportItem->BitOffset;
 1341               		.loc 1 295 0
 1342 0016 D081      		ld r29,Z
 1343 0018 C181      		ldd r28,Z+1
 1344               	.LVL79:
 296:../../protocol/lufa/LUFA-120730/LUFA/Drivers/USB/Class/Common/HIDParser.c **** 	uint32_t BitMask      = (1 << 0);
 297:../../protocol/lufa/LUFA-120730/LUFA/Drivers/USB/Class/Common/HIDParser.c **** 
 298:../../protocol/lufa/LUFA-120730/LUFA/Drivers/USB/Class/Common/HIDParser.c **** 	if (ReportItem->ReportID)
 1345               		.loc 1 298 0
 1346 001a 2581      		ldd r18,Z+5
 1347 001c 2223      		tst r18
 1348 001e 01F0      		breq .L98
 299:../../protocol/lufa/LUFA-120730/LUFA/Drivers/USB/Class/Common/HIDParser.c **** 	{
 300:../../protocol/lufa/LUFA-120730/LUFA/Drivers/USB/Class/Common/HIDParser.c **** 		if (ReportItem->ReportID != ReportData[0])
 1349               		.loc 1 300 0
 1350 0020 DC01      		movw r26,r24
 1351 0022 4C91      		ld r20,X
 1352 0024 2413      		cpse r18,r20
 1353 0026 00C0      		rjmp .L103
 301:../../protocol/lufa/LUFA-120730/LUFA/Drivers/USB/Class/Common/HIDParser.c **** 		  return false;
 302:../../protocol/lufa/LUFA-120730/LUFA/Drivers/USB/Class/Common/HIDParser.c **** 
 303:../../protocol/lufa/LUFA-120730/LUFA/Drivers/USB/Class/Common/HIDParser.c **** 		ReportData++;
 1354               		.loc 1 303 0
 1355 0028 0196      		adiw r24,1
 1356               	.LVL80:
 1357               	.L98:
 304:../../protocol/lufa/LUFA-120730/LUFA/Drivers/USB/Class/Common/HIDParser.c **** 	}
 305:../../protocol/lufa/LUFA-120730/LUFA/Drivers/USB/Class/Common/HIDParser.c **** 
 306:../../protocol/lufa/LUFA-120730/LUFA/Drivers/USB/Class/Common/HIDParser.c **** 	ReportItem->PreviousValue = ReportItem->Value;
 1358               		.loc 1 306 0
 1359 002a 42A1      		ldd r20,Z+34
 1360 002c 53A1      		ldd r21,Z+35
 1361 002e 64A1      		ldd r22,Z+36
 1362 0030 75A1      		ldd r23,Z+37
 1363 0032 46A3      		std Z+38,r20
 1364 0034 57A3      		std Z+39,r21
 1365 0036 60A7      		std Z+40,r22
 1366 0038 71A7      		std Z+41,r23
 307:../../protocol/lufa/LUFA-120730/LUFA/Drivers/USB/Class/Common/HIDParser.c **** 	ReportItem->Value = 0;
 1367               		.loc 1 307 0
 1368 003a 12A2      		std Z+34,__zero_reg__
 1369 003c 13A2      		std Z+35,__zero_reg__
 1370 003e 14A2      		std Z+36,__zero_reg__
 1371 0040 15A2      		std Z+37,__zero_reg__
 295:../../protocol/lufa/LUFA-120730/LUFA/Drivers/USB/Class/Common/HIDParser.c **** 	uint16_t CurrentBit   = ReportItem->BitOffset;
 1372               		.loc 1 295 0
 1373 0042 AD2F      		mov r26,r29
 1374 0044 BC2F      		mov r27,r28
 296:../../protocol/lufa/LUFA-120730/LUFA/Drivers/USB/Class/Common/HIDParser.c **** 	uint32_t BitMask      = (1 << 0);
 1375               		.loc 1 296 0
 1376 0046 41E0      		ldi r20,lo8(1)
 1377 0048 50E0      		ldi r21,0
 1378 004a 60E0      		ldi r22,0
 1379 004c 70E0      		ldi r23,0
 1380 004e 7D01      		movw r14,r26
 1381 0050 E30E      		add r14,r19
 1382 0052 F11C      		adc r15,__zero_reg__
 1383               	.LVL81:
 1384               	.L99:
 308:../../protocol/lufa/LUFA-120730/LUFA/Drivers/USB/Class/Common/HIDParser.c **** 
 309:../../protocol/lufa/LUFA-120730/LUFA/Drivers/USB/Class/Common/HIDParser.c **** 	while (DataBitsRem--)
 1385               		.loc 1 309 0 discriminator 1
 1386 0054 EA16      		cp r14,r26
 1387 0056 FB06      		cpc r15,r27
 1388 0058 01F0      		breq .L110
 310:../../protocol/lufa/LUFA-120730/LUFA/Drivers/USB/Class/Common/HIDParser.c **** 	{
 311:../../protocol/lufa/LUFA-120730/LUFA/Drivers/USB/Class/Common/HIDParser.c **** 		if (ReportData[CurrentBit / 8] & (1 << (CurrentBit % 8)))
 1389               		.loc 1 311 0
 1390 005a 9D01      		movw r18,r26
 1391 005c C3E0      		ldi r28,3
 1392               		1:
 1393 005e 3695      		lsr r19
 1394 0060 2795      		ror r18
 1395 0062 CA95      		dec r28
 1396 0064 01F4      		brne 1b
 1397 0066 280F      		add r18,r24
 1398 0068 391F      		adc r19,r25
 1399 006a E901      		movw r28,r18
 1400 006c 2881      		ld r18,Y
 1401 006e 30E0      		ldi r19,0
 1402 0070 8D01      		movw r16,r26
 1403 0072 0770      		andi r16,7
 1404 0074 1127      		clr r17
 1405 0076 00C0      		rjmp 2f
 1406               		1:
 1407 0078 3595      		asr r19
 1408 007a 2795      		ror r18
 1409               		2:
 1410 007c 0A95      		dec r16
 1411 007e 02F4      		brpl 1b
 1412 0080 20FF      		sbrs r18,0
 1413 0082 00C0      		rjmp .L100
 312:../../protocol/lufa/LUFA-120730/LUFA/Drivers/USB/Class/Common/HIDParser.c **** 		  ReportItem->Value |= BitMask;
 1414               		.loc 1 312 0
 1415 0084 02A1      		ldd r16,Z+34
 1416 0086 13A1      		ldd r17,Z+35
 1417 0088 24A1      		ldd r18,Z+36
 1418 008a 35A1      		ldd r19,Z+37
 1419 008c 042B      		or r16,r20
 1420 008e 152B      		or r17,r21
 1421 0090 262B      		or r18,r22
 1422 0092 372B      		or r19,r23
 1423 0094 02A3      		std Z+34,r16
 1424 0096 13A3      		std Z+35,r17
 1425 0098 24A3      		std Z+36,r18
 1426 009a 35A3      		std Z+37,r19
 1427               	.L100:
 313:../../protocol/lufa/LUFA-120730/LUFA/Drivers/USB/Class/Common/HIDParser.c **** 
 314:../../protocol/lufa/LUFA-120730/LUFA/Drivers/USB/Class/Common/HIDParser.c **** 		CurrentBit++;
 1428               		.loc 1 314 0
 1429 009c 1196      		adiw r26,1
 1430               	.LVL82:
 315:../../protocol/lufa/LUFA-120730/LUFA/Drivers/USB/Class/Common/HIDParser.c **** 		BitMask <<= 1;
 1431               		.loc 1 315 0
 1432 009e 440F      		lsl r20
 1433 00a0 551F      		rol r21
 1434 00a2 661F      		rol r22
 1435 00a4 771F      		rol r23
 1436               	.LVL83:
 1437 00a6 00C0      		rjmp .L99
 1438               	.LVL84:
 1439               	.L110:
 316:../../protocol/lufa/LUFA-120730/LUFA/Drivers/USB/Class/Common/HIDParser.c **** 	}
 317:../../protocol/lufa/LUFA-120730/LUFA/Drivers/USB/Class/Common/HIDParser.c **** 
 318:../../protocol/lufa/LUFA-120730/LUFA/Drivers/USB/Class/Common/HIDParser.c **** 	return true;
 1440               		.loc 1 318 0
 1441 00a8 81E0      		ldi r24,lo8(1)
 1442               	.LVL85:
 1443 00aa 00C0      		rjmp .L97
 1444               	.LVL86:
 1445               	.L103:
 292:../../protocol/lufa/LUFA-120730/LUFA/Drivers/USB/Class/Common/HIDParser.c **** 	  return false;
 1446               		.loc 1 292 0
 1447 00ac 80E0      		ldi r24,0
 1448               	.LVL87:
 1449               	.L97:
 1450               	/* epilogue start */
 319:../../protocol/lufa/LUFA-120730/LUFA/Drivers/USB/Class/Common/HIDParser.c **** }
 1451               		.loc 1 319 0
 1452 00ae DF91      		pop r29
 1453 00b0 CF91      		pop r28
 1454 00b2 1F91      		pop r17
 1455 00b4 0F91      		pop r16
 1456 00b6 FF90      		pop r15
 1457 00b8 EF90      		pop r14
 1458 00ba 0895      		ret
 1459               		.cfi_endproc
 1460               	.LFE17:
 1462               		.section	.text.USB_SetHIDReportItemInfo,"ax",@progbits
 1463               	.global	USB_SetHIDReportItemInfo
 1465               	USB_SetHIDReportItemInfo:
 1466               	.LFB18:
 320:../../protocol/lufa/LUFA-120730/LUFA/Drivers/USB/Class/Common/HIDParser.c **** 
 321:../../protocol/lufa/LUFA-120730/LUFA/Drivers/USB/Class/Common/HIDParser.c **** void USB_SetHIDReportItemInfo(uint8_t* ReportData,
 322:../../protocol/lufa/LUFA-120730/LUFA/Drivers/USB/Class/Common/HIDParser.c ****                               HID_ReportItem_t* const ReportItem)
 323:../../protocol/lufa/LUFA-120730/LUFA/Drivers/USB/Class/Common/HIDParser.c **** {
 1467               		.loc 1 323 0
 1468               		.cfi_startproc
 1469               	.LVL88:
 1470 0000 8F92      		push r8
 1471               	.LCFI26:
 1472               		.cfi_def_cfa_offset 3
 1473               		.cfi_offset 8, -2
 1474 0002 9F92      		push r9
 1475               	.LCFI27:
 1476               		.cfi_def_cfa_offset 4
 1477               		.cfi_offset 9, -3
 1478 0004 AF92      		push r10
 1479               	.LCFI28:
 1480               		.cfi_def_cfa_offset 5
 1481               		.cfi_offset 10, -4
 1482 0006 BF92      		push r11
 1483               	.LCFI29:
 1484               		.cfi_def_cfa_offset 6
 1485               		.cfi_offset 11, -5
 1486 0008 CF92      		push r12
 1487               	.LCFI30:
 1488               		.cfi_def_cfa_offset 7
 1489               		.cfi_offset 12, -6
 1490 000a DF92      		push r13
 1491               	.LCFI31:
 1492               		.cfi_def_cfa_offset 8
 1493               		.cfi_offset 13, -7
 1494 000c EF92      		push r14
 1495               	.LCFI32:
 1496               		.cfi_def_cfa_offset 9
 1497               		.cfi_offset 14, -8
 1498 000e FF92      		push r15
 1499               	.LCFI33:
 1500               		.cfi_def_cfa_offset 10
 1501               		.cfi_offset 15, -9
 1502 0010 0F93      		push r16
 1503               	.LCFI34:
 1504               		.cfi_def_cfa_offset 11
 1505               		.cfi_offset 16, -10
 1506 0012 1F93      		push r17
 1507               	.LCFI35:
 1508               		.cfi_def_cfa_offset 12
 1509               		.cfi_offset 17, -11
 1510 0014 CF93      		push r28
 1511               	.LCFI36:
 1512               		.cfi_def_cfa_offset 13
 1513               		.cfi_offset 28, -12
 1514 0016 DF93      		push r29
 1515               	.LCFI37:
 1516               		.cfi_def_cfa_offset 14
 1517               		.cfi_offset 29, -13
 1518               	/* prologue: function */
 1519               	/* frame size = 0 */
 1520               	/* stack size = 12 */
 1521               	.L__stack_usage = 12
 1522 0018 DB01      		movw r26,r22
 324:../../protocol/lufa/LUFA-120730/LUFA/Drivers/USB/Class/Common/HIDParser.c **** 	if (ReportItem == NULL)
 1523               		.loc 1 324 0
 1524 001a 1097      		sbiw r26,0
 1525 001c 01F4      		brne .+2
 1526 001e 00C0      		rjmp .L111
 325:../../protocol/lufa/LUFA-120730/LUFA/Drivers/USB/Class/Common/HIDParser.c **** 	  return;
 326:../../protocol/lufa/LUFA-120730/LUFA/Drivers/USB/Class/Common/HIDParser.c **** 
 327:../../protocol/lufa/LUFA-120730/LUFA/Drivers/USB/Class/Common/HIDParser.c **** 	uint16_t DataBitsRem  = ReportItem->Attributes.BitSize;
 1527               		.loc 1 327 0
 1528 0020 1896      		adiw r26,8
 1529 0022 CC91      		ld r28,X
 1530 0024 1897      		sbiw r26,8
 1531 0026 D0E0      		ldi r29,0
 1532               	.LVL89:
 328:../../protocol/lufa/LUFA-120730/LUFA/Drivers/USB/Class/Common/HIDParser.c **** 	uint16_t CurrentBit   = ReportItem->BitOffset;
 1533               		.loc 1 328 0
 1534 0028 1C91      		ld r17,X
 1535 002a 1196      		adiw r26,1
 1536 002c 3C91      		ld r19,X
 1537 002e 1197      		sbiw r26,1
 1538               	.LVL90:
 329:../../protocol/lufa/LUFA-120730/LUFA/Drivers/USB/Class/Common/HIDParser.c **** 	uint32_t BitMask      = (1 << 0);
 330:../../protocol/lufa/LUFA-120730/LUFA/Drivers/USB/Class/Common/HIDParser.c **** 
 331:../../protocol/lufa/LUFA-120730/LUFA/Drivers/USB/Class/Common/HIDParser.c **** 	if (ReportItem->ReportID)
 1539               		.loc 1 331 0
 1540 0030 1596      		adiw r26,5
 1541 0032 2C91      		ld r18,X
 1542 0034 1597      		sbiw r26,5
 1543 0036 2223      		tst r18
 1544 0038 01F0      		breq .L113
 332:../../protocol/lufa/LUFA-120730/LUFA/Drivers/USB/Class/Common/HIDParser.c **** 	{
 333:../../protocol/lufa/LUFA-120730/LUFA/Drivers/USB/Class/Common/HIDParser.c **** 		ReportData[0] = ReportItem->ReportID;
 1545               		.loc 1 333 0
 1546 003a FC01      		movw r30,r24
 1547 003c 2193      		st Z+,r18
 1548               	.LVL91:
 1549 003e CF01      		movw r24,r30
 1550               	.LVL92:
 1551               	.L113:
 334:../../protocol/lufa/LUFA-120730/LUFA/Drivers/USB/Class/Common/HIDParser.c **** 		ReportData++;
 335:../../protocol/lufa/LUFA-120730/LUFA/Drivers/USB/Class/Common/HIDParser.c **** 	}
 336:../../protocol/lufa/LUFA-120730/LUFA/Drivers/USB/Class/Common/HIDParser.c **** 
 337:../../protocol/lufa/LUFA-120730/LUFA/Drivers/USB/Class/Common/HIDParser.c **** 	ReportItem->PreviousValue = ReportItem->Value;
 1552               		.loc 1 337 0
 1553 0040 9296      		adiw r26,34
 1554 0042 4D91      		ld r20,X+
 1555 0044 5D91      		ld r21,X+
 1556 0046 6D91      		ld r22,X+
 1557 0048 7C91      		ld r23,X
 1558 004a 9597      		sbiw r26,34+3
 1559 004c 9696      		adiw r26,38
 1560 004e 4D93      		st X+,r20
 1561 0050 5D93      		st X+,r21
 1562 0052 6D93      		st X+,r22
 1563 0054 7C93      		st X,r23
 1564 0056 9997      		sbiw r26,38+3
 328:../../protocol/lufa/LUFA-120730/LUFA/Drivers/USB/Class/Common/HIDParser.c **** 	uint16_t CurrentBit   = ReportItem->BitOffset;
 1565               		.loc 1 328 0
 1566 0058 E12F      		mov r30,r17
 1567 005a F32F      		mov r31,r19
 329:../../protocol/lufa/LUFA-120730/LUFA/Drivers/USB/Class/Common/HIDParser.c **** 	uint32_t BitMask      = (1 << 0);
 1568               		.loc 1 329 0
 1569 005c 41E0      		ldi r20,lo8(1)
 1570 005e 50E0      		ldi r21,0
 1571 0060 60E0      		ldi r22,0
 1572 0062 70E0      		ldi r23,0
 1573 0064 6E01      		movw r12,r28
 1574 0066 CE0E      		add r12,r30
 1575 0068 DF1E      		adc r13,r31
 338:../../protocol/lufa/LUFA-120730/LUFA/Drivers/USB/Class/Common/HIDParser.c **** 
 339:../../protocol/lufa/LUFA-120730/LUFA/Drivers/USB/Class/Common/HIDParser.c **** 	while (DataBitsRem--)
 340:../../protocol/lufa/LUFA-120730/LUFA/Drivers/USB/Class/Common/HIDParser.c **** 	{
 341:../../protocol/lufa/LUFA-120730/LUFA/Drivers/USB/Class/Common/HIDParser.c **** 		if (ReportItem->Value & (1 << (CurrentBit % 8)))
 1576               		.loc 1 341 0
 1577 006a EE24      		clr r14
 1578 006c E394      		inc r14
 1579 006e F12C      		mov r15,__zero_reg__
 1580               	.LVL93:
 1581               	.L114:
 339:../../protocol/lufa/LUFA-120730/LUFA/Drivers/USB/Class/Common/HIDParser.c **** 	while (DataBitsRem--)
 1582               		.loc 1 339 0 discriminator 1
 1583 0070 CE16      		cp r12,r30
 1584 0072 DF06      		cpc r13,r31
 1585 0074 01F0      		breq .L111
 1586               		.loc 1 341 0
 1587 0076 8F01      		movw r16,r30
 1588 0078 0770      		andi r16,7
 1589 007a 1127      		clr r17
 1590 007c 9701      		movw r18,r14
 1591 007e 00C0      		rjmp 2f
 1592               		1:
 1593 0080 220F      		lsl r18
 1594 0082 331F      		rol r19
 1595               		2:
 1596 0084 0A95      		dec r16
 1597 0086 02F4      		brpl 1b
 1598 0088 8901      		movw r16,r18
 1599 008a 2227      		clr r18
 1600 008c 17FD      		sbrc r17,7
 1601 008e 2095      		com r18
 1602 0090 322F      		mov r19,r18
 1603 0092 9296      		adiw r26,34
 1604 0094 8D90      		ld r8,X+
 1605 0096 9D90      		ld r9,X+
 1606 0098 AD90      		ld r10,X+
 1607 009a BC90      		ld r11,X
 1608 009c 9597      		sbiw r26,34+3
 1609 009e 0821      		and r16,r8
 1610 00a0 1921      		and r17,r9
 1611 00a2 2A21      		and r18,r10
 1612 00a4 3B21      		and r19,r11
 1613 00a6 012B      		or r16,r17
 1614 00a8 022B      		or r16,r18
 1615 00aa 032B      		or r16,r19
 1616 00ac 01F0      		breq .L115
 342:../../protocol/lufa/LUFA-120730/LUFA/Drivers/USB/Class/Common/HIDParser.c **** 		  ReportData[CurrentBit / 8] |= BitMask;
 1617               		.loc 1 342 0
 1618 00ae 9F01      		movw r18,r30
 1619 00b0 13E0      		ldi r17,3
 1620               		1:
 1621 00b2 3695      		lsr r19
 1622 00b4 2795      		ror r18
 1623 00b6 1A95      		dec r17
 1624 00b8 01F4      		brne 1b
 1625 00ba 280F      		add r18,r24
 1626 00bc 391F      		adc r19,r25
 1627 00be E901      		movw r28,r18
 1628 00c0 1881      		ld r17,Y
 1629 00c2 142B      		or r17,r20
 1630 00c4 1883      		st Y,r17
 1631               	.L115:
 343:../../protocol/lufa/LUFA-120730/LUFA/Drivers/USB/Class/Common/HIDParser.c **** 
 344:../../protocol/lufa/LUFA-120730/LUFA/Drivers/USB/Class/Common/HIDParser.c **** 		CurrentBit++;
 1632               		.loc 1 344 0
 1633 00c6 3196      		adiw r30,1
 1634               	.LVL94:
 345:../../protocol/lufa/LUFA-120730/LUFA/Drivers/USB/Class/Common/HIDParser.c **** 		BitMask <<= 1;
 1635               		.loc 1 345 0
 1636 00c8 440F      		lsl r20
 1637 00ca 551F      		rol r21
 1638 00cc 661F      		rol r22
 1639 00ce 771F      		rol r23
 1640               	.LVL95:
 1641 00d0 00C0      		rjmp .L114
 1642               	.LVL96:
 1643               	.L111:
 1644               	/* epilogue start */
 346:../../protocol/lufa/LUFA-120730/LUFA/Drivers/USB/Class/Common/HIDParser.c **** 	}
 347:../../protocol/lufa/LUFA-120730/LUFA/Drivers/USB/Class/Common/HIDParser.c **** }
 1645               		.loc 1 347 0
 1646 00d2 DF91      		pop r29
 1647 00d4 CF91      		pop r28
 1648 00d6 1F91      		pop r17
 1649 00d8 0F91      		pop r16
 1650 00da FF90      		pop r15
 1651 00dc EF90      		pop r14
 1652 00de DF90      		pop r13
 1653 00e0 CF90      		pop r12
 1654 00e2 BF90      		pop r11
 1655 00e4 AF90      		pop r10
 1656 00e6 9F90      		pop r9
 1657 00e8 8F90      		pop r8
 1658 00ea 0895      		ret
 1659               		.cfi_endproc
 1660               	.LFE18:
 1662               		.section	.text.USB_GetHIDReportSize,"ax",@progbits
 1663               	.global	USB_GetHIDReportSize
 1665               	USB_GetHIDReportSize:
 1666               	.LFB19:
 348:../../protocol/lufa/LUFA-120730/LUFA/Drivers/USB/Class/Common/HIDParser.c **** 
 349:../../protocol/lufa/LUFA-120730/LUFA/Drivers/USB/Class/Common/HIDParser.c **** uint16_t USB_GetHIDReportSize(HID_ReportInfo_t* const ParserData,
 350:../../protocol/lufa/LUFA-120730/LUFA/Drivers/USB/Class/Common/HIDParser.c ****                               const uint8_t ReportID,
 351:../../protocol/lufa/LUFA-120730/LUFA/Drivers/USB/Class/Common/HIDParser.c ****                               const uint8_t ReportType)
 352:../../protocol/lufa/LUFA-120730/LUFA/Drivers/USB/Class/Common/HIDParser.c **** {
 1667               		.loc 1 352 0
 1668               		.cfi_startproc
 1669               	.LVL97:
 1670               	/* prologue: function */
 1671               	/* frame size = 0 */
 1672               	/* stack size = 0 */
 1673               	.L__stack_usage = 0
 1674 0000 FC01      		movw r30,r24
 1675 0002 E40F      		add r30,r20
 1676 0004 F11D      		adc r31,__zero_reg__
 1677 0006 E40F      		add r30,r20
 1678 0008 F11D      		adc r31,__zero_reg__
 1679               		.loc 1 352 0
 1680 000a 20E0      		ldi r18,0
 1681 000c 30E0      		ldi r19,0
 1682               	.LVL98:
 1683               	.L128:
 1684 000e DF01      		movw r26,r30
 1685 0010 A20F      		add r26,r18
 1686 0012 B31F      		adc r27,r19
 1687 0014 AF56      		subi r26,111
 1688 0016 BC4F      		sbci r27,-4
 1689               	.LBB20:
 1690               	.LBB21:
 353:../../protocol/lufa/LUFA-120730/LUFA/Drivers/USB/Class/Common/HIDParser.c **** 	for (uint8_t i = 0; i < HID_MAX_REPORT_IDS; i++)
 354:../../protocol/lufa/LUFA-120730/LUFA/Drivers/USB/Class/Common/HIDParser.c **** 	{
 355:../../protocol/lufa/LUFA-120730/LUFA/Drivers/USB/Class/Common/HIDParser.c **** 		uint16_t ReportSizeBits = ParserData->ReportIDSizes[i].ReportSizeBits[ReportType];
 1691               		.loc 1 355 0
 1692 0018 4D91      		ld r20,X+
 1693 001a 5C91      		ld r21,X
 1694               	.LVL99:
 1695 001c DC01      		movw r26,r24
 1696 001e A20F      		add r26,r18
 1697 0020 B31F      		adc r27,r19
 1698 0022 A057      		subi r26,112
 1699 0024 BC4F      		sbci r27,-4
 356:../../protocol/lufa/LUFA-120730/LUFA/Drivers/USB/Class/Common/HIDParser.c **** 
 357:../../protocol/lufa/LUFA-120730/LUFA/Drivers/USB/Class/Common/HIDParser.c **** 		if (ParserData->ReportIDSizes[i].ReportID == ReportID)
 1700               		.loc 1 357 0
 1701 0026 7C91      		ld r23,X
 1702 0028 7613      		cpse r23,r22
 1703 002a 00C0      		rjmp .L125
 358:../../protocol/lufa/LUFA-120730/LUFA/Drivers/USB/Class/Common/HIDParser.c **** 		  return (ReportSizeBits / 8) + ((ReportSizeBits % 8) ? 1 : 0);
 1704               		.loc 1 358 0
 1705 002c 21E0      		ldi r18,lo8(1)
 1706 002e 30E0      		ldi r19,0
 1707 0030 CA01      		movw r24,r20
 1708               	.LVL100:
 1709 0032 8770      		andi r24,7
 1710 0034 9927      		clr r25
 1711 0036 892B      		or r24,r25
 1712 0038 01F4      		brne .L126
 1713 003a 20E0      		ldi r18,0
 1714 003c 30E0      		ldi r19,0
 1715               	.L126:
 1716 003e CA01      		movw r24,r20
 1717 0040 43E0      		ldi r20,3
 1718               		1:
 1719 0042 9695      		lsr r25
 1720 0044 8795      		ror r24
 1721 0046 4A95      		dec r20
 1722 0048 01F4      		brne 1b
 1723               	.LVL101:
 1724 004a 820F      		add r24,r18
 1725 004c 931F      		adc r25,r19
 1726 004e 0895      		ret
 1727               	.LVL102:
 1728               	.L125:
 1729 0050 295F      		subi r18,-7
 1730 0052 3F4F      		sbci r19,-1
 1731               	.LBE21:
 353:../../protocol/lufa/LUFA-120730/LUFA/Drivers/USB/Class/Common/HIDParser.c **** 	for (uint8_t i = 0; i < HID_MAX_REPORT_IDS; i++)
 1732               		.loc 1 353 0
 1733 0054 2634      		cpi r18,70
 1734 0056 3105      		cpc r19,__zero_reg__
 1735 0058 01F4      		brne .L128
 1736               	.LBE20:
 359:../../protocol/lufa/LUFA-120730/LUFA/Drivers/USB/Class/Common/HIDParser.c **** 	}
 360:../../protocol/lufa/LUFA-120730/LUFA/Drivers/USB/Class/Common/HIDParser.c **** 
 361:../../protocol/lufa/LUFA-120730/LUFA/Drivers/USB/Class/Common/HIDParser.c **** 	return 0;
 1737               		.loc 1 361 0
 1738 005a 80E0      		ldi r24,0
 1739 005c 90E0      		ldi r25,0
 1740               	.LVL103:
 362:../../protocol/lufa/LUFA-120730/LUFA/Drivers/USB/Class/Common/HIDParser.c **** }
 1741               		.loc 1 362 0
 1742 005e 0895      		ret
 1743               		.cfi_endproc
 1744               	.LFE19:
 1746               		.text
 1747               	.Letext0:
 1748               		.file 2 "/usr/local/CrossPack-AVR-20131216/avr/include/stdint.h"
 1749               		.file 3 "../../protocol/lufa/LUFA-120730/LUFA/Drivers/USB/Class/Common/HIDClassCommon.h"
 1750               		.file 4 "../../protocol/lufa/LUFA-120730/LUFA/Drivers/USB/Class/Common/HIDParser.h"