   1               		.file	"USBController_AVR8.c"
   2               	__SP_H__ = 0x3e
   3               	__SP_L__ = 0x3d
   4               	__SREG__ = 0x3f
   5               	__tmp_reg__ = 0
   6               	__zero_reg__ = 1
   7               		.text
   8               	.Ltext0:
   9               		.cfi_sections	.debug_frame
  10               		.section	.text.USB_Disable,"ax",@progbits
  11               	.global	USB_Disable
  13               	USB_Disable:
  14               	.LFB85:
  15               		.file 1 "../../protocol/lufa/LUFA-120730/LUFA/Drivers/USB/Core/AVR8/USBController_AVR8.c"
   1:../../protocol/lufa/LUFA-120730/LUFA/Drivers/USB/Core/AVR8/USBController_AVR8.c **** /*
   2:../../protocol/lufa/LUFA-120730/LUFA/Drivers/USB/Core/AVR8/USBController_AVR8.c ****              LUFA Library
   3:../../protocol/lufa/LUFA-120730/LUFA/Drivers/USB/Core/AVR8/USBController_AVR8.c ****      Copyright (C) Dean Camera, 2012.
   4:../../protocol/lufa/LUFA-120730/LUFA/Drivers/USB/Core/AVR8/USBController_AVR8.c **** 
   5:../../protocol/lufa/LUFA-120730/LUFA/Drivers/USB/Core/AVR8/USBController_AVR8.c ****   dean [at] fourwalledcubicle [dot] com
   6:../../protocol/lufa/LUFA-120730/LUFA/Drivers/USB/Core/AVR8/USBController_AVR8.c ****            www.lufa-lib.org
   7:../../protocol/lufa/LUFA-120730/LUFA/Drivers/USB/Core/AVR8/USBController_AVR8.c **** */
   8:../../protocol/lufa/LUFA-120730/LUFA/Drivers/USB/Core/AVR8/USBController_AVR8.c **** 
   9:../../protocol/lufa/LUFA-120730/LUFA/Drivers/USB/Core/AVR8/USBController_AVR8.c **** /*
  10:../../protocol/lufa/LUFA-120730/LUFA/Drivers/USB/Core/AVR8/USBController_AVR8.c ****   Copyright 2012  Dean Camera (dean [at] fourwalledcubicle [dot] com)
  11:../../protocol/lufa/LUFA-120730/LUFA/Drivers/USB/Core/AVR8/USBController_AVR8.c **** 
  12:../../protocol/lufa/LUFA-120730/LUFA/Drivers/USB/Core/AVR8/USBController_AVR8.c ****   Permission to use, copy, modify, distribute, and sell this
  13:../../protocol/lufa/LUFA-120730/LUFA/Drivers/USB/Core/AVR8/USBController_AVR8.c ****   software and its documentation for any purpose is hereby granted
  14:../../protocol/lufa/LUFA-120730/LUFA/Drivers/USB/Core/AVR8/USBController_AVR8.c ****   without fee, provided that the above copyright notice appear in
  15:../../protocol/lufa/LUFA-120730/LUFA/Drivers/USB/Core/AVR8/USBController_AVR8.c ****   all copies and that both that the copyright notice and this
  16:../../protocol/lufa/LUFA-120730/LUFA/Drivers/USB/Core/AVR8/USBController_AVR8.c ****   permission notice and warranty disclaimer appear in supporting
  17:../../protocol/lufa/LUFA-120730/LUFA/Drivers/USB/Core/AVR8/USBController_AVR8.c ****   documentation, and that the name of the author not be used in
  18:../../protocol/lufa/LUFA-120730/LUFA/Drivers/USB/Core/AVR8/USBController_AVR8.c ****   advertising or publicity pertaining to distribution of the
  19:../../protocol/lufa/LUFA-120730/LUFA/Drivers/USB/Core/AVR8/USBController_AVR8.c ****   software without specific, written prior permission.
  20:../../protocol/lufa/LUFA-120730/LUFA/Drivers/USB/Core/AVR8/USBController_AVR8.c **** 
  21:../../protocol/lufa/LUFA-120730/LUFA/Drivers/USB/Core/AVR8/USBController_AVR8.c ****   The author disclaim all warranties with regard to this
  22:../../protocol/lufa/LUFA-120730/LUFA/Drivers/USB/Core/AVR8/USBController_AVR8.c ****   software, including all implied warranties of merchantability
  23:../../protocol/lufa/LUFA-120730/LUFA/Drivers/USB/Core/AVR8/USBController_AVR8.c ****   and fitness.  In no event shall the author be liable for any
  24:../../protocol/lufa/LUFA-120730/LUFA/Drivers/USB/Core/AVR8/USBController_AVR8.c ****   special, indirect or consequential damages or any damages
  25:../../protocol/lufa/LUFA-120730/LUFA/Drivers/USB/Core/AVR8/USBController_AVR8.c ****   whatsoever resulting from loss of use, data or profits, whether
  26:../../protocol/lufa/LUFA-120730/LUFA/Drivers/USB/Core/AVR8/USBController_AVR8.c ****   in an action of contract, negligence or other tortious action,
  27:../../protocol/lufa/LUFA-120730/LUFA/Drivers/USB/Core/AVR8/USBController_AVR8.c ****   arising out of or in connection with the use or performance of
  28:../../protocol/lufa/LUFA-120730/LUFA/Drivers/USB/Core/AVR8/USBController_AVR8.c ****   this software.
  29:../../protocol/lufa/LUFA-120730/LUFA/Drivers/USB/Core/AVR8/USBController_AVR8.c **** */
  30:../../protocol/lufa/LUFA-120730/LUFA/Drivers/USB/Core/AVR8/USBController_AVR8.c **** 
  31:../../protocol/lufa/LUFA-120730/LUFA/Drivers/USB/Core/AVR8/USBController_AVR8.c **** #include "../../../../Common/Common.h"
  32:../../protocol/lufa/LUFA-120730/LUFA/Drivers/USB/Core/AVR8/USBController_AVR8.c **** #if (ARCH == ARCH_AVR8)
  33:../../protocol/lufa/LUFA-120730/LUFA/Drivers/USB/Core/AVR8/USBController_AVR8.c **** 
  34:../../protocol/lufa/LUFA-120730/LUFA/Drivers/USB/Core/AVR8/USBController_AVR8.c **** #define  __INCLUDE_FROM_USB_DRIVER
  35:../../protocol/lufa/LUFA-120730/LUFA/Drivers/USB/Core/AVR8/USBController_AVR8.c **** #define  __INCLUDE_FROM_USB_CONTROLLER_C
  36:../../protocol/lufa/LUFA-120730/LUFA/Drivers/USB/Core/AVR8/USBController_AVR8.c **** #include "../USBController.h"
  37:../../protocol/lufa/LUFA-120730/LUFA/Drivers/USB/Core/AVR8/USBController_AVR8.c **** 
  38:../../protocol/lufa/LUFA-120730/LUFA/Drivers/USB/Core/AVR8/USBController_AVR8.c **** #if (!defined(USB_HOST_ONLY) && !defined(USB_DEVICE_ONLY))
  39:../../protocol/lufa/LUFA-120730/LUFA/Drivers/USB/Core/AVR8/USBController_AVR8.c **** volatile uint8_t USB_CurrentMode = USB_MODE_None;
  40:../../protocol/lufa/LUFA-120730/LUFA/Drivers/USB/Core/AVR8/USBController_AVR8.c **** #endif
  41:../../protocol/lufa/LUFA-120730/LUFA/Drivers/USB/Core/AVR8/USBController_AVR8.c **** 
  42:../../protocol/lufa/LUFA-120730/LUFA/Drivers/USB/Core/AVR8/USBController_AVR8.c **** #if !defined(USE_STATIC_OPTIONS)
  43:../../protocol/lufa/LUFA-120730/LUFA/Drivers/USB/Core/AVR8/USBController_AVR8.c **** volatile uint8_t USB_Options;
  44:../../protocol/lufa/LUFA-120730/LUFA/Drivers/USB/Core/AVR8/USBController_AVR8.c **** #endif
  45:../../protocol/lufa/LUFA-120730/LUFA/Drivers/USB/Core/AVR8/USBController_AVR8.c **** 
  46:../../protocol/lufa/LUFA-120730/LUFA/Drivers/USB/Core/AVR8/USBController_AVR8.c **** void USB_Init(
  47:../../protocol/lufa/LUFA-120730/LUFA/Drivers/USB/Core/AVR8/USBController_AVR8.c ****                #if defined(USB_CAN_BE_BOTH)
  48:../../protocol/lufa/LUFA-120730/LUFA/Drivers/USB/Core/AVR8/USBController_AVR8.c ****                const uint8_t Mode
  49:../../protocol/lufa/LUFA-120730/LUFA/Drivers/USB/Core/AVR8/USBController_AVR8.c ****                #endif
  50:../../protocol/lufa/LUFA-120730/LUFA/Drivers/USB/Core/AVR8/USBController_AVR8.c **** 
  51:../../protocol/lufa/LUFA-120730/LUFA/Drivers/USB/Core/AVR8/USBController_AVR8.c ****                #if (defined(USB_CAN_BE_BOTH) && !defined(USE_STATIC_OPTIONS))
  52:../../protocol/lufa/LUFA-120730/LUFA/Drivers/USB/Core/AVR8/USBController_AVR8.c ****                ,
  53:../../protocol/lufa/LUFA-120730/LUFA/Drivers/USB/Core/AVR8/USBController_AVR8.c ****                #elif (!defined(USB_CAN_BE_BOTH) && defined(USE_STATIC_OPTIONS))
  54:../../protocol/lufa/LUFA-120730/LUFA/Drivers/USB/Core/AVR8/USBController_AVR8.c ****                void
  55:../../protocol/lufa/LUFA-120730/LUFA/Drivers/USB/Core/AVR8/USBController_AVR8.c ****                #endif
  56:../../protocol/lufa/LUFA-120730/LUFA/Drivers/USB/Core/AVR8/USBController_AVR8.c **** 
  57:../../protocol/lufa/LUFA-120730/LUFA/Drivers/USB/Core/AVR8/USBController_AVR8.c ****                #if !defined(USE_STATIC_OPTIONS)
  58:../../protocol/lufa/LUFA-120730/LUFA/Drivers/USB/Core/AVR8/USBController_AVR8.c ****                const uint8_t Options
  59:../../protocol/lufa/LUFA-120730/LUFA/Drivers/USB/Core/AVR8/USBController_AVR8.c ****                #endif
  60:../../protocol/lufa/LUFA-120730/LUFA/Drivers/USB/Core/AVR8/USBController_AVR8.c ****                )
  61:../../protocol/lufa/LUFA-120730/LUFA/Drivers/USB/Core/AVR8/USBController_AVR8.c **** {
  62:../../protocol/lufa/LUFA-120730/LUFA/Drivers/USB/Core/AVR8/USBController_AVR8.c **** 	#if !defined(USE_STATIC_OPTIONS)
  63:../../protocol/lufa/LUFA-120730/LUFA/Drivers/USB/Core/AVR8/USBController_AVR8.c **** 	USB_Options = Options;
  64:../../protocol/lufa/LUFA-120730/LUFA/Drivers/USB/Core/AVR8/USBController_AVR8.c **** 	#endif
  65:../../protocol/lufa/LUFA-120730/LUFA/Drivers/USB/Core/AVR8/USBController_AVR8.c **** 
  66:../../protocol/lufa/LUFA-120730/LUFA/Drivers/USB/Core/AVR8/USBController_AVR8.c **** 	if (!(USB_Options & USB_OPT_REG_DISABLED))
  67:../../protocol/lufa/LUFA-120730/LUFA/Drivers/USB/Core/AVR8/USBController_AVR8.c **** 	  USB_REG_On();
  68:../../protocol/lufa/LUFA-120730/LUFA/Drivers/USB/Core/AVR8/USBController_AVR8.c **** 	else
  69:../../protocol/lufa/LUFA-120730/LUFA/Drivers/USB/Core/AVR8/USBController_AVR8.c **** 	  USB_REG_Off();
  70:../../protocol/lufa/LUFA-120730/LUFA/Drivers/USB/Core/AVR8/USBController_AVR8.c **** 
  71:../../protocol/lufa/LUFA-120730/LUFA/Drivers/USB/Core/AVR8/USBController_AVR8.c **** 	if (!(USB_Options & USB_OPT_MANUAL_PLL))
  72:../../protocol/lufa/LUFA-120730/LUFA/Drivers/USB/Core/AVR8/USBController_AVR8.c **** 	{
  73:../../protocol/lufa/LUFA-120730/LUFA/Drivers/USB/Core/AVR8/USBController_AVR8.c **** 		#if defined(USB_SERIES_4_AVR)
  74:../../protocol/lufa/LUFA-120730/LUFA/Drivers/USB/Core/AVR8/USBController_AVR8.c **** 		PLLFRQ = (1 << PDIV2);
  75:../../protocol/lufa/LUFA-120730/LUFA/Drivers/USB/Core/AVR8/USBController_AVR8.c **** 		#endif
  76:../../protocol/lufa/LUFA-120730/LUFA/Drivers/USB/Core/AVR8/USBController_AVR8.c **** 	}
  77:../../protocol/lufa/LUFA-120730/LUFA/Drivers/USB/Core/AVR8/USBController_AVR8.c **** 
  78:../../protocol/lufa/LUFA-120730/LUFA/Drivers/USB/Core/AVR8/USBController_AVR8.c **** 	#if defined(USB_CAN_BE_BOTH)
  79:../../protocol/lufa/LUFA-120730/LUFA/Drivers/USB/Core/AVR8/USBController_AVR8.c **** 	if (Mode == USB_MODE_UID)
  80:../../protocol/lufa/LUFA-120730/LUFA/Drivers/USB/Core/AVR8/USBController_AVR8.c **** 	{
  81:../../protocol/lufa/LUFA-120730/LUFA/Drivers/USB/Core/AVR8/USBController_AVR8.c **** 		UHWCON |=  (1 << UIDE);
  82:../../protocol/lufa/LUFA-120730/LUFA/Drivers/USB/Core/AVR8/USBController_AVR8.c **** 		USB_INT_Enable(USB_INT_IDTI);
  83:../../protocol/lufa/LUFA-120730/LUFA/Drivers/USB/Core/AVR8/USBController_AVR8.c **** 		USB_CurrentMode = USB_GetUSBModeFromUID();
  84:../../protocol/lufa/LUFA-120730/LUFA/Drivers/USB/Core/AVR8/USBController_AVR8.c **** 	}
  85:../../protocol/lufa/LUFA-120730/LUFA/Drivers/USB/Core/AVR8/USBController_AVR8.c **** 	else
  86:../../protocol/lufa/LUFA-120730/LUFA/Drivers/USB/Core/AVR8/USBController_AVR8.c **** 	{
  87:../../protocol/lufa/LUFA-120730/LUFA/Drivers/USB/Core/AVR8/USBController_AVR8.c **** 		UHWCON &= ~(1 << UIDE);
  88:../../protocol/lufa/LUFA-120730/LUFA/Drivers/USB/Core/AVR8/USBController_AVR8.c **** 		USB_CurrentMode = Mode;
  89:../../protocol/lufa/LUFA-120730/LUFA/Drivers/USB/Core/AVR8/USBController_AVR8.c **** 	}
  90:../../protocol/lufa/LUFA-120730/LUFA/Drivers/USB/Core/AVR8/USBController_AVR8.c **** 	#endif
  91:../../protocol/lufa/LUFA-120730/LUFA/Drivers/USB/Core/AVR8/USBController_AVR8.c **** 
  92:../../protocol/lufa/LUFA-120730/LUFA/Drivers/USB/Core/AVR8/USBController_AVR8.c **** 	USB_IsInitialized = true;
  93:../../protocol/lufa/LUFA-120730/LUFA/Drivers/USB/Core/AVR8/USBController_AVR8.c **** 
  94:../../protocol/lufa/LUFA-120730/LUFA/Drivers/USB/Core/AVR8/USBController_AVR8.c **** 	USB_ResetInterface();
  95:../../protocol/lufa/LUFA-120730/LUFA/Drivers/USB/Core/AVR8/USBController_AVR8.c **** }
  96:../../protocol/lufa/LUFA-120730/LUFA/Drivers/USB/Core/AVR8/USBController_AVR8.c **** 
  97:../../protocol/lufa/LUFA-120730/LUFA/Drivers/USB/Core/AVR8/USBController_AVR8.c **** void USB_Disable(void)
  98:../../protocol/lufa/LUFA-120730/LUFA/Drivers/USB/Core/AVR8/USBController_AVR8.c **** {
  16               		.loc 1 98 0
  17               		.cfi_startproc
  18               	/* prologue: function */
  19               	/* frame size = 0 */
  20               	/* stack size = 0 */
  21               	.L__stack_usage = 0
  99:../../protocol/lufa/LUFA-120730/LUFA/Drivers/USB/Core/AVR8/USBController_AVR8.c **** 	USB_INT_DisableAllInterrupts();
  22               		.loc 1 99 0
  23 0000 0E94 0000 		call USB_INT_DisableAllInterrupts
  24               	.LVL0:
 100:../../protocol/lufa/LUFA-120730/LUFA/Drivers/USB/Core/AVR8/USBController_AVR8.c **** 	USB_INT_ClearAllInterrupts();
  25               		.loc 1 100 0
  26 0004 0E94 0000 		call USB_INT_ClearAllInterrupts
  27               	.LVL1:
  28               	.LBB40:
  29               	.LBB41:
  30               		.file 2 "../../protocol/lufa/LUFA-120730/LUFA/Drivers/USB/Core/AVR8/../AVR8/USBController_AVR8.h"
   1:../../protocol/lufa/LUFA-120730/LUFA/Drivers/USB/Core/AVR8/../AVR8/USBController_AVR8.h **** /*
   2:../../protocol/lufa/LUFA-120730/LUFA/Drivers/USB/Core/AVR8/../AVR8/USBController_AVR8.h ****              LUFA Library
   3:../../protocol/lufa/LUFA-120730/LUFA/Drivers/USB/Core/AVR8/../AVR8/USBController_AVR8.h ****      Copyright (C) Dean Camera, 2012.
   4:../../protocol/lufa/LUFA-120730/LUFA/Drivers/USB/Core/AVR8/../AVR8/USBController_AVR8.h **** 
   5:../../protocol/lufa/LUFA-120730/LUFA/Drivers/USB/Core/AVR8/../AVR8/USBController_AVR8.h ****   dean [at] fourwalledcubicle [dot] com
   6:../../protocol/lufa/LUFA-120730/LUFA/Drivers/USB/Core/AVR8/../AVR8/USBController_AVR8.h ****            www.lufa-lib.org
   7:../../protocol/lufa/LUFA-120730/LUFA/Drivers/USB/Core/AVR8/../AVR8/USBController_AVR8.h **** */
   8:../../protocol/lufa/LUFA-120730/LUFA/Drivers/USB/Core/AVR8/../AVR8/USBController_AVR8.h **** 
   9:../../protocol/lufa/LUFA-120730/LUFA/Drivers/USB/Core/AVR8/../AVR8/USBController_AVR8.h **** /*
  10:../../protocol/lufa/LUFA-120730/LUFA/Drivers/USB/Core/AVR8/../AVR8/USBController_AVR8.h ****   Copyright 2012  Dean Camera (dean [at] fourwalledcubicle [dot] com)
  11:../../protocol/lufa/LUFA-120730/LUFA/Drivers/USB/Core/AVR8/../AVR8/USBController_AVR8.h **** 
  12:../../protocol/lufa/LUFA-120730/LUFA/Drivers/USB/Core/AVR8/../AVR8/USBController_AVR8.h ****   Permission to use, copy, modify, distribute, and sell this
  13:../../protocol/lufa/LUFA-120730/LUFA/Drivers/USB/Core/AVR8/../AVR8/USBController_AVR8.h ****   software and its documentation for any purpose is hereby granted
  14:../../protocol/lufa/LUFA-120730/LUFA/Drivers/USB/Core/AVR8/../AVR8/USBController_AVR8.h ****   without fee, provided that the above copyright notice appear in
  15:../../protocol/lufa/LUFA-120730/LUFA/Drivers/USB/Core/AVR8/../AVR8/USBController_AVR8.h ****   all copies and that both that the copyright notice and this
  16:../../protocol/lufa/LUFA-120730/LUFA/Drivers/USB/Core/AVR8/../AVR8/USBController_AVR8.h ****   permission notice and warranty disclaimer appear in supporting
  17:../../protocol/lufa/LUFA-120730/LUFA/Drivers/USB/Core/AVR8/../AVR8/USBController_AVR8.h ****   documentation, and that the name of the author not be used in
  18:../../protocol/lufa/LUFA-120730/LUFA/Drivers/USB/Core/AVR8/../AVR8/USBController_AVR8.h ****   advertising or publicity pertaining to distribution of the
  19:../../protocol/lufa/LUFA-120730/LUFA/Drivers/USB/Core/AVR8/../AVR8/USBController_AVR8.h ****   software without specific, written prior permission.
  20:../../protocol/lufa/LUFA-120730/LUFA/Drivers/USB/Core/AVR8/../AVR8/USBController_AVR8.h **** 
  21:../../protocol/lufa/LUFA-120730/LUFA/Drivers/USB/Core/AVR8/../AVR8/USBController_AVR8.h ****   The author disclaim all warranties with regard to this
  22:../../protocol/lufa/LUFA-120730/LUFA/Drivers/USB/Core/AVR8/../AVR8/USBController_AVR8.h ****   software, including all implied warranties of merchantability
  23:../../protocol/lufa/LUFA-120730/LUFA/Drivers/USB/Core/AVR8/../AVR8/USBController_AVR8.h ****   and fitness.  In no event shall the author be liable for any
  24:../../protocol/lufa/LUFA-120730/LUFA/Drivers/USB/Core/AVR8/../AVR8/USBController_AVR8.h ****   special, indirect or consequential damages or any damages
  25:../../protocol/lufa/LUFA-120730/LUFA/Drivers/USB/Core/AVR8/../AVR8/USBController_AVR8.h ****   whatsoever resulting from loss of use, data or profits, whether
  26:../../protocol/lufa/LUFA-120730/LUFA/Drivers/USB/Core/AVR8/../AVR8/USBController_AVR8.h ****   in an action of contract, negligence or other tortious action,
  27:../../protocol/lufa/LUFA-120730/LUFA/Drivers/USB/Core/AVR8/../AVR8/USBController_AVR8.h ****   arising out of or in connection with the use or performance of
  28:../../protocol/lufa/LUFA-120730/LUFA/Drivers/USB/Core/AVR8/../AVR8/USBController_AVR8.h ****   this software.
  29:../../protocol/lufa/LUFA-120730/LUFA/Drivers/USB/Core/AVR8/../AVR8/USBController_AVR8.h **** */
  30:../../protocol/lufa/LUFA-120730/LUFA/Drivers/USB/Core/AVR8/../AVR8/USBController_AVR8.h **** 
  31:../../protocol/lufa/LUFA-120730/LUFA/Drivers/USB/Core/AVR8/../AVR8/USBController_AVR8.h **** /** \file
  32:../../protocol/lufa/LUFA-120730/LUFA/Drivers/USB/Core/AVR8/../AVR8/USBController_AVR8.h ****  *  \brief USB Controller definitions for the AVR8 microcontrollers.
  33:../../protocol/lufa/LUFA-120730/LUFA/Drivers/USB/Core/AVR8/../AVR8/USBController_AVR8.h ****  *  \copydetails Group_USBManagement_AVR8
  34:../../protocol/lufa/LUFA-120730/LUFA/Drivers/USB/Core/AVR8/../AVR8/USBController_AVR8.h ****  *
  35:../../protocol/lufa/LUFA-120730/LUFA/Drivers/USB/Core/AVR8/../AVR8/USBController_AVR8.h ****  *  \note This file should not be included directly. It is automatically included as needed by the 
  36:../../protocol/lufa/LUFA-120730/LUFA/Drivers/USB/Core/AVR8/../AVR8/USBController_AVR8.h ****  *        dispatch header located in LUFA/Drivers/USB/USB.h.
  37:../../protocol/lufa/LUFA-120730/LUFA/Drivers/USB/Core/AVR8/../AVR8/USBController_AVR8.h ****  */
  38:../../protocol/lufa/LUFA-120730/LUFA/Drivers/USB/Core/AVR8/../AVR8/USBController_AVR8.h **** 
  39:../../protocol/lufa/LUFA-120730/LUFA/Drivers/USB/Core/AVR8/../AVR8/USBController_AVR8.h **** /** \ingroup Group_USBManagement
  40:../../protocol/lufa/LUFA-120730/LUFA/Drivers/USB/Core/AVR8/../AVR8/USBController_AVR8.h ****  *  \defgroup Group_USBManagement_AVR8 USB Interface Management (AVR8)
  41:../../protocol/lufa/LUFA-120730/LUFA/Drivers/USB/Core/AVR8/../AVR8/USBController_AVR8.h ****  *  \brief USB Controller definitions for the AVR8 microcontrollers.
  42:../../protocol/lufa/LUFA-120730/LUFA/Drivers/USB/Core/AVR8/../AVR8/USBController_AVR8.h ****  *
  43:../../protocol/lufa/LUFA-120730/LUFA/Drivers/USB/Core/AVR8/../AVR8/USBController_AVR8.h ****  *  Functions, macros, variables, enums and types related to the setup and management of the USB in
  44:../../protocol/lufa/LUFA-120730/LUFA/Drivers/USB/Core/AVR8/../AVR8/USBController_AVR8.h ****  *
  45:../../protocol/lufa/LUFA-120730/LUFA/Drivers/USB/Core/AVR8/../AVR8/USBController_AVR8.h ****  *  @{
  46:../../protocol/lufa/LUFA-120730/LUFA/Drivers/USB/Core/AVR8/../AVR8/USBController_AVR8.h ****  */
  47:../../protocol/lufa/LUFA-120730/LUFA/Drivers/USB/Core/AVR8/../AVR8/USBController_AVR8.h **** 
  48:../../protocol/lufa/LUFA-120730/LUFA/Drivers/USB/Core/AVR8/../AVR8/USBController_AVR8.h **** #ifndef __USBCONTROLLER_AVR8_H__
  49:../../protocol/lufa/LUFA-120730/LUFA/Drivers/USB/Core/AVR8/../AVR8/USBController_AVR8.h **** #define __USBCONTROLLER_AVR8_H__
  50:../../protocol/lufa/LUFA-120730/LUFA/Drivers/USB/Core/AVR8/../AVR8/USBController_AVR8.h **** 
  51:../../protocol/lufa/LUFA-120730/LUFA/Drivers/USB/Core/AVR8/../AVR8/USBController_AVR8.h **** 	/* Includes: */
  52:../../protocol/lufa/LUFA-120730/LUFA/Drivers/USB/Core/AVR8/../AVR8/USBController_AVR8.h **** 		#include "../../../../Common/Common.h"
  53:../../protocol/lufa/LUFA-120730/LUFA/Drivers/USB/Core/AVR8/../AVR8/USBController_AVR8.h **** 		#include "../USBMode.h"
  54:../../protocol/lufa/LUFA-120730/LUFA/Drivers/USB/Core/AVR8/../AVR8/USBController_AVR8.h **** 		#include "../Events.h"
  55:../../protocol/lufa/LUFA-120730/LUFA/Drivers/USB/Core/AVR8/../AVR8/USBController_AVR8.h **** 		#include "../USBTask.h"
  56:../../protocol/lufa/LUFA-120730/LUFA/Drivers/USB/Core/AVR8/../AVR8/USBController_AVR8.h **** 		#include "../USBInterrupt.h"
  57:../../protocol/lufa/LUFA-120730/LUFA/Drivers/USB/Core/AVR8/../AVR8/USBController_AVR8.h **** 
  58:../../protocol/lufa/LUFA-120730/LUFA/Drivers/USB/Core/AVR8/../AVR8/USBController_AVR8.h **** 		#if defined(USB_CAN_BE_HOST) || defined(__DOXYGEN__)
  59:../../protocol/lufa/LUFA-120730/LUFA/Drivers/USB/Core/AVR8/../AVR8/USBController_AVR8.h **** 			#include "../Host.h"
  60:../../protocol/lufa/LUFA-120730/LUFA/Drivers/USB/Core/AVR8/../AVR8/USBController_AVR8.h **** 			#include "../OTG.h"
  61:../../protocol/lufa/LUFA-120730/LUFA/Drivers/USB/Core/AVR8/../AVR8/USBController_AVR8.h **** 			#include "../Pipe.h"
  62:../../protocol/lufa/LUFA-120730/LUFA/Drivers/USB/Core/AVR8/../AVR8/USBController_AVR8.h **** 			#include "../HostStandardReq.h"
  63:../../protocol/lufa/LUFA-120730/LUFA/Drivers/USB/Core/AVR8/../AVR8/USBController_AVR8.h **** 			#include "../PipeStream.h"
  64:../../protocol/lufa/LUFA-120730/LUFA/Drivers/USB/Core/AVR8/../AVR8/USBController_AVR8.h **** 		#endif
  65:../../protocol/lufa/LUFA-120730/LUFA/Drivers/USB/Core/AVR8/../AVR8/USBController_AVR8.h **** 
  66:../../protocol/lufa/LUFA-120730/LUFA/Drivers/USB/Core/AVR8/../AVR8/USBController_AVR8.h **** 		#if defined(USB_CAN_BE_DEVICE) || defined(__DOXYGEN__)
  67:../../protocol/lufa/LUFA-120730/LUFA/Drivers/USB/Core/AVR8/../AVR8/USBController_AVR8.h **** 			#include "../Device.h"
  68:../../protocol/lufa/LUFA-120730/LUFA/Drivers/USB/Core/AVR8/../AVR8/USBController_AVR8.h **** 			#include "../Endpoint.h"
  69:../../protocol/lufa/LUFA-120730/LUFA/Drivers/USB/Core/AVR8/../AVR8/USBController_AVR8.h **** 			#include "../DeviceStandardReq.h"
  70:../../protocol/lufa/LUFA-120730/LUFA/Drivers/USB/Core/AVR8/../AVR8/USBController_AVR8.h **** 			#include "../EndpointStream.h"
  71:../../protocol/lufa/LUFA-120730/LUFA/Drivers/USB/Core/AVR8/../AVR8/USBController_AVR8.h **** 		#endif
  72:../../protocol/lufa/LUFA-120730/LUFA/Drivers/USB/Core/AVR8/../AVR8/USBController_AVR8.h **** 
  73:../../protocol/lufa/LUFA-120730/LUFA/Drivers/USB/Core/AVR8/../AVR8/USBController_AVR8.h **** 	/* Enable C linkage for C++ Compilers: */
  74:../../protocol/lufa/LUFA-120730/LUFA/Drivers/USB/Core/AVR8/../AVR8/USBController_AVR8.h **** 		#if defined(__cplusplus)
  75:../../protocol/lufa/LUFA-120730/LUFA/Drivers/USB/Core/AVR8/../AVR8/USBController_AVR8.h **** 			extern "C" {
  76:../../protocol/lufa/LUFA-120730/LUFA/Drivers/USB/Core/AVR8/../AVR8/USBController_AVR8.h **** 		#endif
  77:../../protocol/lufa/LUFA-120730/LUFA/Drivers/USB/Core/AVR8/../AVR8/USBController_AVR8.h **** 
  78:../../protocol/lufa/LUFA-120730/LUFA/Drivers/USB/Core/AVR8/../AVR8/USBController_AVR8.h **** 	/* Preprocessor Checks and Defines: */
  79:../../protocol/lufa/LUFA-120730/LUFA/Drivers/USB/Core/AVR8/../AVR8/USBController_AVR8.h **** 		#if !defined(__INCLUDE_FROM_USB_DRIVER)
  80:../../protocol/lufa/LUFA-120730/LUFA/Drivers/USB/Core/AVR8/../AVR8/USBController_AVR8.h **** 			#error Do not include this file directly. Include LUFA/Drivers/USB/USB.h instead.
  81:../../protocol/lufa/LUFA-120730/LUFA/Drivers/USB/Core/AVR8/../AVR8/USBController_AVR8.h **** 		#endif
  82:../../protocol/lufa/LUFA-120730/LUFA/Drivers/USB/Core/AVR8/../AVR8/USBController_AVR8.h **** 
  83:../../protocol/lufa/LUFA-120730/LUFA/Drivers/USB/Core/AVR8/../AVR8/USBController_AVR8.h **** 		#if !defined(F_USB)
  84:../../protocol/lufa/LUFA-120730/LUFA/Drivers/USB/Core/AVR8/../AVR8/USBController_AVR8.h **** 			#error F_USB is not defined. You must define F_USB to the frequency of the unprescaled USB contr
  85:../../protocol/lufa/LUFA-120730/LUFA/Drivers/USB/Core/AVR8/../AVR8/USBController_AVR8.h **** 		#endif
  86:../../protocol/lufa/LUFA-120730/LUFA/Drivers/USB/Core/AVR8/../AVR8/USBController_AVR8.h **** 
  87:../../protocol/lufa/LUFA-120730/LUFA/Drivers/USB/Core/AVR8/../AVR8/USBController_AVR8.h **** 		#if (F_USB == 8000000)
  88:../../protocol/lufa/LUFA-120730/LUFA/Drivers/USB/Core/AVR8/../AVR8/USBController_AVR8.h **** 			#if (defined(__AVR_AT90USB82__) || defined(__AVR_AT90USB162__) || \
  89:../../protocol/lufa/LUFA-120730/LUFA/Drivers/USB/Core/AVR8/../AVR8/USBController_AVR8.h **** 			     defined(__AVR_ATmega8U2__) || defined(__AVR_ATmega16U2__) || \
  90:../../protocol/lufa/LUFA-120730/LUFA/Drivers/USB/Core/AVR8/../AVR8/USBController_AVR8.h **** 			     defined(__AVR_ATmega32U2__))
  91:../../protocol/lufa/LUFA-120730/LUFA/Drivers/USB/Core/AVR8/../AVR8/USBController_AVR8.h **** 				#define USB_PLL_PSC                0
  92:../../protocol/lufa/LUFA-120730/LUFA/Drivers/USB/Core/AVR8/../AVR8/USBController_AVR8.h **** 			#elif (defined(__AVR_ATmega16U4__) || defined(__AVR_ATmega32U4__))
  93:../../protocol/lufa/LUFA-120730/LUFA/Drivers/USB/Core/AVR8/../AVR8/USBController_AVR8.h **** 				#define USB_PLL_PSC                0
  94:../../protocol/lufa/LUFA-120730/LUFA/Drivers/USB/Core/AVR8/../AVR8/USBController_AVR8.h **** 			#elif (defined(__AVR_AT90USB646__)  || defined(__AVR_AT90USB1286__) || defined(__AVR_ATmega32U6_
  95:../../protocol/lufa/LUFA-120730/LUFA/Drivers/USB/Core/AVR8/../AVR8/USBController_AVR8.h **** 				#define USB_PLL_PSC                ((1 << PLLP1) | (1 << PLLP0))
  96:../../protocol/lufa/LUFA-120730/LUFA/Drivers/USB/Core/AVR8/../AVR8/USBController_AVR8.h **** 			#elif (defined(__AVR_AT90USB647__)  || defined(__AVR_AT90USB1287__))
  97:../../protocol/lufa/LUFA-120730/LUFA/Drivers/USB/Core/AVR8/../AVR8/USBController_AVR8.h **** 				#define USB_PLL_PSC                ((1 << PLLP1) | (1 << PLLP0))
  98:../../protocol/lufa/LUFA-120730/LUFA/Drivers/USB/Core/AVR8/../AVR8/USBController_AVR8.h **** 			#endif
  99:../../protocol/lufa/LUFA-120730/LUFA/Drivers/USB/Core/AVR8/../AVR8/USBController_AVR8.h **** 		#elif (F_USB == 16000000)
 100:../../protocol/lufa/LUFA-120730/LUFA/Drivers/USB/Core/AVR8/../AVR8/USBController_AVR8.h **** 			#if (defined(__AVR_AT90USB82__) || defined(__AVR_AT90USB162__) || \
 101:../../protocol/lufa/LUFA-120730/LUFA/Drivers/USB/Core/AVR8/../AVR8/USBController_AVR8.h **** 			     defined(__AVR_ATmega8U2__) || defined(__AVR_ATmega16U2__) || \
 102:../../protocol/lufa/LUFA-120730/LUFA/Drivers/USB/Core/AVR8/../AVR8/USBController_AVR8.h **** 			     defined(__AVR_ATmega32U2__))
 103:../../protocol/lufa/LUFA-120730/LUFA/Drivers/USB/Core/AVR8/../AVR8/USBController_AVR8.h **** 				#define USB_PLL_PSC                (1 << PLLP0)
 104:../../protocol/lufa/LUFA-120730/LUFA/Drivers/USB/Core/AVR8/../AVR8/USBController_AVR8.h **** 			#elif (defined(__AVR_ATmega16U4__) || defined(__AVR_ATmega32U4__))
 105:../../protocol/lufa/LUFA-120730/LUFA/Drivers/USB/Core/AVR8/../AVR8/USBController_AVR8.h **** 				#define USB_PLL_PSC                (1 << PINDIV)
 106:../../protocol/lufa/LUFA-120730/LUFA/Drivers/USB/Core/AVR8/../AVR8/USBController_AVR8.h **** 			#elif (defined(__AVR_AT90USB646__) || defined(__AVR_AT90USB647__) || defined(__AVR_ATmega32U6__)
 107:../../protocol/lufa/LUFA-120730/LUFA/Drivers/USB/Core/AVR8/../AVR8/USBController_AVR8.h **** 				#define USB_PLL_PSC                ((1 << PLLP2) | (1 << PLLP1))
 108:../../protocol/lufa/LUFA-120730/LUFA/Drivers/USB/Core/AVR8/../AVR8/USBController_AVR8.h **** 			#elif (defined(__AVR_AT90USB1286__) || defined(__AVR_AT90USB1287__))
 109:../../protocol/lufa/LUFA-120730/LUFA/Drivers/USB/Core/AVR8/../AVR8/USBController_AVR8.h **** 				#define USB_PLL_PSC                ((1 << PLLP2) | (1 << PLLP0))
 110:../../protocol/lufa/LUFA-120730/LUFA/Drivers/USB/Core/AVR8/../AVR8/USBController_AVR8.h **** 			#endif
 111:../../protocol/lufa/LUFA-120730/LUFA/Drivers/USB/Core/AVR8/../AVR8/USBController_AVR8.h **** 		#endif
 112:../../protocol/lufa/LUFA-120730/LUFA/Drivers/USB/Core/AVR8/../AVR8/USBController_AVR8.h **** 
 113:../../protocol/lufa/LUFA-120730/LUFA/Drivers/USB/Core/AVR8/../AVR8/USBController_AVR8.h **** 		#if !defined(USB_PLL_PSC)
 114:../../protocol/lufa/LUFA-120730/LUFA/Drivers/USB/Core/AVR8/../AVR8/USBController_AVR8.h **** 			#error No PLL prescale value available for chosen F_USB value and AVR model.
 115:../../protocol/lufa/LUFA-120730/LUFA/Drivers/USB/Core/AVR8/../AVR8/USBController_AVR8.h **** 		#endif
 116:../../protocol/lufa/LUFA-120730/LUFA/Drivers/USB/Core/AVR8/../AVR8/USBController_AVR8.h **** 
 117:../../protocol/lufa/LUFA-120730/LUFA/Drivers/USB/Core/AVR8/../AVR8/USBController_AVR8.h **** 	/* Public Interface - May be used in end-application: */
 118:../../protocol/lufa/LUFA-120730/LUFA/Drivers/USB/Core/AVR8/../AVR8/USBController_AVR8.h **** 		/* Macros: */
 119:../../protocol/lufa/LUFA-120730/LUFA/Drivers/USB/Core/AVR8/../AVR8/USBController_AVR8.h **** 			/** \name USB Controller Option Masks */
 120:../../protocol/lufa/LUFA-120730/LUFA/Drivers/USB/Core/AVR8/../AVR8/USBController_AVR8.h **** 			//@{
 121:../../protocol/lufa/LUFA-120730/LUFA/Drivers/USB/Core/AVR8/../AVR8/USBController_AVR8.h **** 			/** Regulator disable option mask for \ref USB_Init(). This indicates that the internal 3.3V USB
 122:../../protocol/lufa/LUFA-120730/LUFA/Drivers/USB/Core/AVR8/../AVR8/USBController_AVR8.h **** 			 *  regulator should be disabled and the AVR's VCC level used for the data pads.
 123:../../protocol/lufa/LUFA-120730/LUFA/Drivers/USB/Core/AVR8/../AVR8/USBController_AVR8.h **** 			 *
 124:../../protocol/lufa/LUFA-120730/LUFA/Drivers/USB/Core/AVR8/../AVR8/USBController_AVR8.h **** 			 *  \note See USB AVR data sheet for more information on the internal pad regulator.
 125:../../protocol/lufa/LUFA-120730/LUFA/Drivers/USB/Core/AVR8/../AVR8/USBController_AVR8.h **** 			 */
 126:../../protocol/lufa/LUFA-120730/LUFA/Drivers/USB/Core/AVR8/../AVR8/USBController_AVR8.h **** 			#define USB_OPT_REG_DISABLED               (1 << 1)
 127:../../protocol/lufa/LUFA-120730/LUFA/Drivers/USB/Core/AVR8/../AVR8/USBController_AVR8.h **** 
 128:../../protocol/lufa/LUFA-120730/LUFA/Drivers/USB/Core/AVR8/../AVR8/USBController_AVR8.h **** 			/** Regulator enable option mask for \ref USB_Init(). This indicates that the internal 3.3V USB 
 129:../../protocol/lufa/LUFA-120730/LUFA/Drivers/USB/Core/AVR8/../AVR8/USBController_AVR8.h **** 			 *  regulator should be enabled to regulate the data pin voltages from the VBUS level down to a 
 130:../../protocol/lufa/LUFA-120730/LUFA/Drivers/USB/Core/AVR8/../AVR8/USBController_AVR8.h **** 			 *  the range allowable by the USB standard.
 131:../../protocol/lufa/LUFA-120730/LUFA/Drivers/USB/Core/AVR8/../AVR8/USBController_AVR8.h **** 			 *
 132:../../protocol/lufa/LUFA-120730/LUFA/Drivers/USB/Core/AVR8/../AVR8/USBController_AVR8.h **** 			 *  \note See USB AVR data sheet for more information on the internal pad regulator.
 133:../../protocol/lufa/LUFA-120730/LUFA/Drivers/USB/Core/AVR8/../AVR8/USBController_AVR8.h **** 			 */
 134:../../protocol/lufa/LUFA-120730/LUFA/Drivers/USB/Core/AVR8/../AVR8/USBController_AVR8.h **** 			#define USB_OPT_REG_ENABLED                (0 << 1)
 135:../../protocol/lufa/LUFA-120730/LUFA/Drivers/USB/Core/AVR8/../AVR8/USBController_AVR8.h **** 
 136:../../protocol/lufa/LUFA-120730/LUFA/Drivers/USB/Core/AVR8/../AVR8/USBController_AVR8.h **** 			/** Manual PLL control option mask for \ref USB_Init(). This indicates to the library that the u
 137:../../protocol/lufa/LUFA-120730/LUFA/Drivers/USB/Core/AVR8/../AVR8/USBController_AVR8.h **** 			 *  will take full responsibility for controlling the AVR's PLL (used to generate the high frequ
 138:../../protocol/lufa/LUFA-120730/LUFA/Drivers/USB/Core/AVR8/../AVR8/USBController_AVR8.h **** 			 *  that the USB controller requires) and ensuring that it is locked at the correct frequency fo
 139:../../protocol/lufa/LUFA-120730/LUFA/Drivers/USB/Core/AVR8/../AVR8/USBController_AVR8.h **** 			 */
 140:../../protocol/lufa/LUFA-120730/LUFA/Drivers/USB/Core/AVR8/../AVR8/USBController_AVR8.h **** 			#define USB_OPT_MANUAL_PLL                 (1 << 2)
 141:../../protocol/lufa/LUFA-120730/LUFA/Drivers/USB/Core/AVR8/../AVR8/USBController_AVR8.h **** 
 142:../../protocol/lufa/LUFA-120730/LUFA/Drivers/USB/Core/AVR8/../AVR8/USBController_AVR8.h **** 			/** Automatic PLL control option mask for \ref USB_Init(). This indicates to the library that th
 143:../../protocol/lufa/LUFA-120730/LUFA/Drivers/USB/Core/AVR8/../AVR8/USBController_AVR8.h **** 			 *  take full responsibility for controlling the AVR's PLL (used to generate the high frequency 
 144:../../protocol/lufa/LUFA-120730/LUFA/Drivers/USB/Core/AVR8/../AVR8/USBController_AVR8.h **** 			 *  that the USB controller requires) and ensuring that it is locked at the correct frequency fo
 145:../../protocol/lufa/LUFA-120730/LUFA/Drivers/USB/Core/AVR8/../AVR8/USBController_AVR8.h **** 			 */
 146:../../protocol/lufa/LUFA-120730/LUFA/Drivers/USB/Core/AVR8/../AVR8/USBController_AVR8.h **** 			#define USB_OPT_AUTO_PLL                   (0 << 2)
 147:../../protocol/lufa/LUFA-120730/LUFA/Drivers/USB/Core/AVR8/../AVR8/USBController_AVR8.h **** 			//@}
 148:../../protocol/lufa/LUFA-120730/LUFA/Drivers/USB/Core/AVR8/../AVR8/USBController_AVR8.h **** 
 149:../../protocol/lufa/LUFA-120730/LUFA/Drivers/USB/Core/AVR8/../AVR8/USBController_AVR8.h **** 			#if !defined(USB_STREAM_TIMEOUT_MS) || defined(__DOXYGEN__)
 150:../../protocol/lufa/LUFA-120730/LUFA/Drivers/USB/Core/AVR8/../AVR8/USBController_AVR8.h **** 				/** Constant for the maximum software timeout period of the USB data stream transfer functions
 151:../../protocol/lufa/LUFA-120730/LUFA/Drivers/USB/Core/AVR8/../AVR8/USBController_AVR8.h **** 				 *  (both control and standard) when in either device or host mode. If the next packet of a str
 152:../../protocol/lufa/LUFA-120730/LUFA/Drivers/USB/Core/AVR8/../AVR8/USBController_AVR8.h **** 				 *  is not received or acknowledged within this time period, the stream function will fail.
 153:../../protocol/lufa/LUFA-120730/LUFA/Drivers/USB/Core/AVR8/../AVR8/USBController_AVR8.h **** 				 *
 154:../../protocol/lufa/LUFA-120730/LUFA/Drivers/USB/Core/AVR8/../AVR8/USBController_AVR8.h **** 				 *  This value may be overridden in the user project makefile as the value of the
 155:../../protocol/lufa/LUFA-120730/LUFA/Drivers/USB/Core/AVR8/../AVR8/USBController_AVR8.h **** 				 *  \ref USB_STREAM_TIMEOUT_MS token, and passed to the compiler using the -D switch.
 156:../../protocol/lufa/LUFA-120730/LUFA/Drivers/USB/Core/AVR8/../AVR8/USBController_AVR8.h **** 				 */
 157:../../protocol/lufa/LUFA-120730/LUFA/Drivers/USB/Core/AVR8/../AVR8/USBController_AVR8.h **** 				#define USB_STREAM_TIMEOUT_MS       100
 158:../../protocol/lufa/LUFA-120730/LUFA/Drivers/USB/Core/AVR8/../AVR8/USBController_AVR8.h **** 			#endif
 159:../../protocol/lufa/LUFA-120730/LUFA/Drivers/USB/Core/AVR8/../AVR8/USBController_AVR8.h **** 
 160:../../protocol/lufa/LUFA-120730/LUFA/Drivers/USB/Core/AVR8/../AVR8/USBController_AVR8.h **** 		/* Inline Functions: */
 161:../../protocol/lufa/LUFA-120730/LUFA/Drivers/USB/Core/AVR8/../AVR8/USBController_AVR8.h **** 			#if defined(USB_SERIES_4_AVR) || defined(USB_SERIES_6_AVR) || defined(USB_SERIES_7_AVR) || defin
 162:../../protocol/lufa/LUFA-120730/LUFA/Drivers/USB/Core/AVR8/../AVR8/USBController_AVR8.h **** 				/** Determines if the VBUS line is currently high (i.e. the USB host is supplying power).
 163:../../protocol/lufa/LUFA-120730/LUFA/Drivers/USB/Core/AVR8/../AVR8/USBController_AVR8.h **** 				 *
 164:../../protocol/lufa/LUFA-120730/LUFA/Drivers/USB/Core/AVR8/../AVR8/USBController_AVR8.h **** 				 *  \note This function is not available on some AVR models which do not support hardware VBUS 
 165:../../protocol/lufa/LUFA-120730/LUFA/Drivers/USB/Core/AVR8/../AVR8/USBController_AVR8.h **** 				 *
 166:../../protocol/lufa/LUFA-120730/LUFA/Drivers/USB/Core/AVR8/../AVR8/USBController_AVR8.h **** 				 *  \return Boolean \c true if the VBUS line is currently detecting power from a host, \c false
 167:../../protocol/lufa/LUFA-120730/LUFA/Drivers/USB/Core/AVR8/../AVR8/USBController_AVR8.h **** 				 */
 168:../../protocol/lufa/LUFA-120730/LUFA/Drivers/USB/Core/AVR8/../AVR8/USBController_AVR8.h **** 				static inline bool USB_VBUS_GetStatus(void) ATTR_WARN_UNUSED_RESULT ATTR_ALWAYS_INLINE;
 169:../../protocol/lufa/LUFA-120730/LUFA/Drivers/USB/Core/AVR8/../AVR8/USBController_AVR8.h **** 				static inline bool USB_VBUS_GetStatus(void)
 170:../../protocol/lufa/LUFA-120730/LUFA/Drivers/USB/Core/AVR8/../AVR8/USBController_AVR8.h **** 				{
 171:../../protocol/lufa/LUFA-120730/LUFA/Drivers/USB/Core/AVR8/../AVR8/USBController_AVR8.h **** 					return ((USBSTA & (1 << VBUS)) ? true : false);
 172:../../protocol/lufa/LUFA-120730/LUFA/Drivers/USB/Core/AVR8/../AVR8/USBController_AVR8.h **** 				}
 173:../../protocol/lufa/LUFA-120730/LUFA/Drivers/USB/Core/AVR8/../AVR8/USBController_AVR8.h **** 			#endif
 174:../../protocol/lufa/LUFA-120730/LUFA/Drivers/USB/Core/AVR8/../AVR8/USBController_AVR8.h **** 
 175:../../protocol/lufa/LUFA-120730/LUFA/Drivers/USB/Core/AVR8/../AVR8/USBController_AVR8.h **** 			/** Detaches the device from the USB bus. This has the effect of removing the device from any
 176:../../protocol/lufa/LUFA-120730/LUFA/Drivers/USB/Core/AVR8/../AVR8/USBController_AVR8.h **** 			 *  attached host, ceasing USB communications. If no host is present, this prevents any host fro
 177:../../protocol/lufa/LUFA-120730/LUFA/Drivers/USB/Core/AVR8/../AVR8/USBController_AVR8.h **** 			 *  enumerating the device once attached until \ref USB_Attach() is called.
 178:../../protocol/lufa/LUFA-120730/LUFA/Drivers/USB/Core/AVR8/../AVR8/USBController_AVR8.h **** 			 */
 179:../../protocol/lufa/LUFA-120730/LUFA/Drivers/USB/Core/AVR8/../AVR8/USBController_AVR8.h **** 			static inline void USB_Detach(void) ATTR_ALWAYS_INLINE;
 180:../../protocol/lufa/LUFA-120730/LUFA/Drivers/USB/Core/AVR8/../AVR8/USBController_AVR8.h **** 			static inline void USB_Detach(void)
 181:../../protocol/lufa/LUFA-120730/LUFA/Drivers/USB/Core/AVR8/../AVR8/USBController_AVR8.h **** 			{
 182:../../protocol/lufa/LUFA-120730/LUFA/Drivers/USB/Core/AVR8/../AVR8/USBController_AVR8.h **** 				UDCON  |=  (1 << DETACH);
  31               		.loc 2 182 0
  32 0008 E0EE      		ldi r30,lo8(-32)
  33 000a F0E0      		ldi r31,0
  34 000c 8081      		ld r24,Z
  35 000e 8160      		ori r24,lo8(1)
  36 0010 8083      		st Z,r24
  37               	.LBE41:
  38               	.LBE40:
  39               	.LBB42:
  40               	.LBB43:
 183:../../protocol/lufa/LUFA-120730/LUFA/Drivers/USB/Core/AVR8/../AVR8/USBController_AVR8.h **** 			}
 184:../../protocol/lufa/LUFA-120730/LUFA/Drivers/USB/Core/AVR8/../AVR8/USBController_AVR8.h **** 
 185:../../protocol/lufa/LUFA-120730/LUFA/Drivers/USB/Core/AVR8/../AVR8/USBController_AVR8.h **** 			/** Attaches the device to the USB bus. This announces the device's presence to any attached
 186:../../protocol/lufa/LUFA-120730/LUFA/Drivers/USB/Core/AVR8/../AVR8/USBController_AVR8.h **** 			 *  USB host, starting the enumeration process. If no host is present, attaching the device
 187:../../protocol/lufa/LUFA-120730/LUFA/Drivers/USB/Core/AVR8/../AVR8/USBController_AVR8.h **** 			 *  will allow for enumeration once a host is connected to the device.
 188:../../protocol/lufa/LUFA-120730/LUFA/Drivers/USB/Core/AVR8/../AVR8/USBController_AVR8.h **** 			 *
 189:../../protocol/lufa/LUFA-120730/LUFA/Drivers/USB/Core/AVR8/../AVR8/USBController_AVR8.h **** 			 *  This is inexplicably also required for proper operation while in host mode, to enable the
 190:../../protocol/lufa/LUFA-120730/LUFA/Drivers/USB/Core/AVR8/../AVR8/USBController_AVR8.h **** 			 *  attachment of a device to the host. This is despite the bit being located in the device-mode
 191:../../protocol/lufa/LUFA-120730/LUFA/Drivers/USB/Core/AVR8/../AVR8/USBController_AVR8.h **** 			 *  register and despite the datasheet making no mention of its requirement in host mode.
 192:../../protocol/lufa/LUFA-120730/LUFA/Drivers/USB/Core/AVR8/../AVR8/USBController_AVR8.h **** 			 */
 193:../../protocol/lufa/LUFA-120730/LUFA/Drivers/USB/Core/AVR8/../AVR8/USBController_AVR8.h **** 			static inline void USB_Attach(void) ATTR_ALWAYS_INLINE;
 194:../../protocol/lufa/LUFA-120730/LUFA/Drivers/USB/Core/AVR8/../AVR8/USBController_AVR8.h **** 			static inline void USB_Attach(void)
 195:../../protocol/lufa/LUFA-120730/LUFA/Drivers/USB/Core/AVR8/../AVR8/USBController_AVR8.h **** 			{
 196:../../protocol/lufa/LUFA-120730/LUFA/Drivers/USB/Core/AVR8/../AVR8/USBController_AVR8.h **** 				UDCON  &= ~(1 << DETACH);
 197:../../protocol/lufa/LUFA-120730/LUFA/Drivers/USB/Core/AVR8/../AVR8/USBController_AVR8.h **** 			}
 198:../../protocol/lufa/LUFA-120730/LUFA/Drivers/USB/Core/AVR8/../AVR8/USBController_AVR8.h **** 
 199:../../protocol/lufa/LUFA-120730/LUFA/Drivers/USB/Core/AVR8/../AVR8/USBController_AVR8.h **** 		/* Function Prototypes: */
 200:../../protocol/lufa/LUFA-120730/LUFA/Drivers/USB/Core/AVR8/../AVR8/USBController_AVR8.h **** 			/** Main function to initialize and start the USB interface. Once active, the USB interface will
 201:../../protocol/lufa/LUFA-120730/LUFA/Drivers/USB/Core/AVR8/../AVR8/USBController_AVR8.h **** 			 *  allow for device connection to a host when in device mode, or for device enumeration while i
 202:../../protocol/lufa/LUFA-120730/LUFA/Drivers/USB/Core/AVR8/../AVR8/USBController_AVR8.h **** 			 *  host mode.
 203:../../protocol/lufa/LUFA-120730/LUFA/Drivers/USB/Core/AVR8/../AVR8/USBController_AVR8.h **** 			 *
 204:../../protocol/lufa/LUFA-120730/LUFA/Drivers/USB/Core/AVR8/../AVR8/USBController_AVR8.h **** 			 *  As the USB library relies on interrupts for the device and host mode enumeration processes,
 205:../../protocol/lufa/LUFA-120730/LUFA/Drivers/USB/Core/AVR8/../AVR8/USBController_AVR8.h **** 			 *  the user must enable global interrupts before or shortly after this function is called. In
 206:../../protocol/lufa/LUFA-120730/LUFA/Drivers/USB/Core/AVR8/../AVR8/USBController_AVR8.h **** 			 *  device mode, interrupts must be enabled within 500ms of this function being called to ensure
 207:../../protocol/lufa/LUFA-120730/LUFA/Drivers/USB/Core/AVR8/../AVR8/USBController_AVR8.h **** 			 *  that the host does not time out whilst enumerating the device. In host mode, interrupts may 
 208:../../protocol/lufa/LUFA-120730/LUFA/Drivers/USB/Core/AVR8/../AVR8/USBController_AVR8.h **** 			 *  enabled at the application's leisure however enumeration will not begin of an attached devic
 209:../../protocol/lufa/LUFA-120730/LUFA/Drivers/USB/Core/AVR8/../AVR8/USBController_AVR8.h **** 			 *  until after this has occurred.
 210:../../protocol/lufa/LUFA-120730/LUFA/Drivers/USB/Core/AVR8/../AVR8/USBController_AVR8.h **** 			 *
 211:../../protocol/lufa/LUFA-120730/LUFA/Drivers/USB/Core/AVR8/../AVR8/USBController_AVR8.h **** 			 *  Calling this function when the USB interface is already initialized will cause a complete US
 212:../../protocol/lufa/LUFA-120730/LUFA/Drivers/USB/Core/AVR8/../AVR8/USBController_AVR8.h **** 			 *  interface reset and re-enumeration.
 213:../../protocol/lufa/LUFA-120730/LUFA/Drivers/USB/Core/AVR8/../AVR8/USBController_AVR8.h **** 			 *
 214:../../protocol/lufa/LUFA-120730/LUFA/Drivers/USB/Core/AVR8/../AVR8/USBController_AVR8.h **** 			 *  \param[in] Mode     This is a mask indicating what mode the USB interface is to be initializ
 215:../../protocol/lufa/LUFA-120730/LUFA/Drivers/USB/Core/AVR8/../AVR8/USBController_AVR8.h **** 			 *                      from the \ref USB_Modes_t enum.
 216:../../protocol/lufa/LUFA-120730/LUFA/Drivers/USB/Core/AVR8/../AVR8/USBController_AVR8.h **** 			 *
 217:../../protocol/lufa/LUFA-120730/LUFA/Drivers/USB/Core/AVR8/../AVR8/USBController_AVR8.h **** 			 *  \param[in] Options  Mask indicating the options which should be used when initializing the U
 218:../../protocol/lufa/LUFA-120730/LUFA/Drivers/USB/Core/AVR8/../AVR8/USBController_AVR8.h **** 			 *                      interface to control the USB interface's behavior. This should be compri
 219:../../protocol/lufa/LUFA-120730/LUFA/Drivers/USB/Core/AVR8/../AVR8/USBController_AVR8.h **** 			 *                      a \c USB_OPT_REG_* mask to control the regulator, a \c USB_OPT_*_PLL mas
 220:../../protocol/lufa/LUFA-120730/LUFA/Drivers/USB/Core/AVR8/../AVR8/USBController_AVR8.h **** 			 *                      PLL, and a \c USB_DEVICE_OPT_* mask (when the device mode is enabled) to
 221:../../protocol/lufa/LUFA-120730/LUFA/Drivers/USB/Core/AVR8/../AVR8/USBController_AVR8.h **** 			 *                      mode speed.
 222:../../protocol/lufa/LUFA-120730/LUFA/Drivers/USB/Core/AVR8/../AVR8/USBController_AVR8.h **** 			 *
 223:../../protocol/lufa/LUFA-120730/LUFA/Drivers/USB/Core/AVR8/../AVR8/USBController_AVR8.h **** 			 *  \note To reduce the FLASH requirements of the library if only device or host mode is require
 224:../../protocol/lufa/LUFA-120730/LUFA/Drivers/USB/Core/AVR8/../AVR8/USBController_AVR8.h **** 			 *        the mode can be statically set in the project makefile by defining the token \c USB_DE
 225:../../protocol/lufa/LUFA-120730/LUFA/Drivers/USB/Core/AVR8/../AVR8/USBController_AVR8.h **** 			 *        (for device mode) or \c USB_HOST_ONLY (for host mode), passing the token to the compil
 226:../../protocol/lufa/LUFA-120730/LUFA/Drivers/USB/Core/AVR8/../AVR8/USBController_AVR8.h **** 			 *        via the -D switch. If the mode is statically set, this parameter does not exist in the
 227:../../protocol/lufa/LUFA-120730/LUFA/Drivers/USB/Core/AVR8/../AVR8/USBController_AVR8.h **** 			 *        function prototype.
 228:../../protocol/lufa/LUFA-120730/LUFA/Drivers/USB/Core/AVR8/../AVR8/USBController_AVR8.h **** 			 *        \n\n
 229:../../protocol/lufa/LUFA-120730/LUFA/Drivers/USB/Core/AVR8/../AVR8/USBController_AVR8.h **** 			 *
 230:../../protocol/lufa/LUFA-120730/LUFA/Drivers/USB/Core/AVR8/../AVR8/USBController_AVR8.h **** 			 *  \note To reduce the FLASH requirements of the library if only fixed settings are required,
 231:../../protocol/lufa/LUFA-120730/LUFA/Drivers/USB/Core/AVR8/../AVR8/USBController_AVR8.h **** 			 *        the options may be set statically in the same manner as the mode (see the Mode paramet
 232:../../protocol/lufa/LUFA-120730/LUFA/Drivers/USB/Core/AVR8/../AVR8/USBController_AVR8.h **** 			 *        this function). To statically set the USB options, pass in the \c USE_STATIC_OPTIONS t
 233:../../protocol/lufa/LUFA-120730/LUFA/Drivers/USB/Core/AVR8/../AVR8/USBController_AVR8.h **** 			 *        defined to the appropriate options masks. When the options are statically set, this
 234:../../protocol/lufa/LUFA-120730/LUFA/Drivers/USB/Core/AVR8/../AVR8/USBController_AVR8.h **** 			 *        parameter does not exist in the function prototype.
 235:../../protocol/lufa/LUFA-120730/LUFA/Drivers/USB/Core/AVR8/../AVR8/USBController_AVR8.h **** 			 *        \n\n
 236:../../protocol/lufa/LUFA-120730/LUFA/Drivers/USB/Core/AVR8/../AVR8/USBController_AVR8.h **** 			 *
 237:../../protocol/lufa/LUFA-120730/LUFA/Drivers/USB/Core/AVR8/../AVR8/USBController_AVR8.h **** 			 *  \note The mode parameter does not exist on devices where only one mode is possible, such as 
 238:../../protocol/lufa/LUFA-120730/LUFA/Drivers/USB/Core/AVR8/../AVR8/USBController_AVR8.h **** 			 *        AVR models which only implement the USB device mode in hardware.
 239:../../protocol/lufa/LUFA-120730/LUFA/Drivers/USB/Core/AVR8/../AVR8/USBController_AVR8.h **** 			 *
 240:../../protocol/lufa/LUFA-120730/LUFA/Drivers/USB/Core/AVR8/../AVR8/USBController_AVR8.h **** 			 *  \see \ref Group_Device for the \c USB_DEVICE_OPT_* masks.
 241:../../protocol/lufa/LUFA-120730/LUFA/Drivers/USB/Core/AVR8/../AVR8/USBController_AVR8.h **** 			 */
 242:../../protocol/lufa/LUFA-120730/LUFA/Drivers/USB/Core/AVR8/../AVR8/USBController_AVR8.h **** 			void USB_Init(
 243:../../protocol/lufa/LUFA-120730/LUFA/Drivers/USB/Core/AVR8/../AVR8/USBController_AVR8.h **** 			               #if defined(USB_CAN_BE_BOTH) || defined(__DOXYGEN__)
 244:../../protocol/lufa/LUFA-120730/LUFA/Drivers/USB/Core/AVR8/../AVR8/USBController_AVR8.h **** 			               const uint8_t Mode
 245:../../protocol/lufa/LUFA-120730/LUFA/Drivers/USB/Core/AVR8/../AVR8/USBController_AVR8.h **** 			               #endif
 246:../../protocol/lufa/LUFA-120730/LUFA/Drivers/USB/Core/AVR8/../AVR8/USBController_AVR8.h **** 
 247:../../protocol/lufa/LUFA-120730/LUFA/Drivers/USB/Core/AVR8/../AVR8/USBController_AVR8.h **** 			               #if (defined(USB_CAN_BE_BOTH) && !defined(USE_STATIC_OPTIONS)) || defined(__DOXYG
 248:../../protocol/lufa/LUFA-120730/LUFA/Drivers/USB/Core/AVR8/../AVR8/USBController_AVR8.h **** 			               ,
 249:../../protocol/lufa/LUFA-120730/LUFA/Drivers/USB/Core/AVR8/../AVR8/USBController_AVR8.h **** 			               #elif (!defined(USB_CAN_BE_BOTH) && defined(USE_STATIC_OPTIONS))
 250:../../protocol/lufa/LUFA-120730/LUFA/Drivers/USB/Core/AVR8/../AVR8/USBController_AVR8.h **** 			               void
 251:../../protocol/lufa/LUFA-120730/LUFA/Drivers/USB/Core/AVR8/../AVR8/USBController_AVR8.h **** 			               #endif
 252:../../protocol/lufa/LUFA-120730/LUFA/Drivers/USB/Core/AVR8/../AVR8/USBController_AVR8.h **** 
 253:../../protocol/lufa/LUFA-120730/LUFA/Drivers/USB/Core/AVR8/../AVR8/USBController_AVR8.h **** 			               #if !defined(USE_STATIC_OPTIONS) || defined(__DOXYGEN__)
 254:../../protocol/lufa/LUFA-120730/LUFA/Drivers/USB/Core/AVR8/../AVR8/USBController_AVR8.h **** 			               const uint8_t Options
 255:../../protocol/lufa/LUFA-120730/LUFA/Drivers/USB/Core/AVR8/../AVR8/USBController_AVR8.h **** 			               #endif
 256:../../protocol/lufa/LUFA-120730/LUFA/Drivers/USB/Core/AVR8/../AVR8/USBController_AVR8.h **** 			               );
 257:../../protocol/lufa/LUFA-120730/LUFA/Drivers/USB/Core/AVR8/../AVR8/USBController_AVR8.h **** 
 258:../../protocol/lufa/LUFA-120730/LUFA/Drivers/USB/Core/AVR8/../AVR8/USBController_AVR8.h **** 			/** Shuts down the USB interface. This turns off the USB interface after deallocating all USB FI
 259:../../protocol/lufa/LUFA-120730/LUFA/Drivers/USB/Core/AVR8/../AVR8/USBController_AVR8.h **** 			 *  memory, endpoints and pipes. When turned off, no USB functionality can be used until the int
 260:../../protocol/lufa/LUFA-120730/LUFA/Drivers/USB/Core/AVR8/../AVR8/USBController_AVR8.h **** 			 *  is restarted with the \ref USB_Init() function.
 261:../../protocol/lufa/LUFA-120730/LUFA/Drivers/USB/Core/AVR8/../AVR8/USBController_AVR8.h **** 			 */
 262:../../protocol/lufa/LUFA-120730/LUFA/Drivers/USB/Core/AVR8/../AVR8/USBController_AVR8.h **** 			void USB_Disable(void);
 263:../../protocol/lufa/LUFA-120730/LUFA/Drivers/USB/Core/AVR8/../AVR8/USBController_AVR8.h **** 
 264:../../protocol/lufa/LUFA-120730/LUFA/Drivers/USB/Core/AVR8/../AVR8/USBController_AVR8.h **** 			/** Resets the interface, when already initialized. This will re-enumerate the device if already
 265:../../protocol/lufa/LUFA-120730/LUFA/Drivers/USB/Core/AVR8/../AVR8/USBController_AVR8.h **** 			 *  to a host, or re-enumerate an already attached device when in host mode.
 266:../../protocol/lufa/LUFA-120730/LUFA/Drivers/USB/Core/AVR8/../AVR8/USBController_AVR8.h **** 			 */
 267:../../protocol/lufa/LUFA-120730/LUFA/Drivers/USB/Core/AVR8/../AVR8/USBController_AVR8.h **** 			void USB_ResetInterface(void);
 268:../../protocol/lufa/LUFA-120730/LUFA/Drivers/USB/Core/AVR8/../AVR8/USBController_AVR8.h **** 
 269:../../protocol/lufa/LUFA-120730/LUFA/Drivers/USB/Core/AVR8/../AVR8/USBController_AVR8.h **** 		/* Global Variables: */
 270:../../protocol/lufa/LUFA-120730/LUFA/Drivers/USB/Core/AVR8/../AVR8/USBController_AVR8.h **** 			#if (!defined(USB_HOST_ONLY) && !defined(USB_DEVICE_ONLY)) || defined(__DOXYGEN__)
 271:../../protocol/lufa/LUFA-120730/LUFA/Drivers/USB/Core/AVR8/../AVR8/USBController_AVR8.h **** 				/** Indicates the mode that the USB interface is currently initialized to, a value from the
 272:../../protocol/lufa/LUFA-120730/LUFA/Drivers/USB/Core/AVR8/../AVR8/USBController_AVR8.h **** 				 *  \ref USB_Modes_t enum.
 273:../../protocol/lufa/LUFA-120730/LUFA/Drivers/USB/Core/AVR8/../AVR8/USBController_AVR8.h **** 				 *
 274:../../protocol/lufa/LUFA-120730/LUFA/Drivers/USB/Core/AVR8/../AVR8/USBController_AVR8.h **** 				 *  \attention This variable should be treated as read-only in the user application, and never 
 275:../../protocol/lufa/LUFA-120730/LUFA/Drivers/USB/Core/AVR8/../AVR8/USBController_AVR8.h **** 				 *             changed in value.
 276:../../protocol/lufa/LUFA-120730/LUFA/Drivers/USB/Core/AVR8/../AVR8/USBController_AVR8.h **** 				 *
 277:../../protocol/lufa/LUFA-120730/LUFA/Drivers/USB/Core/AVR8/../AVR8/USBController_AVR8.h **** 				 *  \note When the controller is initialized into UID auto-detection mode, this variable will h
 278:../../protocol/lufa/LUFA-120730/LUFA/Drivers/USB/Core/AVR8/../AVR8/USBController_AVR8.h **** 				 *        currently selected USB mode (i.e. \ref USB_MODE_Device or \ref USB_MODE_Host). If the
 279:../../protocol/lufa/LUFA-120730/LUFA/Drivers/USB/Core/AVR8/../AVR8/USBController_AVR8.h **** 				 *        is fixed into a specific mode (either through the \c USB_DEVICE_ONLY or \c USB_HOST_O
 280:../../protocol/lufa/LUFA-120730/LUFA/Drivers/USB/Core/AVR8/../AVR8/USBController_AVR8.h **** 				 *        options, or a limitation of the USB controller in the chosen device model) this will 
 281:../../protocol/lufa/LUFA-120730/LUFA/Drivers/USB/Core/AVR8/../AVR8/USBController_AVR8.h **** 				 *        a constant of the appropriate value and will never evaluate to \ref USB_MODE_None eve
 282:../../protocol/lufa/LUFA-120730/LUFA/Drivers/USB/Core/AVR8/../AVR8/USBController_AVR8.h **** 				 *        USB interface is not initialized.
 283:../../protocol/lufa/LUFA-120730/LUFA/Drivers/USB/Core/AVR8/../AVR8/USBController_AVR8.h **** 				 */
 284:../../protocol/lufa/LUFA-120730/LUFA/Drivers/USB/Core/AVR8/../AVR8/USBController_AVR8.h **** 				extern volatile uint8_t USB_CurrentMode;
 285:../../protocol/lufa/LUFA-120730/LUFA/Drivers/USB/Core/AVR8/../AVR8/USBController_AVR8.h **** 			#elif defined(USB_HOST_ONLY)
 286:../../protocol/lufa/LUFA-120730/LUFA/Drivers/USB/Core/AVR8/../AVR8/USBController_AVR8.h **** 				#define USB_CurrentMode USB_MODE_Host
 287:../../protocol/lufa/LUFA-120730/LUFA/Drivers/USB/Core/AVR8/../AVR8/USBController_AVR8.h **** 			#elif defined(USB_DEVICE_ONLY)
 288:../../protocol/lufa/LUFA-120730/LUFA/Drivers/USB/Core/AVR8/../AVR8/USBController_AVR8.h **** 				#define USB_CurrentMode USB_MODE_Device
 289:../../protocol/lufa/LUFA-120730/LUFA/Drivers/USB/Core/AVR8/../AVR8/USBController_AVR8.h **** 			#endif
 290:../../protocol/lufa/LUFA-120730/LUFA/Drivers/USB/Core/AVR8/../AVR8/USBController_AVR8.h **** 
 291:../../protocol/lufa/LUFA-120730/LUFA/Drivers/USB/Core/AVR8/../AVR8/USBController_AVR8.h **** 			#if !defined(USE_STATIC_OPTIONS) || defined(__DOXYGEN__)
 292:../../protocol/lufa/LUFA-120730/LUFA/Drivers/USB/Core/AVR8/../AVR8/USBController_AVR8.h **** 				/** Indicates the current USB options that the USB interface was initialized with when \ref USB
 293:../../protocol/lufa/LUFA-120730/LUFA/Drivers/USB/Core/AVR8/../AVR8/USBController_AVR8.h **** 				 *  was called. This value will be one of the \c USB_MODE_* masks defined elsewhere in this mod
 294:../../protocol/lufa/LUFA-120730/LUFA/Drivers/USB/Core/AVR8/../AVR8/USBController_AVR8.h **** 				 *
 295:../../protocol/lufa/LUFA-120730/LUFA/Drivers/USB/Core/AVR8/../AVR8/USBController_AVR8.h **** 				 *  \attention This variable should be treated as read-only in the user application, and never 
 296:../../protocol/lufa/LUFA-120730/LUFA/Drivers/USB/Core/AVR8/../AVR8/USBController_AVR8.h **** 				 *             changed in value.
 297:../../protocol/lufa/LUFA-120730/LUFA/Drivers/USB/Core/AVR8/../AVR8/USBController_AVR8.h **** 				 */
 298:../../protocol/lufa/LUFA-120730/LUFA/Drivers/USB/Core/AVR8/../AVR8/USBController_AVR8.h **** 				extern volatile uint8_t USB_Options;
 299:../../protocol/lufa/LUFA-120730/LUFA/Drivers/USB/Core/AVR8/../AVR8/USBController_AVR8.h **** 			#elif defined(USE_STATIC_OPTIONS)
 300:../../protocol/lufa/LUFA-120730/LUFA/Drivers/USB/Core/AVR8/../AVR8/USBController_AVR8.h **** 				#define USB_Options USE_STATIC_OPTIONS
 301:../../protocol/lufa/LUFA-120730/LUFA/Drivers/USB/Core/AVR8/../AVR8/USBController_AVR8.h **** 			#endif
 302:../../protocol/lufa/LUFA-120730/LUFA/Drivers/USB/Core/AVR8/../AVR8/USBController_AVR8.h **** 
 303:../../protocol/lufa/LUFA-120730/LUFA/Drivers/USB/Core/AVR8/../AVR8/USBController_AVR8.h **** 		/* Enums: */
 304:../../protocol/lufa/LUFA-120730/LUFA/Drivers/USB/Core/AVR8/../AVR8/USBController_AVR8.h **** 			/** Enum for the possible USB controller modes, for initialization via \ref USB_Init() and indic
 305:../../protocol/lufa/LUFA-120730/LUFA/Drivers/USB/Core/AVR8/../AVR8/USBController_AVR8.h **** 			 *  user application via \ref USB_CurrentMode.
 306:../../protocol/lufa/LUFA-120730/LUFA/Drivers/USB/Core/AVR8/../AVR8/USBController_AVR8.h **** 			 */
 307:../../protocol/lufa/LUFA-120730/LUFA/Drivers/USB/Core/AVR8/../AVR8/USBController_AVR8.h **** 			enum USB_Modes_t
 308:../../protocol/lufa/LUFA-120730/LUFA/Drivers/USB/Core/AVR8/../AVR8/USBController_AVR8.h **** 			{
 309:../../protocol/lufa/LUFA-120730/LUFA/Drivers/USB/Core/AVR8/../AVR8/USBController_AVR8.h **** 				USB_MODE_None   = 0, /**< Indicates that the controller is currently not initialized in any spe
 310:../../protocol/lufa/LUFA-120730/LUFA/Drivers/USB/Core/AVR8/../AVR8/USBController_AVR8.h **** 				USB_MODE_Device = 1, /**< Indicates that the controller is currently initialized in USB Device 
 311:../../protocol/lufa/LUFA-120730/LUFA/Drivers/USB/Core/AVR8/../AVR8/USBController_AVR8.h **** 				USB_MODE_Host   = 2, /**< Indicates that the controller is currently initialized in USB Host mo
 312:../../protocol/lufa/LUFA-120730/LUFA/Drivers/USB/Core/AVR8/../AVR8/USBController_AVR8.h **** 				USB_MODE_UID    = 3, /**< Indicates that the controller should determine the USB mode from the 
 313:../../protocol/lufa/LUFA-120730/LUFA/Drivers/USB/Core/AVR8/../AVR8/USBController_AVR8.h **** 				                      *   USB connector.
 314:../../protocol/lufa/LUFA-120730/LUFA/Drivers/USB/Core/AVR8/../AVR8/USBController_AVR8.h **** 				                      */
 315:../../protocol/lufa/LUFA-120730/LUFA/Drivers/USB/Core/AVR8/../AVR8/USBController_AVR8.h **** 			};
 316:../../protocol/lufa/LUFA-120730/LUFA/Drivers/USB/Core/AVR8/../AVR8/USBController_AVR8.h **** 
 317:../../protocol/lufa/LUFA-120730/LUFA/Drivers/USB/Core/AVR8/../AVR8/USBController_AVR8.h **** 	/* Private Interface - For use in library only: */
 318:../../protocol/lufa/LUFA-120730/LUFA/Drivers/USB/Core/AVR8/../AVR8/USBController_AVR8.h **** 	#if !defined(__DOXYGEN__)
 319:../../protocol/lufa/LUFA-120730/LUFA/Drivers/USB/Core/AVR8/../AVR8/USBController_AVR8.h **** 		/* Function Prototypes: */
 320:../../protocol/lufa/LUFA-120730/LUFA/Drivers/USB/Core/AVR8/../AVR8/USBController_AVR8.h **** 			#if defined(__INCLUDE_FROM_USB_CONTROLLER_C)
 321:../../protocol/lufa/LUFA-120730/LUFA/Drivers/USB/Core/AVR8/../AVR8/USBController_AVR8.h **** 				#if defined(USB_CAN_BE_DEVICE)
 322:../../protocol/lufa/LUFA-120730/LUFA/Drivers/USB/Core/AVR8/../AVR8/USBController_AVR8.h **** 				static void USB_Init_Device(void);
 323:../../protocol/lufa/LUFA-120730/LUFA/Drivers/USB/Core/AVR8/../AVR8/USBController_AVR8.h **** 				#endif
 324:../../protocol/lufa/LUFA-120730/LUFA/Drivers/USB/Core/AVR8/../AVR8/USBController_AVR8.h **** 
 325:../../protocol/lufa/LUFA-120730/LUFA/Drivers/USB/Core/AVR8/../AVR8/USBController_AVR8.h **** 				#if defined(USB_CAN_BE_HOST)
 326:../../protocol/lufa/LUFA-120730/LUFA/Drivers/USB/Core/AVR8/../AVR8/USBController_AVR8.h **** 				static void USB_Init_Host(void);
 327:../../protocol/lufa/LUFA-120730/LUFA/Drivers/USB/Core/AVR8/../AVR8/USBController_AVR8.h **** 				#endif
 328:../../protocol/lufa/LUFA-120730/LUFA/Drivers/USB/Core/AVR8/../AVR8/USBController_AVR8.h **** 			#endif
 329:../../protocol/lufa/LUFA-120730/LUFA/Drivers/USB/Core/AVR8/../AVR8/USBController_AVR8.h **** 
 330:../../protocol/lufa/LUFA-120730/LUFA/Drivers/USB/Core/AVR8/../AVR8/USBController_AVR8.h **** 		/* Inline Functions: */
 331:../../protocol/lufa/LUFA-120730/LUFA/Drivers/USB/Core/AVR8/../AVR8/USBController_AVR8.h **** 			static inline void USB_PLL_On(void) ATTR_ALWAYS_INLINE;
 332:../../protocol/lufa/LUFA-120730/LUFA/Drivers/USB/Core/AVR8/../AVR8/USBController_AVR8.h **** 			static inline void USB_PLL_On(void)
 333:../../protocol/lufa/LUFA-120730/LUFA/Drivers/USB/Core/AVR8/../AVR8/USBController_AVR8.h **** 			{
 334:../../protocol/lufa/LUFA-120730/LUFA/Drivers/USB/Core/AVR8/../AVR8/USBController_AVR8.h **** 				PLLCSR = USB_PLL_PSC;
 335:../../protocol/lufa/LUFA-120730/LUFA/Drivers/USB/Core/AVR8/../AVR8/USBController_AVR8.h **** 				PLLCSR = (USB_PLL_PSC | (1 << PLLE));
 336:../../protocol/lufa/LUFA-120730/LUFA/Drivers/USB/Core/AVR8/../AVR8/USBController_AVR8.h **** 			}
 337:../../protocol/lufa/LUFA-120730/LUFA/Drivers/USB/Core/AVR8/../AVR8/USBController_AVR8.h **** 
 338:../../protocol/lufa/LUFA-120730/LUFA/Drivers/USB/Core/AVR8/../AVR8/USBController_AVR8.h **** 			static inline void USB_PLL_Off(void) ATTR_ALWAYS_INLINE;
 339:../../protocol/lufa/LUFA-120730/LUFA/Drivers/USB/Core/AVR8/../AVR8/USBController_AVR8.h **** 			static inline void USB_PLL_Off(void)
 340:../../protocol/lufa/LUFA-120730/LUFA/Drivers/USB/Core/AVR8/../AVR8/USBController_AVR8.h **** 			{
 341:../../protocol/lufa/LUFA-120730/LUFA/Drivers/USB/Core/AVR8/../AVR8/USBController_AVR8.h **** 				PLLCSR = 0;
 342:../../protocol/lufa/LUFA-120730/LUFA/Drivers/USB/Core/AVR8/../AVR8/USBController_AVR8.h **** 			}
 343:../../protocol/lufa/LUFA-120730/LUFA/Drivers/USB/Core/AVR8/../AVR8/USBController_AVR8.h **** 
 344:../../protocol/lufa/LUFA-120730/LUFA/Drivers/USB/Core/AVR8/../AVR8/USBController_AVR8.h **** 			static inline bool USB_PLL_IsReady(void) ATTR_WARN_UNUSED_RESULT ATTR_ALWAYS_INLINE;
 345:../../protocol/lufa/LUFA-120730/LUFA/Drivers/USB/Core/AVR8/../AVR8/USBController_AVR8.h **** 			static inline bool USB_PLL_IsReady(void)
 346:../../protocol/lufa/LUFA-120730/LUFA/Drivers/USB/Core/AVR8/../AVR8/USBController_AVR8.h **** 			{
 347:../../protocol/lufa/LUFA-120730/LUFA/Drivers/USB/Core/AVR8/../AVR8/USBController_AVR8.h **** 				return ((PLLCSR & (1 << PLOCK)) ? true : false);
 348:../../protocol/lufa/LUFA-120730/LUFA/Drivers/USB/Core/AVR8/../AVR8/USBController_AVR8.h **** 			}
 349:../../protocol/lufa/LUFA-120730/LUFA/Drivers/USB/Core/AVR8/../AVR8/USBController_AVR8.h **** 
 350:../../protocol/lufa/LUFA-120730/LUFA/Drivers/USB/Core/AVR8/../AVR8/USBController_AVR8.h **** 			static inline void USB_REG_On(void) ATTR_ALWAYS_INLINE;
 351:../../protocol/lufa/LUFA-120730/LUFA/Drivers/USB/Core/AVR8/../AVR8/USBController_AVR8.h **** 			static inline void USB_REG_On(void)
 352:../../protocol/lufa/LUFA-120730/LUFA/Drivers/USB/Core/AVR8/../AVR8/USBController_AVR8.h **** 			{
 353:../../protocol/lufa/LUFA-120730/LUFA/Drivers/USB/Core/AVR8/../AVR8/USBController_AVR8.h **** 			#if defined(USB_SERIES_4_AVR) || defined(USB_SERIES_6_AVR) || defined(USB_SERIES_7_AVR)
 354:../../protocol/lufa/LUFA-120730/LUFA/Drivers/USB/Core/AVR8/../AVR8/USBController_AVR8.h **** 				UHWCON |=  (1 << UVREGE);
 355:../../protocol/lufa/LUFA-120730/LUFA/Drivers/USB/Core/AVR8/../AVR8/USBController_AVR8.h **** 			#else
 356:../../protocol/lufa/LUFA-120730/LUFA/Drivers/USB/Core/AVR8/../AVR8/USBController_AVR8.h **** 				REGCR  &= ~(1 << REGDIS);
 357:../../protocol/lufa/LUFA-120730/LUFA/Drivers/USB/Core/AVR8/../AVR8/USBController_AVR8.h **** 			#endif
 358:../../protocol/lufa/LUFA-120730/LUFA/Drivers/USB/Core/AVR8/../AVR8/USBController_AVR8.h **** 			}
 359:../../protocol/lufa/LUFA-120730/LUFA/Drivers/USB/Core/AVR8/../AVR8/USBController_AVR8.h **** 
 360:../../protocol/lufa/LUFA-120730/LUFA/Drivers/USB/Core/AVR8/../AVR8/USBController_AVR8.h **** 			static inline void USB_REG_Off(void) ATTR_ALWAYS_INLINE;
 361:../../protocol/lufa/LUFA-120730/LUFA/Drivers/USB/Core/AVR8/../AVR8/USBController_AVR8.h **** 			static inline void USB_REG_Off(void)
 362:../../protocol/lufa/LUFA-120730/LUFA/Drivers/USB/Core/AVR8/../AVR8/USBController_AVR8.h **** 			{
 363:../../protocol/lufa/LUFA-120730/LUFA/Drivers/USB/Core/AVR8/../AVR8/USBController_AVR8.h **** 			#if defined(USB_SERIES_4_AVR) || defined(USB_SERIES_6_AVR) || defined(USB_SERIES_7_AVR)
 364:../../protocol/lufa/LUFA-120730/LUFA/Drivers/USB/Core/AVR8/../AVR8/USBController_AVR8.h **** 				UHWCON &= ~(1 << UVREGE);
 365:../../protocol/lufa/LUFA-120730/LUFA/Drivers/USB/Core/AVR8/../AVR8/USBController_AVR8.h **** 			#else
 366:../../protocol/lufa/LUFA-120730/LUFA/Drivers/USB/Core/AVR8/../AVR8/USBController_AVR8.h **** 				REGCR  |=  (1 << REGDIS);
 367:../../protocol/lufa/LUFA-120730/LUFA/Drivers/USB/Core/AVR8/../AVR8/USBController_AVR8.h **** 			#endif
 368:../../protocol/lufa/LUFA-120730/LUFA/Drivers/USB/Core/AVR8/../AVR8/USBController_AVR8.h **** 			}
 369:../../protocol/lufa/LUFA-120730/LUFA/Drivers/USB/Core/AVR8/../AVR8/USBController_AVR8.h **** 
 370:../../protocol/lufa/LUFA-120730/LUFA/Drivers/USB/Core/AVR8/../AVR8/USBController_AVR8.h **** 			#if defined(USB_SERIES_4_AVR) || defined(USB_SERIES_6_AVR) || defined(USB_SERIES_7_AVR)
 371:../../protocol/lufa/LUFA-120730/LUFA/Drivers/USB/Core/AVR8/../AVR8/USBController_AVR8.h **** 			static inline void USB_OTGPAD_On(void) ATTR_ALWAYS_INLINE;
 372:../../protocol/lufa/LUFA-120730/LUFA/Drivers/USB/Core/AVR8/../AVR8/USBController_AVR8.h **** 			static inline void USB_OTGPAD_On(void)
 373:../../protocol/lufa/LUFA-120730/LUFA/Drivers/USB/Core/AVR8/../AVR8/USBController_AVR8.h **** 			{
 374:../../protocol/lufa/LUFA-120730/LUFA/Drivers/USB/Core/AVR8/../AVR8/USBController_AVR8.h **** 				USBCON |=  (1 << OTGPADE);
 375:../../protocol/lufa/LUFA-120730/LUFA/Drivers/USB/Core/AVR8/../AVR8/USBController_AVR8.h **** 			}
 376:../../protocol/lufa/LUFA-120730/LUFA/Drivers/USB/Core/AVR8/../AVR8/USBController_AVR8.h **** 
 377:../../protocol/lufa/LUFA-120730/LUFA/Drivers/USB/Core/AVR8/../AVR8/USBController_AVR8.h **** 			static inline void USB_OTGPAD_Off(void) ATTR_ALWAYS_INLINE;
 378:../../protocol/lufa/LUFA-120730/LUFA/Drivers/USB/Core/AVR8/../AVR8/USBController_AVR8.h **** 			static inline void USB_OTGPAD_Off(void)
 379:../../protocol/lufa/LUFA-120730/LUFA/Drivers/USB/Core/AVR8/../AVR8/USBController_AVR8.h **** 			{
 380:../../protocol/lufa/LUFA-120730/LUFA/Drivers/USB/Core/AVR8/../AVR8/USBController_AVR8.h **** 				USBCON &= ~(1 << OTGPADE);
 381:../../protocol/lufa/LUFA-120730/LUFA/Drivers/USB/Core/AVR8/../AVR8/USBController_AVR8.h **** 			}
 382:../../protocol/lufa/LUFA-120730/LUFA/Drivers/USB/Core/AVR8/../AVR8/USBController_AVR8.h **** 			#endif
 383:../../protocol/lufa/LUFA-120730/LUFA/Drivers/USB/Core/AVR8/../AVR8/USBController_AVR8.h **** 
 384:../../protocol/lufa/LUFA-120730/LUFA/Drivers/USB/Core/AVR8/../AVR8/USBController_AVR8.h **** 			static inline void USB_CLK_Freeze(void) ATTR_ALWAYS_INLINE;
 385:../../protocol/lufa/LUFA-120730/LUFA/Drivers/USB/Core/AVR8/../AVR8/USBController_AVR8.h **** 			static inline void USB_CLK_Freeze(void)
 386:../../protocol/lufa/LUFA-120730/LUFA/Drivers/USB/Core/AVR8/../AVR8/USBController_AVR8.h **** 			{
 387:../../protocol/lufa/LUFA-120730/LUFA/Drivers/USB/Core/AVR8/../AVR8/USBController_AVR8.h **** 				USBCON |=  (1 << FRZCLK);
 388:../../protocol/lufa/LUFA-120730/LUFA/Drivers/USB/Core/AVR8/../AVR8/USBController_AVR8.h **** 			}
 389:../../protocol/lufa/LUFA-120730/LUFA/Drivers/USB/Core/AVR8/../AVR8/USBController_AVR8.h **** 
 390:../../protocol/lufa/LUFA-120730/LUFA/Drivers/USB/Core/AVR8/../AVR8/USBController_AVR8.h **** 			static inline void USB_CLK_Unfreeze(void) ATTR_ALWAYS_INLINE;
 391:../../protocol/lufa/LUFA-120730/LUFA/Drivers/USB/Core/AVR8/../AVR8/USBController_AVR8.h **** 			static inline void USB_CLK_Unfreeze(void)
 392:../../protocol/lufa/LUFA-120730/LUFA/Drivers/USB/Core/AVR8/../AVR8/USBController_AVR8.h **** 			{
 393:../../protocol/lufa/LUFA-120730/LUFA/Drivers/USB/Core/AVR8/../AVR8/USBController_AVR8.h **** 				USBCON &= ~(1 << FRZCLK);
 394:../../protocol/lufa/LUFA-120730/LUFA/Drivers/USB/Core/AVR8/../AVR8/USBController_AVR8.h **** 			}
 395:../../protocol/lufa/LUFA-120730/LUFA/Drivers/USB/Core/AVR8/../AVR8/USBController_AVR8.h **** 
 396:../../protocol/lufa/LUFA-120730/LUFA/Drivers/USB/Core/AVR8/../AVR8/USBController_AVR8.h **** 			static inline void USB_Controller_Enable(void) ATTR_ALWAYS_INLINE;
 397:../../protocol/lufa/LUFA-120730/LUFA/Drivers/USB/Core/AVR8/../AVR8/USBController_AVR8.h **** 			static inline void USB_Controller_Enable(void)
 398:../../protocol/lufa/LUFA-120730/LUFA/Drivers/USB/Core/AVR8/../AVR8/USBController_AVR8.h **** 			{
 399:../../protocol/lufa/LUFA-120730/LUFA/Drivers/USB/Core/AVR8/../AVR8/USBController_AVR8.h **** 				USBCON |=  (1 << USBE);
 400:../../protocol/lufa/LUFA-120730/LUFA/Drivers/USB/Core/AVR8/../AVR8/USBController_AVR8.h **** 			}
 401:../../protocol/lufa/LUFA-120730/LUFA/Drivers/USB/Core/AVR8/../AVR8/USBController_AVR8.h **** 
 402:../../protocol/lufa/LUFA-120730/LUFA/Drivers/USB/Core/AVR8/../AVR8/USBController_AVR8.h **** 			static inline void USB_Controller_Disable(void) ATTR_ALWAYS_INLINE;
 403:../../protocol/lufa/LUFA-120730/LUFA/Drivers/USB/Core/AVR8/../AVR8/USBController_AVR8.h **** 			static inline void USB_Controller_Disable(void)
 404:../../protocol/lufa/LUFA-120730/LUFA/Drivers/USB/Core/AVR8/../AVR8/USBController_AVR8.h **** 			{
 405:../../protocol/lufa/LUFA-120730/LUFA/Drivers/USB/Core/AVR8/../AVR8/USBController_AVR8.h **** 				USBCON &= ~(1 << USBE);
  41               		.loc 2 405 0
  42 0012 E8ED      		ldi r30,lo8(-40)
  43 0014 F0E0      		ldi r31,0
  44 0016 8081      		ld r24,Z
  45 0018 8F77      		andi r24,lo8(127)
  46 001a 8083      		st Z,r24
  47               	.LBE43:
  48               	.LBE42:
  49               	.LBB44:
  50               	.LBB45:
 341:../../protocol/lufa/LUFA-120730/LUFA/Drivers/USB/Core/AVR8/../AVR8/USBController_AVR8.h **** 				PLLCSR = 0;
  51               		.loc 2 341 0
  52 001c 19BC      		out 0x29,__zero_reg__
  53               	.LBE45:
  54               	.LBE44:
  55               	.LBB46:
  56               	.LBB47:
 364:../../protocol/lufa/LUFA-120730/LUFA/Drivers/USB/Core/AVR8/../AVR8/USBController_AVR8.h **** 				UHWCON &= ~(1 << UVREGE);
  57               		.loc 2 364 0
  58 001e A7ED      		ldi r26,lo8(-41)
  59 0020 B0E0      		ldi r27,0
  60 0022 8C91      		ld r24,X
  61 0024 8E7F      		andi r24,lo8(-2)
  62 0026 8C93      		st X,r24
  63               	.LBE47:
  64               	.LBE46:
  65               	.LBB48:
  66               	.LBB49:
 380:../../protocol/lufa/LUFA-120730/LUFA/Drivers/USB/Core/AVR8/../AVR8/USBController_AVR8.h **** 				USBCON &= ~(1 << OTGPADE);
  67               		.loc 2 380 0
  68 0028 8081      		ld r24,Z
  69 002a 8F7E      		andi r24,lo8(-17)
  70 002c 8083      		st Z,r24
  71               	.LBE49:
  72               	.LBE48:
 101:../../protocol/lufa/LUFA-120730/LUFA/Drivers/USB/Core/AVR8/USBController_AVR8.c **** 
 102:../../protocol/lufa/LUFA-120730/LUFA/Drivers/USB/Core/AVR8/USBController_AVR8.c **** 	USB_Detach();
 103:../../protocol/lufa/LUFA-120730/LUFA/Drivers/USB/Core/AVR8/USBController_AVR8.c **** 	USB_Controller_Disable();
 104:../../protocol/lufa/LUFA-120730/LUFA/Drivers/USB/Core/AVR8/USBController_AVR8.c **** 
 105:../../protocol/lufa/LUFA-120730/LUFA/Drivers/USB/Core/AVR8/USBController_AVR8.c **** 	if (!(USB_Options & USB_OPT_MANUAL_PLL))
 106:../../protocol/lufa/LUFA-120730/LUFA/Drivers/USB/Core/AVR8/USBController_AVR8.c **** 	  USB_PLL_Off();
 107:../../protocol/lufa/LUFA-120730/LUFA/Drivers/USB/Core/AVR8/USBController_AVR8.c **** 
 108:../../protocol/lufa/LUFA-120730/LUFA/Drivers/USB/Core/AVR8/USBController_AVR8.c **** 	USB_REG_Off();
 109:../../protocol/lufa/LUFA-120730/LUFA/Drivers/USB/Core/AVR8/USBController_AVR8.c **** 
 110:../../protocol/lufa/LUFA-120730/LUFA/Drivers/USB/Core/AVR8/USBController_AVR8.c **** 	#if defined(USB_SERIES_4_AVR) || defined(USB_SERIES_6_AVR) || defined(USB_SERIES_7_AVR)
 111:../../protocol/lufa/LUFA-120730/LUFA/Drivers/USB/Core/AVR8/USBController_AVR8.c **** 	USB_OTGPAD_Off();
 112:../../protocol/lufa/LUFA-120730/LUFA/Drivers/USB/Core/AVR8/USBController_AVR8.c **** 	#endif
 113:../../protocol/lufa/LUFA-120730/LUFA/Drivers/USB/Core/AVR8/USBController_AVR8.c **** 
 114:../../protocol/lufa/LUFA-120730/LUFA/Drivers/USB/Core/AVR8/USBController_AVR8.c **** 	#if defined(USB_CAN_BE_BOTH)
 115:../../protocol/lufa/LUFA-120730/LUFA/Drivers/USB/Core/AVR8/USBController_AVR8.c **** 	USB_CurrentMode = USB_MODE_None;
 116:../../protocol/lufa/LUFA-120730/LUFA/Drivers/USB/Core/AVR8/USBController_AVR8.c **** 	#endif
 117:../../protocol/lufa/LUFA-120730/LUFA/Drivers/USB/Core/AVR8/USBController_AVR8.c **** 
 118:../../protocol/lufa/LUFA-120730/LUFA/Drivers/USB/Core/AVR8/USBController_AVR8.c **** 	USB_IsInitialized = false;
  73               		.loc 1 118 0
  74 002e 1092 0000 		sts USB_IsInitialized,__zero_reg__
  75 0032 0895      		ret
  76               		.cfi_endproc
  77               	.LFE85:
  79               		.section	.text.USB_ResetInterface,"ax",@progbits
  80               	.global	USB_ResetInterface
  82               	USB_ResetInterface:
  83               	.LFB86:
 119:../../protocol/lufa/LUFA-120730/LUFA/Drivers/USB/Core/AVR8/USBController_AVR8.c **** }
 120:../../protocol/lufa/LUFA-120730/LUFA/Drivers/USB/Core/AVR8/USBController_AVR8.c **** 
 121:../../protocol/lufa/LUFA-120730/LUFA/Drivers/USB/Core/AVR8/USBController_AVR8.c **** void USB_ResetInterface(void)
 122:../../protocol/lufa/LUFA-120730/LUFA/Drivers/USB/Core/AVR8/USBController_AVR8.c **** {
  84               		.loc 1 122 0
  85               		.cfi_startproc
  86 0000 0F93      		push r16
  87               	.LCFI0:
  88               		.cfi_def_cfa_offset 3
  89               		.cfi_offset 16, -2
  90 0002 1F93      		push r17
  91               	.LCFI1:
  92               		.cfi_def_cfa_offset 4
  93               		.cfi_offset 17, -3
  94 0004 CF93      		push r28
  95               	.LCFI2:
  96               		.cfi_def_cfa_offset 5
  97               		.cfi_offset 28, -4
  98 0006 DF93      		push r29
  99               	.LCFI3:
 100               		.cfi_def_cfa_offset 6
 101               		.cfi_offset 29, -5
 102               	/* prologue: function */
 103               	/* frame size = 0 */
 104               	/* stack size = 4 */
 105               	.L__stack_usage = 4
 123:../../protocol/lufa/LUFA-120730/LUFA/Drivers/USB/Core/AVR8/USBController_AVR8.c **** 	#if defined(USB_CAN_BE_BOTH)
 124:../../protocol/lufa/LUFA-120730/LUFA/Drivers/USB/Core/AVR8/USBController_AVR8.c **** 	bool UIDModeSelectEnabled = ((UHWCON & (1 << UIDE)) != 0);
 125:../../protocol/lufa/LUFA-120730/LUFA/Drivers/USB/Core/AVR8/USBController_AVR8.c **** 	#endif
 126:../../protocol/lufa/LUFA-120730/LUFA/Drivers/USB/Core/AVR8/USBController_AVR8.c **** 
 127:../../protocol/lufa/LUFA-120730/LUFA/Drivers/USB/Core/AVR8/USBController_AVR8.c **** 	USB_INT_DisableAllInterrupts();
 106               		.loc 1 127 0
 107 0008 0E94 0000 		call USB_INT_DisableAllInterrupts
 108               	.LVL2:
 128:../../protocol/lufa/LUFA-120730/LUFA/Drivers/USB/Core/AVR8/USBController_AVR8.c **** 	USB_INT_ClearAllInterrupts();
 109               		.loc 1 128 0
 110 000c 0E94 0000 		call USB_INT_ClearAllInterrupts
 111               	.LVL3:
 112               	.LBB74:
 113               	.LBB75:
 406:../../protocol/lufa/LUFA-120730/LUFA/Drivers/USB/Core/AVR8/../AVR8/USBController_AVR8.h **** 			}
 407:../../protocol/lufa/LUFA-120730/LUFA/Drivers/USB/Core/AVR8/../AVR8/USBController_AVR8.h **** 
 408:../../protocol/lufa/LUFA-120730/LUFA/Drivers/USB/Core/AVR8/../AVR8/USBController_AVR8.h **** 			static inline void USB_Controller_Reset(void) ATTR_ALWAYS_INLINE;
 409:../../protocol/lufa/LUFA-120730/LUFA/Drivers/USB/Core/AVR8/../AVR8/USBController_AVR8.h **** 			static inline void USB_Controller_Reset(void)
 410:../../protocol/lufa/LUFA-120730/LUFA/Drivers/USB/Core/AVR8/../AVR8/USBController_AVR8.h **** 			{
 411:../../protocol/lufa/LUFA-120730/LUFA/Drivers/USB/Core/AVR8/../AVR8/USBController_AVR8.h **** 				USBCON &= ~(1 << USBE);
 114               		.loc 2 411 0
 115 0010 C8ED      		ldi r28,lo8(-40)
 116 0012 D0E0      		ldi r29,0
 117 0014 8881      		ld r24,Y
 118 0016 8F77      		andi r24,lo8(127)
 119 0018 8883      		st Y,r24
 412:../../protocol/lufa/LUFA-120730/LUFA/Drivers/USB/Core/AVR8/../AVR8/USBController_AVR8.h **** 				USBCON |=  (1 << USBE);
 120               		.loc 2 412 0
 121 001a 8881      		ld r24,Y
 122 001c 8068      		ori r24,lo8(-128)
 123 001e 8883      		st Y,r24
 124               	.LBE75:
 125               	.LBE74:
 126               	.LBB76:
 127               	.LBB77:
 393:../../protocol/lufa/LUFA-120730/LUFA/Drivers/USB/Core/AVR8/../AVR8/USBController_AVR8.h **** 				USBCON &= ~(1 << FRZCLK);
 128               		.loc 2 393 0
 129 0020 8881      		ld r24,Y
 130 0022 8F7D      		andi r24,lo8(-33)
 131 0024 8883      		st Y,r24
 132               	.LBE77:
 133               	.LBE76:
 134               	.LBB78:
 135               	.LBB79:
 341:../../protocol/lufa/LUFA-120730/LUFA/Drivers/USB/Core/AVR8/../AVR8/USBController_AVR8.h **** 				PLLCSR = 0;
 136               		.loc 2 341 0
 137 0026 19BC      		out 0x29,__zero_reg__
 138               	.LBE79:
 139               	.LBE78:
 140               	.LBB80:
 141               	.LBB81:
 129:../../protocol/lufa/LUFA-120730/LUFA/Drivers/USB/Core/AVR8/USBController_AVR8.c **** 
 130:../../protocol/lufa/LUFA-120730/LUFA/Drivers/USB/Core/AVR8/USBController_AVR8.c **** 	USB_Controller_Reset();
 131:../../protocol/lufa/LUFA-120730/LUFA/Drivers/USB/Core/AVR8/USBController_AVR8.c **** 
 132:../../protocol/lufa/LUFA-120730/LUFA/Drivers/USB/Core/AVR8/USBController_AVR8.c **** 	#if defined(USB_CAN_BE_BOTH)
 133:../../protocol/lufa/LUFA-120730/LUFA/Drivers/USB/Core/AVR8/USBController_AVR8.c **** 	if (UIDModeSelectEnabled)
 134:../../protocol/lufa/LUFA-120730/LUFA/Drivers/USB/Core/AVR8/USBController_AVR8.c **** 	  USB_INT_Enable(USB_INT_IDTI);
 135:../../protocol/lufa/LUFA-120730/LUFA/Drivers/USB/Core/AVR8/USBController_AVR8.c **** 	#endif
 136:../../protocol/lufa/LUFA-120730/LUFA/Drivers/USB/Core/AVR8/USBController_AVR8.c **** 
 137:../../protocol/lufa/LUFA-120730/LUFA/Drivers/USB/Core/AVR8/USBController_AVR8.c **** 	USB_CLK_Unfreeze();
 138:../../protocol/lufa/LUFA-120730/LUFA/Drivers/USB/Core/AVR8/USBController_AVR8.c **** 
 139:../../protocol/lufa/LUFA-120730/LUFA/Drivers/USB/Core/AVR8/USBController_AVR8.c **** 	if (USB_CurrentMode == USB_MODE_Device)
 140:../../protocol/lufa/LUFA-120730/LUFA/Drivers/USB/Core/AVR8/USBController_AVR8.c **** 	{
 141:../../protocol/lufa/LUFA-120730/LUFA/Drivers/USB/Core/AVR8/USBController_AVR8.c **** 		#if defined(USB_CAN_BE_DEVICE)
 142:../../protocol/lufa/LUFA-120730/LUFA/Drivers/USB/Core/AVR8/USBController_AVR8.c **** 		#if (defined(USB_SERIES_6_AVR) || defined(USB_SERIES_7_AVR))
 143:../../protocol/lufa/LUFA-120730/LUFA/Drivers/USB/Core/AVR8/USBController_AVR8.c **** 		UHWCON |=  (1 << UIMOD);
 144:../../protocol/lufa/LUFA-120730/LUFA/Drivers/USB/Core/AVR8/USBController_AVR8.c **** 		#endif
 145:../../protocol/lufa/LUFA-120730/LUFA/Drivers/USB/Core/AVR8/USBController_AVR8.c **** 
 146:../../protocol/lufa/LUFA-120730/LUFA/Drivers/USB/Core/AVR8/USBController_AVR8.c **** 		if (!(USB_Options & USB_OPT_MANUAL_PLL))
 147:../../protocol/lufa/LUFA-120730/LUFA/Drivers/USB/Core/AVR8/USBController_AVR8.c **** 		{
 148:../../protocol/lufa/LUFA-120730/LUFA/Drivers/USB/Core/AVR8/USBController_AVR8.c **** 			#if defined(USB_SERIES_2_AVR)
 149:../../protocol/lufa/LUFA-120730/LUFA/Drivers/USB/Core/AVR8/USBController_AVR8.c **** 			USB_PLL_On();
 150:../../protocol/lufa/LUFA-120730/LUFA/Drivers/USB/Core/AVR8/USBController_AVR8.c **** 			while (!(USB_PLL_IsReady()));
 151:../../protocol/lufa/LUFA-120730/LUFA/Drivers/USB/Core/AVR8/USBController_AVR8.c **** 			#else
 152:../../protocol/lufa/LUFA-120730/LUFA/Drivers/USB/Core/AVR8/USBController_AVR8.c **** 			USB_PLL_Off();
 153:../../protocol/lufa/LUFA-120730/LUFA/Drivers/USB/Core/AVR8/USBController_AVR8.c **** 			#endif
 154:../../protocol/lufa/LUFA-120730/LUFA/Drivers/USB/Core/AVR8/USBController_AVR8.c **** 		}
 155:../../protocol/lufa/LUFA-120730/LUFA/Drivers/USB/Core/AVR8/USBController_AVR8.c **** 
 156:../../protocol/lufa/LUFA-120730/LUFA/Drivers/USB/Core/AVR8/USBController_AVR8.c **** 		USB_Init_Device();
 157:../../protocol/lufa/LUFA-120730/LUFA/Drivers/USB/Core/AVR8/USBController_AVR8.c **** 		#endif
 158:../../protocol/lufa/LUFA-120730/LUFA/Drivers/USB/Core/AVR8/USBController_AVR8.c **** 	}
 159:../../protocol/lufa/LUFA-120730/LUFA/Drivers/USB/Core/AVR8/USBController_AVR8.c **** 	else if (USB_CurrentMode == USB_MODE_Host)
 160:../../protocol/lufa/LUFA-120730/LUFA/Drivers/USB/Core/AVR8/USBController_AVR8.c **** 	{
 161:../../protocol/lufa/LUFA-120730/LUFA/Drivers/USB/Core/AVR8/USBController_AVR8.c **** 		#if defined(USB_CAN_BE_HOST)
 162:../../protocol/lufa/LUFA-120730/LUFA/Drivers/USB/Core/AVR8/USBController_AVR8.c **** 		UHWCON &= ~(1 << UIMOD);
 163:../../protocol/lufa/LUFA-120730/LUFA/Drivers/USB/Core/AVR8/USBController_AVR8.c **** 
 164:../../protocol/lufa/LUFA-120730/LUFA/Drivers/USB/Core/AVR8/USBController_AVR8.c **** 		if (!(USB_Options & USB_OPT_MANUAL_PLL))
 165:../../protocol/lufa/LUFA-120730/LUFA/Drivers/USB/Core/AVR8/USBController_AVR8.c **** 		{
 166:../../protocol/lufa/LUFA-120730/LUFA/Drivers/USB/Core/AVR8/USBController_AVR8.c **** 			#if defined(USB_CAN_BE_HOST)
 167:../../protocol/lufa/LUFA-120730/LUFA/Drivers/USB/Core/AVR8/USBController_AVR8.c **** 			USB_PLL_On();
 168:../../protocol/lufa/LUFA-120730/LUFA/Drivers/USB/Core/AVR8/USBController_AVR8.c **** 			while (!(USB_PLL_IsReady()));
 169:../../protocol/lufa/LUFA-120730/LUFA/Drivers/USB/Core/AVR8/USBController_AVR8.c **** 			#endif
 170:../../protocol/lufa/LUFA-120730/LUFA/Drivers/USB/Core/AVR8/USBController_AVR8.c **** 		}
 171:../../protocol/lufa/LUFA-120730/LUFA/Drivers/USB/Core/AVR8/USBController_AVR8.c **** 
 172:../../protocol/lufa/LUFA-120730/LUFA/Drivers/USB/Core/AVR8/USBController_AVR8.c **** 		USB_Init_Host();
 173:../../protocol/lufa/LUFA-120730/LUFA/Drivers/USB/Core/AVR8/USBController_AVR8.c **** 		#endif
 174:../../protocol/lufa/LUFA-120730/LUFA/Drivers/USB/Core/AVR8/USBController_AVR8.c **** 	}
 175:../../protocol/lufa/LUFA-120730/LUFA/Drivers/USB/Core/AVR8/USBController_AVR8.c **** 
 176:../../protocol/lufa/LUFA-120730/LUFA/Drivers/USB/Core/AVR8/USBController_AVR8.c **** 	#if (defined(USB_SERIES_4_AVR) || defined(USB_SERIES_6_AVR) || defined(USB_SERIES_7_AVR))
 177:../../protocol/lufa/LUFA-120730/LUFA/Drivers/USB/Core/AVR8/USBController_AVR8.c **** 	USB_OTGPAD_On();
 178:../../protocol/lufa/LUFA-120730/LUFA/Drivers/USB/Core/AVR8/USBController_AVR8.c **** 	#endif
 179:../../protocol/lufa/LUFA-120730/LUFA/Drivers/USB/Core/AVR8/USBController_AVR8.c **** }
 180:../../protocol/lufa/LUFA-120730/LUFA/Drivers/USB/Core/AVR8/USBController_AVR8.c **** 
 181:../../protocol/lufa/LUFA-120730/LUFA/Drivers/USB/Core/AVR8/USBController_AVR8.c **** #if defined(USB_CAN_BE_DEVICE)
 182:../../protocol/lufa/LUFA-120730/LUFA/Drivers/USB/Core/AVR8/USBController_AVR8.c **** static void USB_Init_Device(void)
 183:../../protocol/lufa/LUFA-120730/LUFA/Drivers/USB/Core/AVR8/USBController_AVR8.c **** {
 184:../../protocol/lufa/LUFA-120730/LUFA/Drivers/USB/Core/AVR8/USBController_AVR8.c **** 	USB_DeviceState                 = DEVICE_STATE_Unattached;
 142               		.loc 1 184 0
 143 0028 1092 0000 		sts USB_DeviceState,__zero_reg__
 185:../../protocol/lufa/LUFA-120730/LUFA/Drivers/USB/Core/AVR8/USBController_AVR8.c **** 	USB_Device_ConfigurationNumber  = 0;
 144               		.loc 1 185 0
 145 002c 1092 0000 		sts USB_Device_ConfigurationNumber,__zero_reg__
 186:../../protocol/lufa/LUFA-120730/LUFA/Drivers/USB/Core/AVR8/USBController_AVR8.c **** 
 187:../../protocol/lufa/LUFA-120730/LUFA/Drivers/USB/Core/AVR8/USBController_AVR8.c **** 	#if !defined(NO_DEVICE_REMOTE_WAKEUP)
 188:../../protocol/lufa/LUFA-120730/LUFA/Drivers/USB/Core/AVR8/USBController_AVR8.c **** 	USB_Device_RemoteWakeupEnabled  = false;
 146               		.loc 1 188 0
 147 0030 1092 0000 		sts USB_Device_RemoteWakeupEnabled,__zero_reg__
 189:../../protocol/lufa/LUFA-120730/LUFA/Drivers/USB/Core/AVR8/USBController_AVR8.c **** 	#endif
 190:../../protocol/lufa/LUFA-120730/LUFA/Drivers/USB/Core/AVR8/USBController_AVR8.c **** 
 191:../../protocol/lufa/LUFA-120730/LUFA/Drivers/USB/Core/AVR8/USBController_AVR8.c **** 	#if !defined(NO_DEVICE_SELF_POWER)
 192:../../protocol/lufa/LUFA-120730/LUFA/Drivers/USB/Core/AVR8/USBController_AVR8.c **** 	USB_Device_CurrentlySelfPowered = false;
 148               		.loc 1 192 0
 149 0034 1092 0000 		sts USB_Device_CurrentlySelfPowered,__zero_reg__
 150               	.LBB82:
 151               	.LBB83:
 152               		.file 3 "../../protocol/lufa/LUFA-120730/LUFA/Drivers/USB/Core/AVR8/../AVR8/../AVR8/Device_AVR8.h"
   1:../../protocol/lufa/LUFA-120730/LUFA/Drivers/USB/Core/AVR8/../AVR8/../AVR8/Device_AVR8.h **** /*
   2:../../protocol/lufa/LUFA-120730/LUFA/Drivers/USB/Core/AVR8/../AVR8/../AVR8/Device_AVR8.h ****              LUFA Library
   3:../../protocol/lufa/LUFA-120730/LUFA/Drivers/USB/Core/AVR8/../AVR8/../AVR8/Device_AVR8.h ****      Copyright (C) Dean Camera, 2012.
   4:../../protocol/lufa/LUFA-120730/LUFA/Drivers/USB/Core/AVR8/../AVR8/../AVR8/Device_AVR8.h **** 
   5:../../protocol/lufa/LUFA-120730/LUFA/Drivers/USB/Core/AVR8/../AVR8/../AVR8/Device_AVR8.h ****   dean [at] fourwalledcubicle [dot] com
   6:../../protocol/lufa/LUFA-120730/LUFA/Drivers/USB/Core/AVR8/../AVR8/../AVR8/Device_AVR8.h ****            www.lufa-lib.org
   7:../../protocol/lufa/LUFA-120730/LUFA/Drivers/USB/Core/AVR8/../AVR8/../AVR8/Device_AVR8.h **** */
   8:../../protocol/lufa/LUFA-120730/LUFA/Drivers/USB/Core/AVR8/../AVR8/../AVR8/Device_AVR8.h **** 
   9:../../protocol/lufa/LUFA-120730/LUFA/Drivers/USB/Core/AVR8/../AVR8/../AVR8/Device_AVR8.h **** /*
  10:../../protocol/lufa/LUFA-120730/LUFA/Drivers/USB/Core/AVR8/../AVR8/../AVR8/Device_AVR8.h ****   Copyright 2012  Dean Camera (dean [at] fourwalledcubicle [dot] com)
  11:../../protocol/lufa/LUFA-120730/LUFA/Drivers/USB/Core/AVR8/../AVR8/../AVR8/Device_AVR8.h **** 
  12:../../protocol/lufa/LUFA-120730/LUFA/Drivers/USB/Core/AVR8/../AVR8/../AVR8/Device_AVR8.h ****   Permission to use, copy, modify, distribute, and sell this
  13:../../protocol/lufa/LUFA-120730/LUFA/Drivers/USB/Core/AVR8/../AVR8/../AVR8/Device_AVR8.h ****   software and its documentation for any purpose is hereby granted
  14:../../protocol/lufa/LUFA-120730/LUFA/Drivers/USB/Core/AVR8/../AVR8/../AVR8/Device_AVR8.h ****   without fee, provided that the above copyright notice appear in
  15:../../protocol/lufa/LUFA-120730/LUFA/Drivers/USB/Core/AVR8/../AVR8/../AVR8/Device_AVR8.h ****   all copies and that both that the copyright notice and this
  16:../../protocol/lufa/LUFA-120730/LUFA/Drivers/USB/Core/AVR8/../AVR8/../AVR8/Device_AVR8.h ****   permission notice and warranty disclaimer appear in supporting
  17:../../protocol/lufa/LUFA-120730/LUFA/Drivers/USB/Core/AVR8/../AVR8/../AVR8/Device_AVR8.h ****   documentation, and that the name of the author not be used in
  18:../../protocol/lufa/LUFA-120730/LUFA/Drivers/USB/Core/AVR8/../AVR8/../AVR8/Device_AVR8.h ****   advertising or publicity pertaining to distribution of the
  19:../../protocol/lufa/LUFA-120730/LUFA/Drivers/USB/Core/AVR8/../AVR8/../AVR8/Device_AVR8.h ****   software without specific, written prior permission.
  20:../../protocol/lufa/LUFA-120730/LUFA/Drivers/USB/Core/AVR8/../AVR8/../AVR8/Device_AVR8.h **** 
  21:../../protocol/lufa/LUFA-120730/LUFA/Drivers/USB/Core/AVR8/../AVR8/../AVR8/Device_AVR8.h ****   The author disclaim all warranties with regard to this
  22:../../protocol/lufa/LUFA-120730/LUFA/Drivers/USB/Core/AVR8/../AVR8/../AVR8/Device_AVR8.h ****   software, including all implied warranties of merchantability
  23:../../protocol/lufa/LUFA-120730/LUFA/Drivers/USB/Core/AVR8/../AVR8/../AVR8/Device_AVR8.h ****   and fitness.  In no event shall the author be liable for any
  24:../../protocol/lufa/LUFA-120730/LUFA/Drivers/USB/Core/AVR8/../AVR8/../AVR8/Device_AVR8.h ****   special, indirect or consequential damages or any damages
  25:../../protocol/lufa/LUFA-120730/LUFA/Drivers/USB/Core/AVR8/../AVR8/../AVR8/Device_AVR8.h ****   whatsoever resulting from loss of use, data or profits, whether
  26:../../protocol/lufa/LUFA-120730/LUFA/Drivers/USB/Core/AVR8/../AVR8/../AVR8/Device_AVR8.h ****   in an action of contract, negligence or other tortious action,
  27:../../protocol/lufa/LUFA-120730/LUFA/Drivers/USB/Core/AVR8/../AVR8/../AVR8/Device_AVR8.h ****   arising out of or in connection with the use or performance of
  28:../../protocol/lufa/LUFA-120730/LUFA/Drivers/USB/Core/AVR8/../AVR8/../AVR8/Device_AVR8.h ****   this software.
  29:../../protocol/lufa/LUFA-120730/LUFA/Drivers/USB/Core/AVR8/../AVR8/../AVR8/Device_AVR8.h **** */
  30:../../protocol/lufa/LUFA-120730/LUFA/Drivers/USB/Core/AVR8/../AVR8/../AVR8/Device_AVR8.h **** 
  31:../../protocol/lufa/LUFA-120730/LUFA/Drivers/USB/Core/AVR8/../AVR8/../AVR8/Device_AVR8.h **** /** \file
  32:../../protocol/lufa/LUFA-120730/LUFA/Drivers/USB/Core/AVR8/../AVR8/../AVR8/Device_AVR8.h ****  *  \brief USB Device definitions for the AVR8 microcontrollers.
  33:../../protocol/lufa/LUFA-120730/LUFA/Drivers/USB/Core/AVR8/../AVR8/../AVR8/Device_AVR8.h ****  *  \copydetails Group_Device_AVR8
  34:../../protocol/lufa/LUFA-120730/LUFA/Drivers/USB/Core/AVR8/../AVR8/../AVR8/Device_AVR8.h ****  *
  35:../../protocol/lufa/LUFA-120730/LUFA/Drivers/USB/Core/AVR8/../AVR8/../AVR8/Device_AVR8.h ****  *  \note This file should not be included directly. It is automatically included as needed by the 
  36:../../protocol/lufa/LUFA-120730/LUFA/Drivers/USB/Core/AVR8/../AVR8/../AVR8/Device_AVR8.h ****  *        dispatch header located in LUFA/Drivers/USB/USB.h.
  37:../../protocol/lufa/LUFA-120730/LUFA/Drivers/USB/Core/AVR8/../AVR8/../AVR8/Device_AVR8.h ****  */
  38:../../protocol/lufa/LUFA-120730/LUFA/Drivers/USB/Core/AVR8/../AVR8/../AVR8/Device_AVR8.h **** 
  39:../../protocol/lufa/LUFA-120730/LUFA/Drivers/USB/Core/AVR8/../AVR8/../AVR8/Device_AVR8.h **** /** \ingroup Group_Device
  40:../../protocol/lufa/LUFA-120730/LUFA/Drivers/USB/Core/AVR8/../AVR8/../AVR8/Device_AVR8.h ****  *  \defgroup Group_Device_AVR8 Device Management (AVR8)
  41:../../protocol/lufa/LUFA-120730/LUFA/Drivers/USB/Core/AVR8/../AVR8/../AVR8/Device_AVR8.h ****  *  \brief USB Device definitions for the AVR8 microcontrollers.
  42:../../protocol/lufa/LUFA-120730/LUFA/Drivers/USB/Core/AVR8/../AVR8/../AVR8/Device_AVR8.h ****  *
  43:../../protocol/lufa/LUFA-120730/LUFA/Drivers/USB/Core/AVR8/../AVR8/../AVR8/Device_AVR8.h ****  *  Architecture specific USB Device definitions for the Atmel 8-bit AVR microcontrollers.
  44:../../protocol/lufa/LUFA-120730/LUFA/Drivers/USB/Core/AVR8/../AVR8/../AVR8/Device_AVR8.h ****  *
  45:../../protocol/lufa/LUFA-120730/LUFA/Drivers/USB/Core/AVR8/../AVR8/../AVR8/Device_AVR8.h ****  *  @{
  46:../../protocol/lufa/LUFA-120730/LUFA/Drivers/USB/Core/AVR8/../AVR8/../AVR8/Device_AVR8.h ****  */
  47:../../protocol/lufa/LUFA-120730/LUFA/Drivers/USB/Core/AVR8/../AVR8/../AVR8/Device_AVR8.h **** 
  48:../../protocol/lufa/LUFA-120730/LUFA/Drivers/USB/Core/AVR8/../AVR8/../AVR8/Device_AVR8.h **** #ifndef __USBDEVICE_AVR8_H__
  49:../../protocol/lufa/LUFA-120730/LUFA/Drivers/USB/Core/AVR8/../AVR8/../AVR8/Device_AVR8.h **** #define __USBDEVICE_AVR8_H__
  50:../../protocol/lufa/LUFA-120730/LUFA/Drivers/USB/Core/AVR8/../AVR8/../AVR8/Device_AVR8.h **** 
  51:../../protocol/lufa/LUFA-120730/LUFA/Drivers/USB/Core/AVR8/../AVR8/../AVR8/Device_AVR8.h **** 	/* Includes: */
  52:../../protocol/lufa/LUFA-120730/LUFA/Drivers/USB/Core/AVR8/../AVR8/../AVR8/Device_AVR8.h **** 		#include "../../../../Common/Common.h"
  53:../../protocol/lufa/LUFA-120730/LUFA/Drivers/USB/Core/AVR8/../AVR8/../AVR8/Device_AVR8.h **** 		#include "../USBController.h"
  54:../../protocol/lufa/LUFA-120730/LUFA/Drivers/USB/Core/AVR8/../AVR8/../AVR8/Device_AVR8.h **** 		#include "../StdDescriptors.h"
  55:../../protocol/lufa/LUFA-120730/LUFA/Drivers/USB/Core/AVR8/../AVR8/../AVR8/Device_AVR8.h **** 		#include "../USBInterrupt.h"
  56:../../protocol/lufa/LUFA-120730/LUFA/Drivers/USB/Core/AVR8/../AVR8/../AVR8/Device_AVR8.h **** 		#include "../Endpoint.h"
  57:../../protocol/lufa/LUFA-120730/LUFA/Drivers/USB/Core/AVR8/../AVR8/../AVR8/Device_AVR8.h **** 
  58:../../protocol/lufa/LUFA-120730/LUFA/Drivers/USB/Core/AVR8/../AVR8/../AVR8/Device_AVR8.h **** 	/* Enable C linkage for C++ Compilers: */
  59:../../protocol/lufa/LUFA-120730/LUFA/Drivers/USB/Core/AVR8/../AVR8/../AVR8/Device_AVR8.h **** 		#if defined(__cplusplus)
  60:../../protocol/lufa/LUFA-120730/LUFA/Drivers/USB/Core/AVR8/../AVR8/../AVR8/Device_AVR8.h **** 			extern "C" {
  61:../../protocol/lufa/LUFA-120730/LUFA/Drivers/USB/Core/AVR8/../AVR8/../AVR8/Device_AVR8.h **** 		#endif
  62:../../protocol/lufa/LUFA-120730/LUFA/Drivers/USB/Core/AVR8/../AVR8/../AVR8/Device_AVR8.h **** 
  63:../../protocol/lufa/LUFA-120730/LUFA/Drivers/USB/Core/AVR8/../AVR8/../AVR8/Device_AVR8.h **** 	/* Preprocessor Checks: */
  64:../../protocol/lufa/LUFA-120730/LUFA/Drivers/USB/Core/AVR8/../AVR8/../AVR8/Device_AVR8.h **** 		#if !defined(__INCLUDE_FROM_USB_DRIVER)
  65:../../protocol/lufa/LUFA-120730/LUFA/Drivers/USB/Core/AVR8/../AVR8/../AVR8/Device_AVR8.h **** 			#error Do not include this file directly. Include LUFA/Drivers/USB/USB.h instead.
  66:../../protocol/lufa/LUFA-120730/LUFA/Drivers/USB/Core/AVR8/../AVR8/../AVR8/Device_AVR8.h **** 		#endif
  67:../../protocol/lufa/LUFA-120730/LUFA/Drivers/USB/Core/AVR8/../AVR8/../AVR8/Device_AVR8.h **** 
  68:../../protocol/lufa/LUFA-120730/LUFA/Drivers/USB/Core/AVR8/../AVR8/../AVR8/Device_AVR8.h **** 		#if (defined(USE_RAM_DESCRIPTORS) && defined(USE_EEPROM_DESCRIPTORS))
  69:../../protocol/lufa/LUFA-120730/LUFA/Drivers/USB/Core/AVR8/../AVR8/../AVR8/Device_AVR8.h **** 			#error USE_RAM_DESCRIPTORS and USE_EEPROM_DESCRIPTORS are mutually exclusive.
  70:../../protocol/lufa/LUFA-120730/LUFA/Drivers/USB/Core/AVR8/../AVR8/../AVR8/Device_AVR8.h **** 		#endif
  71:../../protocol/lufa/LUFA-120730/LUFA/Drivers/USB/Core/AVR8/../AVR8/../AVR8/Device_AVR8.h **** 
  72:../../protocol/lufa/LUFA-120730/LUFA/Drivers/USB/Core/AVR8/../AVR8/../AVR8/Device_AVR8.h **** 		#if (defined(USE_FLASH_DESCRIPTORS) && defined(USE_EEPROM_DESCRIPTORS))
  73:../../protocol/lufa/LUFA-120730/LUFA/Drivers/USB/Core/AVR8/../AVR8/../AVR8/Device_AVR8.h **** 			#error USE_FLASH_DESCRIPTORS and USE_EEPROM_DESCRIPTORS are mutually exclusive.
  74:../../protocol/lufa/LUFA-120730/LUFA/Drivers/USB/Core/AVR8/../AVR8/../AVR8/Device_AVR8.h **** 		#endif
  75:../../protocol/lufa/LUFA-120730/LUFA/Drivers/USB/Core/AVR8/../AVR8/../AVR8/Device_AVR8.h **** 
  76:../../protocol/lufa/LUFA-120730/LUFA/Drivers/USB/Core/AVR8/../AVR8/../AVR8/Device_AVR8.h **** 		#if (defined(USE_FLASH_DESCRIPTORS) && defined(USE_RAM_DESCRIPTORS))
  77:../../protocol/lufa/LUFA-120730/LUFA/Drivers/USB/Core/AVR8/../AVR8/../AVR8/Device_AVR8.h **** 			#error USE_FLASH_DESCRIPTORS and USE_RAM_DESCRIPTORS are mutually exclusive.
  78:../../protocol/lufa/LUFA-120730/LUFA/Drivers/USB/Core/AVR8/../AVR8/../AVR8/Device_AVR8.h **** 		#endif
  79:../../protocol/lufa/LUFA-120730/LUFA/Drivers/USB/Core/AVR8/../AVR8/../AVR8/Device_AVR8.h **** 
  80:../../protocol/lufa/LUFA-120730/LUFA/Drivers/USB/Core/AVR8/../AVR8/../AVR8/Device_AVR8.h **** 	/* Public Interface - May be used in end-application: */
  81:../../protocol/lufa/LUFA-120730/LUFA/Drivers/USB/Core/AVR8/../AVR8/../AVR8/Device_AVR8.h **** 		/* Macros: */
  82:../../protocol/lufa/LUFA-120730/LUFA/Drivers/USB/Core/AVR8/../AVR8/../AVR8/Device_AVR8.h **** 			/** \name USB Device Mode Option Masks */
  83:../../protocol/lufa/LUFA-120730/LUFA/Drivers/USB/Core/AVR8/../AVR8/../AVR8/Device_AVR8.h **** 			//@{
  84:../../protocol/lufa/LUFA-120730/LUFA/Drivers/USB/Core/AVR8/../AVR8/../AVR8/Device_AVR8.h **** 			#if defined(USB_SERIES_4_AVR) || defined(USB_SERIES_6_AVR) || defined(USB_SERIES_7_AVR) || defin
  85:../../protocol/lufa/LUFA-120730/LUFA/Drivers/USB/Core/AVR8/../AVR8/../AVR8/Device_AVR8.h **** 				/** Mask for the Options parameter of the \ref USB_Init() function. This indicates that the
  86:../../protocol/lufa/LUFA-120730/LUFA/Drivers/USB/Core/AVR8/../AVR8/../AVR8/Device_AVR8.h **** 				 *  USB interface should be initialized in low speed (1.5Mb/s) mode.
  87:../../protocol/lufa/LUFA-120730/LUFA/Drivers/USB/Core/AVR8/../AVR8/../AVR8/Device_AVR8.h **** 				 *
  88:../../protocol/lufa/LUFA-120730/LUFA/Drivers/USB/Core/AVR8/../AVR8/../AVR8/Device_AVR8.h **** 				 *  \note Low Speed mode is not available on all USB AVR models.
  89:../../protocol/lufa/LUFA-120730/LUFA/Drivers/USB/Core/AVR8/../AVR8/../AVR8/Device_AVR8.h **** 				 *        \n
  90:../../protocol/lufa/LUFA-120730/LUFA/Drivers/USB/Core/AVR8/../AVR8/../AVR8/Device_AVR8.h **** 				 *
  91:../../protocol/lufa/LUFA-120730/LUFA/Drivers/USB/Core/AVR8/../AVR8/../AVR8/Device_AVR8.h **** 				 *  \note Restrictions apply on the number, size and type of endpoints which can be used
  92:../../protocol/lufa/LUFA-120730/LUFA/Drivers/USB/Core/AVR8/../AVR8/../AVR8/Device_AVR8.h **** 				 *        when running in low speed mode - please refer to the USB 2.0 specification.
  93:../../protocol/lufa/LUFA-120730/LUFA/Drivers/USB/Core/AVR8/../AVR8/../AVR8/Device_AVR8.h **** 				 */
  94:../../protocol/lufa/LUFA-120730/LUFA/Drivers/USB/Core/AVR8/../AVR8/../AVR8/Device_AVR8.h **** 				#define USB_DEVICE_OPT_LOWSPEED            (1 << 0)
  95:../../protocol/lufa/LUFA-120730/LUFA/Drivers/USB/Core/AVR8/../AVR8/../AVR8/Device_AVR8.h **** 			#endif
  96:../../protocol/lufa/LUFA-120730/LUFA/Drivers/USB/Core/AVR8/../AVR8/../AVR8/Device_AVR8.h **** 
  97:../../protocol/lufa/LUFA-120730/LUFA/Drivers/USB/Core/AVR8/../AVR8/../AVR8/Device_AVR8.h **** 			/** Mask for the Options parameter of the \ref USB_Init() function. This indicates that the
  98:../../protocol/lufa/LUFA-120730/LUFA/Drivers/USB/Core/AVR8/../AVR8/../AVR8/Device_AVR8.h **** 			 *  USB interface should be initialized in full speed (12Mb/s) mode.
  99:../../protocol/lufa/LUFA-120730/LUFA/Drivers/USB/Core/AVR8/../AVR8/../AVR8/Device_AVR8.h **** 			 */
 100:../../protocol/lufa/LUFA-120730/LUFA/Drivers/USB/Core/AVR8/../AVR8/../AVR8/Device_AVR8.h **** 			#define USB_DEVICE_OPT_FULLSPEED               (0 << 0)
 101:../../protocol/lufa/LUFA-120730/LUFA/Drivers/USB/Core/AVR8/../AVR8/../AVR8/Device_AVR8.h **** 			//@}
 102:../../protocol/lufa/LUFA-120730/LUFA/Drivers/USB/Core/AVR8/../AVR8/../AVR8/Device_AVR8.h **** 
 103:../../protocol/lufa/LUFA-120730/LUFA/Drivers/USB/Core/AVR8/../AVR8/../AVR8/Device_AVR8.h **** 			#if (!defined(NO_INTERNAL_SERIAL) && \
 104:../../protocol/lufa/LUFA-120730/LUFA/Drivers/USB/Core/AVR8/../AVR8/../AVR8/Device_AVR8.h **** 			     (defined(USB_SERIES_7_AVR) || defined(USB_SERIES_6_AVR) || \
 105:../../protocol/lufa/LUFA-120730/LUFA/Drivers/USB/Core/AVR8/../AVR8/../AVR8/Device_AVR8.h **** 			      defined(USB_SERIES_4_AVR) || defined(USB_SERIES_2_AVR) || \
 106:../../protocol/lufa/LUFA-120730/LUFA/Drivers/USB/Core/AVR8/../AVR8/../AVR8/Device_AVR8.h **** 				  defined(__DOXYGEN__)))
 107:../../protocol/lufa/LUFA-120730/LUFA/Drivers/USB/Core/AVR8/../AVR8/../AVR8/Device_AVR8.h **** 				/** String descriptor index for the device's unique serial number string descriptor within the 
 108:../../protocol/lufa/LUFA-120730/LUFA/Drivers/USB/Core/AVR8/../AVR8/../AVR8/Device_AVR8.h **** 				 *  This unique serial number is used by the host to associate resources to the device (such as
 109:../../protocol/lufa/LUFA-120730/LUFA/Drivers/USB/Core/AVR8/../AVR8/../AVR8/Device_AVR8.h **** 				 *  number allocations) to a device regardless of the port it is plugged in to on the host. Som
 110:../../protocol/lufa/LUFA-120730/LUFA/Drivers/USB/Core/AVR8/../AVR8/../AVR8/Device_AVR8.h **** 				 *  a unique serial number internally, and setting the device descriptors serial number string 
 111:../../protocol/lufa/LUFA-120730/LUFA/Drivers/USB/Core/AVR8/../AVR8/../AVR8/Device_AVR8.h **** 				 *  will cause it to use the internal serial number.
 112:../../protocol/lufa/LUFA-120730/LUFA/Drivers/USB/Core/AVR8/../AVR8/../AVR8/Device_AVR8.h **** 				 *
 113:../../protocol/lufa/LUFA-120730/LUFA/Drivers/USB/Core/AVR8/../AVR8/../AVR8/Device_AVR8.h **** 				 *  On unsupported devices, this will evaluate to \ref NO_DESCRIPTOR and so will force the host
 114:../../protocol/lufa/LUFA-120730/LUFA/Drivers/USB/Core/AVR8/../AVR8/../AVR8/Device_AVR8.h **** 				 *  number for the device.
 115:../../protocol/lufa/LUFA-120730/LUFA/Drivers/USB/Core/AVR8/../AVR8/../AVR8/Device_AVR8.h **** 				 */
 116:../../protocol/lufa/LUFA-120730/LUFA/Drivers/USB/Core/AVR8/../AVR8/../AVR8/Device_AVR8.h **** 				#define USE_INTERNAL_SERIAL            0xDC
 117:../../protocol/lufa/LUFA-120730/LUFA/Drivers/USB/Core/AVR8/../AVR8/../AVR8/Device_AVR8.h **** 
 118:../../protocol/lufa/LUFA-120730/LUFA/Drivers/USB/Core/AVR8/../AVR8/../AVR8/Device_AVR8.h **** 				/** Length of the device's unique internal serial number, in bits, if present on the selected m
 119:../../protocol/lufa/LUFA-120730/LUFA/Drivers/USB/Core/AVR8/../AVR8/../AVR8/Device_AVR8.h **** 				 *  model.
 120:../../protocol/lufa/LUFA-120730/LUFA/Drivers/USB/Core/AVR8/../AVR8/../AVR8/Device_AVR8.h **** 				 */
 121:../../protocol/lufa/LUFA-120730/LUFA/Drivers/USB/Core/AVR8/../AVR8/../AVR8/Device_AVR8.h **** 				#define INTERNAL_SERIAL_LENGTH_BITS    80
 122:../../protocol/lufa/LUFA-120730/LUFA/Drivers/USB/Core/AVR8/../AVR8/../AVR8/Device_AVR8.h **** 
 123:../../protocol/lufa/LUFA-120730/LUFA/Drivers/USB/Core/AVR8/../AVR8/../AVR8/Device_AVR8.h **** 				/** Start address of the internal serial number, in the appropriate address space, if present o
 124:../../protocol/lufa/LUFA-120730/LUFA/Drivers/USB/Core/AVR8/../AVR8/../AVR8/Device_AVR8.h **** 				 *  model.
 125:../../protocol/lufa/LUFA-120730/LUFA/Drivers/USB/Core/AVR8/../AVR8/../AVR8/Device_AVR8.h **** 				 */
 126:../../protocol/lufa/LUFA-120730/LUFA/Drivers/USB/Core/AVR8/../AVR8/../AVR8/Device_AVR8.h **** 				#define INTERNAL_SERIAL_START_ADDRESS  0x0E
 127:../../protocol/lufa/LUFA-120730/LUFA/Drivers/USB/Core/AVR8/../AVR8/../AVR8/Device_AVR8.h **** 			#else
 128:../../protocol/lufa/LUFA-120730/LUFA/Drivers/USB/Core/AVR8/../AVR8/../AVR8/Device_AVR8.h **** 				#define USE_INTERNAL_SERIAL            NO_DESCRIPTOR
 129:../../protocol/lufa/LUFA-120730/LUFA/Drivers/USB/Core/AVR8/../AVR8/../AVR8/Device_AVR8.h **** 
 130:../../protocol/lufa/LUFA-120730/LUFA/Drivers/USB/Core/AVR8/../AVR8/../AVR8/Device_AVR8.h **** 				#define INTERNAL_SERIAL_LENGTH_BITS    0
 131:../../protocol/lufa/LUFA-120730/LUFA/Drivers/USB/Core/AVR8/../AVR8/../AVR8/Device_AVR8.h **** 				#define INTERNAL_SERIAL_START_ADDRESS  0
 132:../../protocol/lufa/LUFA-120730/LUFA/Drivers/USB/Core/AVR8/../AVR8/../AVR8/Device_AVR8.h **** 			#endif
 133:../../protocol/lufa/LUFA-120730/LUFA/Drivers/USB/Core/AVR8/../AVR8/../AVR8/Device_AVR8.h **** 
 134:../../protocol/lufa/LUFA-120730/LUFA/Drivers/USB/Core/AVR8/../AVR8/../AVR8/Device_AVR8.h **** 		/* Function Prototypes: */
 135:../../protocol/lufa/LUFA-120730/LUFA/Drivers/USB/Core/AVR8/../AVR8/../AVR8/Device_AVR8.h **** 			/** Sends a Remote Wakeup request to the host. This signals to the host that the device should
 136:../../protocol/lufa/LUFA-120730/LUFA/Drivers/USB/Core/AVR8/../AVR8/../AVR8/Device_AVR8.h **** 			 *  be taken out of suspended mode, and communications should resume.
 137:../../protocol/lufa/LUFA-120730/LUFA/Drivers/USB/Core/AVR8/../AVR8/../AVR8/Device_AVR8.h **** 			 *
 138:../../protocol/lufa/LUFA-120730/LUFA/Drivers/USB/Core/AVR8/../AVR8/../AVR8/Device_AVR8.h **** 			 *  Typically, this is implemented so that HID devices (mice, keyboards, etc.) can wake up the
 139:../../protocol/lufa/LUFA-120730/LUFA/Drivers/USB/Core/AVR8/../AVR8/../AVR8/Device_AVR8.h **** 			 *  host computer when the host has suspended all USB devices to enter a low power state.
 140:../../protocol/lufa/LUFA-120730/LUFA/Drivers/USB/Core/AVR8/../AVR8/../AVR8/Device_AVR8.h **** 			 *
 141:../../protocol/lufa/LUFA-120730/LUFA/Drivers/USB/Core/AVR8/../AVR8/../AVR8/Device_AVR8.h **** 			 *  \attention This function should only be used if the device has indicated to the host that it
 142:../../protocol/lufa/LUFA-120730/LUFA/Drivers/USB/Core/AVR8/../AVR8/../AVR8/Device_AVR8.h **** 			 *             supports the Remote Wakeup feature in the device descriptors, and should only be
 143:../../protocol/lufa/LUFA-120730/LUFA/Drivers/USB/Core/AVR8/../AVR8/../AVR8/Device_AVR8.h **** 			 *             issued if the host is currently allowing remote wakeup events from the device (i.
 144:../../protocol/lufa/LUFA-120730/LUFA/Drivers/USB/Core/AVR8/../AVR8/../AVR8/Device_AVR8.h **** 			 *             the \ref USB_Device_RemoteWakeupEnabled flag is set). When the \c NO_DEVICE_REMOT
 145:../../protocol/lufa/LUFA-120730/LUFA/Drivers/USB/Core/AVR8/../AVR8/../AVR8/Device_AVR8.h **** 			 *             compile time option is used, this function is unavailable.
 146:../../protocol/lufa/LUFA-120730/LUFA/Drivers/USB/Core/AVR8/../AVR8/../AVR8/Device_AVR8.h **** 			 *             \n\n
 147:../../protocol/lufa/LUFA-120730/LUFA/Drivers/USB/Core/AVR8/../AVR8/../AVR8/Device_AVR8.h **** 			 *
 148:../../protocol/lufa/LUFA-120730/LUFA/Drivers/USB/Core/AVR8/../AVR8/../AVR8/Device_AVR8.h **** 			 *  \attention The USB clock must be running for this function to operate. If the stack is initi
 149:../../protocol/lufa/LUFA-120730/LUFA/Drivers/USB/Core/AVR8/../AVR8/../AVR8/Device_AVR8.h **** 			 *             the \ref USB_OPT_MANUAL_PLL option enabled, the user must ensure that the PLL is 
 150:../../protocol/lufa/LUFA-120730/LUFA/Drivers/USB/Core/AVR8/../AVR8/../AVR8/Device_AVR8.h **** 			 *             before attempting to call this function.
 151:../../protocol/lufa/LUFA-120730/LUFA/Drivers/USB/Core/AVR8/../AVR8/../AVR8/Device_AVR8.h **** 			 *
 152:../../protocol/lufa/LUFA-120730/LUFA/Drivers/USB/Core/AVR8/../AVR8/../AVR8/Device_AVR8.h **** 			 *  \see \ref Group_StdDescriptors for more information on the RMWAKEUP feature and device descr
 153:../../protocol/lufa/LUFA-120730/LUFA/Drivers/USB/Core/AVR8/../AVR8/../AVR8/Device_AVR8.h **** 			 */
 154:../../protocol/lufa/LUFA-120730/LUFA/Drivers/USB/Core/AVR8/../AVR8/../AVR8/Device_AVR8.h **** 			void USB_Device_SendRemoteWakeup(void);
 155:../../protocol/lufa/LUFA-120730/LUFA/Drivers/USB/Core/AVR8/../AVR8/../AVR8/Device_AVR8.h **** 
 156:../../protocol/lufa/LUFA-120730/LUFA/Drivers/USB/Core/AVR8/../AVR8/../AVR8/Device_AVR8.h **** 		/* Inline Functions: */
 157:../../protocol/lufa/LUFA-120730/LUFA/Drivers/USB/Core/AVR8/../AVR8/../AVR8/Device_AVR8.h **** 			/** Returns the current USB frame number, when in device mode. Every millisecond the USB bus is 
 158:../../protocol/lufa/LUFA-120730/LUFA/Drivers/USB/Core/AVR8/../AVR8/../AVR8/Device_AVR8.h **** 			 *  the frame number is incremented by one.
 159:../../protocol/lufa/LUFA-120730/LUFA/Drivers/USB/Core/AVR8/../AVR8/../AVR8/Device_AVR8.h **** 			 *
 160:../../protocol/lufa/LUFA-120730/LUFA/Drivers/USB/Core/AVR8/../AVR8/../AVR8/Device_AVR8.h **** 			 *  \return Current USB frame number from the USB controller.
 161:../../protocol/lufa/LUFA-120730/LUFA/Drivers/USB/Core/AVR8/../AVR8/../AVR8/Device_AVR8.h **** 			 */
 162:../../protocol/lufa/LUFA-120730/LUFA/Drivers/USB/Core/AVR8/../AVR8/../AVR8/Device_AVR8.h **** 			static inline uint16_t USB_Device_GetFrameNumber(void) ATTR_ALWAYS_INLINE ATTR_WARN_UNUSED_RESUL
 163:../../protocol/lufa/LUFA-120730/LUFA/Drivers/USB/Core/AVR8/../AVR8/../AVR8/Device_AVR8.h **** 			static inline uint16_t USB_Device_GetFrameNumber(void)
 164:../../protocol/lufa/LUFA-120730/LUFA/Drivers/USB/Core/AVR8/../AVR8/../AVR8/Device_AVR8.h **** 			{
 165:../../protocol/lufa/LUFA-120730/LUFA/Drivers/USB/Core/AVR8/../AVR8/../AVR8/Device_AVR8.h **** 				return UDFNUM;
 166:../../protocol/lufa/LUFA-120730/LUFA/Drivers/USB/Core/AVR8/../AVR8/../AVR8/Device_AVR8.h **** 			}
 167:../../protocol/lufa/LUFA-120730/LUFA/Drivers/USB/Core/AVR8/../AVR8/../AVR8/Device_AVR8.h **** 
 168:../../protocol/lufa/LUFA-120730/LUFA/Drivers/USB/Core/AVR8/../AVR8/../AVR8/Device_AVR8.h **** 			#if !defined(NO_SOF_EVENTS)
 169:../../protocol/lufa/LUFA-120730/LUFA/Drivers/USB/Core/AVR8/../AVR8/../AVR8/Device_AVR8.h **** 				/** Enables the device mode Start Of Frame events. When enabled, this causes the
 170:../../protocol/lufa/LUFA-120730/LUFA/Drivers/USB/Core/AVR8/../AVR8/../AVR8/Device_AVR8.h **** 				 *  \ref EVENT_USB_Device_StartOfFrame() event to fire once per millisecond, synchronized to th
 171:../../protocol/lufa/LUFA-120730/LUFA/Drivers/USB/Core/AVR8/../AVR8/../AVR8/Device_AVR8.h **** 				 *  at the start of each USB frame when enumerated in device mode.
 172:../../protocol/lufa/LUFA-120730/LUFA/Drivers/USB/Core/AVR8/../AVR8/../AVR8/Device_AVR8.h **** 				 *
 173:../../protocol/lufa/LUFA-120730/LUFA/Drivers/USB/Core/AVR8/../AVR8/../AVR8/Device_AVR8.h **** 				 *  \note This function is not available when the \c NO_SOF_EVENTS compile time token is define
 174:../../protocol/lufa/LUFA-120730/LUFA/Drivers/USB/Core/AVR8/../AVR8/../AVR8/Device_AVR8.h **** 				 */
 175:../../protocol/lufa/LUFA-120730/LUFA/Drivers/USB/Core/AVR8/../AVR8/../AVR8/Device_AVR8.h **** 				static inline void USB_Device_EnableSOFEvents(void) ATTR_ALWAYS_INLINE;
 176:../../protocol/lufa/LUFA-120730/LUFA/Drivers/USB/Core/AVR8/../AVR8/../AVR8/Device_AVR8.h **** 				static inline void USB_Device_EnableSOFEvents(void)
 177:../../protocol/lufa/LUFA-120730/LUFA/Drivers/USB/Core/AVR8/../AVR8/../AVR8/Device_AVR8.h **** 				{
 178:../../protocol/lufa/LUFA-120730/LUFA/Drivers/USB/Core/AVR8/../AVR8/../AVR8/Device_AVR8.h **** 					USB_INT_Enable(USB_INT_SOFI);
 179:../../protocol/lufa/LUFA-120730/LUFA/Drivers/USB/Core/AVR8/../AVR8/../AVR8/Device_AVR8.h **** 				}
 180:../../protocol/lufa/LUFA-120730/LUFA/Drivers/USB/Core/AVR8/../AVR8/../AVR8/Device_AVR8.h **** 
 181:../../protocol/lufa/LUFA-120730/LUFA/Drivers/USB/Core/AVR8/../AVR8/../AVR8/Device_AVR8.h **** 				/** Disables the device mode Start Of Frame events. When disabled, this stops the firing of the
 182:../../protocol/lufa/LUFA-120730/LUFA/Drivers/USB/Core/AVR8/../AVR8/../AVR8/Device_AVR8.h **** 				 *  \ref EVENT_USB_Device_StartOfFrame() event when enumerated in device mode.
 183:../../protocol/lufa/LUFA-120730/LUFA/Drivers/USB/Core/AVR8/../AVR8/../AVR8/Device_AVR8.h **** 				 *
 184:../../protocol/lufa/LUFA-120730/LUFA/Drivers/USB/Core/AVR8/../AVR8/../AVR8/Device_AVR8.h **** 				 *  \note This function is not available when the \c NO_SOF_EVENTS compile time token is define
 185:../../protocol/lufa/LUFA-120730/LUFA/Drivers/USB/Core/AVR8/../AVR8/../AVR8/Device_AVR8.h **** 				 */
 186:../../protocol/lufa/LUFA-120730/LUFA/Drivers/USB/Core/AVR8/../AVR8/../AVR8/Device_AVR8.h **** 				static inline void USB_Device_DisableSOFEvents(void) ATTR_ALWAYS_INLINE;
 187:../../protocol/lufa/LUFA-120730/LUFA/Drivers/USB/Core/AVR8/../AVR8/../AVR8/Device_AVR8.h **** 				static inline void USB_Device_DisableSOFEvents(void)
 188:../../protocol/lufa/LUFA-120730/LUFA/Drivers/USB/Core/AVR8/../AVR8/../AVR8/Device_AVR8.h **** 				{
 189:../../protocol/lufa/LUFA-120730/LUFA/Drivers/USB/Core/AVR8/../AVR8/../AVR8/Device_AVR8.h **** 					USB_INT_Disable(USB_INT_SOFI);
 190:../../protocol/lufa/LUFA-120730/LUFA/Drivers/USB/Core/AVR8/../AVR8/../AVR8/Device_AVR8.h **** 				}
 191:../../protocol/lufa/LUFA-120730/LUFA/Drivers/USB/Core/AVR8/../AVR8/../AVR8/Device_AVR8.h **** 			#endif
 192:../../protocol/lufa/LUFA-120730/LUFA/Drivers/USB/Core/AVR8/../AVR8/../AVR8/Device_AVR8.h **** 
 193:../../protocol/lufa/LUFA-120730/LUFA/Drivers/USB/Core/AVR8/../AVR8/../AVR8/Device_AVR8.h **** 	/* Private Interface - For use in library only: */
 194:../../protocol/lufa/LUFA-120730/LUFA/Drivers/USB/Core/AVR8/../AVR8/../AVR8/Device_AVR8.h **** 	#if !defined(__DOXYGEN__)
 195:../../protocol/lufa/LUFA-120730/LUFA/Drivers/USB/Core/AVR8/../AVR8/../AVR8/Device_AVR8.h **** 		/* Inline Functions: */
 196:../../protocol/lufa/LUFA-120730/LUFA/Drivers/USB/Core/AVR8/../AVR8/../AVR8/Device_AVR8.h **** 			#if defined(USB_DEVICE_OPT_LOWSPEED)
 197:../../protocol/lufa/LUFA-120730/LUFA/Drivers/USB/Core/AVR8/../AVR8/../AVR8/Device_AVR8.h **** 			static inline void USB_Device_SetLowSpeed(void) ATTR_ALWAYS_INLINE;
 198:../../protocol/lufa/LUFA-120730/LUFA/Drivers/USB/Core/AVR8/../AVR8/../AVR8/Device_AVR8.h **** 			static inline void USB_Device_SetLowSpeed(void)
 199:../../protocol/lufa/LUFA-120730/LUFA/Drivers/USB/Core/AVR8/../AVR8/../AVR8/Device_AVR8.h **** 			{
 200:../../protocol/lufa/LUFA-120730/LUFA/Drivers/USB/Core/AVR8/../AVR8/../AVR8/Device_AVR8.h **** 				UDCON |=  (1 << LSM);
 201:../../protocol/lufa/LUFA-120730/LUFA/Drivers/USB/Core/AVR8/../AVR8/../AVR8/Device_AVR8.h **** 			}
 202:../../protocol/lufa/LUFA-120730/LUFA/Drivers/USB/Core/AVR8/../AVR8/../AVR8/Device_AVR8.h **** 
 203:../../protocol/lufa/LUFA-120730/LUFA/Drivers/USB/Core/AVR8/../AVR8/../AVR8/Device_AVR8.h **** 			static inline void USB_Device_SetFullSpeed(void) ATTR_ALWAYS_INLINE;
 204:../../protocol/lufa/LUFA-120730/LUFA/Drivers/USB/Core/AVR8/../AVR8/../AVR8/Device_AVR8.h **** 			static inline void USB_Device_SetFullSpeed(void)
 205:../../protocol/lufa/LUFA-120730/LUFA/Drivers/USB/Core/AVR8/../AVR8/../AVR8/Device_AVR8.h **** 			{
 206:../../protocol/lufa/LUFA-120730/LUFA/Drivers/USB/Core/AVR8/../AVR8/../AVR8/Device_AVR8.h **** 				UDCON &= ~(1 << LSM);
 153               		.loc 3 206 0
 154 0038 00EE      		ldi r16,lo8(-32)
 155 003a 10E0      		ldi r17,0
 156 003c F801      		movw r30,r16
 157 003e 8081      		ld r24,Z
 158 0040 8B7F      		andi r24,lo8(-5)
 159 0042 8083      		st Z,r24
 160               	.LVL4:
 161               	.LBE83:
 162               	.LBE82:
 163               	.LBB84:
 164               	.LBB85:
 165               		.file 4 "../../protocol/lufa/LUFA-120730/LUFA/Drivers/USB/Core/AVR8/../AVR8/../AVR8/USBInterrupt_A
   1:../../protocol/lufa/LUFA-120730/LUFA/Drivers/USB/Core/AVR8/../AVR8/../AVR8/USBInterrupt_AVR8.h **** /*
   2:../../protocol/lufa/LUFA-120730/LUFA/Drivers/USB/Core/AVR8/../AVR8/../AVR8/USBInterrupt_AVR8.h ****              LUFA Library
   3:../../protocol/lufa/LUFA-120730/LUFA/Drivers/USB/Core/AVR8/../AVR8/../AVR8/USBInterrupt_AVR8.h ****      Copyright (C) Dean Camera, 2012.
   4:../../protocol/lufa/LUFA-120730/LUFA/Drivers/USB/Core/AVR8/../AVR8/../AVR8/USBInterrupt_AVR8.h **** 
   5:../../protocol/lufa/LUFA-120730/LUFA/Drivers/USB/Core/AVR8/../AVR8/../AVR8/USBInterrupt_AVR8.h ****   dean [at] fourwalledcubicle [dot] com
   6:../../protocol/lufa/LUFA-120730/LUFA/Drivers/USB/Core/AVR8/../AVR8/../AVR8/USBInterrupt_AVR8.h ****            www.lufa-lib.org
   7:../../protocol/lufa/LUFA-120730/LUFA/Drivers/USB/Core/AVR8/../AVR8/../AVR8/USBInterrupt_AVR8.h **** */
   8:../../protocol/lufa/LUFA-120730/LUFA/Drivers/USB/Core/AVR8/../AVR8/../AVR8/USBInterrupt_AVR8.h **** 
   9:../../protocol/lufa/LUFA-120730/LUFA/Drivers/USB/Core/AVR8/../AVR8/../AVR8/USBInterrupt_AVR8.h **** /*
  10:../../protocol/lufa/LUFA-120730/LUFA/Drivers/USB/Core/AVR8/../AVR8/../AVR8/USBInterrupt_AVR8.h ****   Copyright 2012  Dean Camera (dean [at] fourwalledcubicle [dot] com)
  11:../../protocol/lufa/LUFA-120730/LUFA/Drivers/USB/Core/AVR8/../AVR8/../AVR8/USBInterrupt_AVR8.h **** 
  12:../../protocol/lufa/LUFA-120730/LUFA/Drivers/USB/Core/AVR8/../AVR8/../AVR8/USBInterrupt_AVR8.h ****   Permission to use, copy, modify, distribute, and sell this
  13:../../protocol/lufa/LUFA-120730/LUFA/Drivers/USB/Core/AVR8/../AVR8/../AVR8/USBInterrupt_AVR8.h ****   software and its documentation for any purpose is hereby granted
  14:../../protocol/lufa/LUFA-120730/LUFA/Drivers/USB/Core/AVR8/../AVR8/../AVR8/USBInterrupt_AVR8.h ****   without fee, provided that the above copyright notice appear in
  15:../../protocol/lufa/LUFA-120730/LUFA/Drivers/USB/Core/AVR8/../AVR8/../AVR8/USBInterrupt_AVR8.h ****   all copies and that both that the copyright notice and this
  16:../../protocol/lufa/LUFA-120730/LUFA/Drivers/USB/Core/AVR8/../AVR8/../AVR8/USBInterrupt_AVR8.h ****   permission notice and warranty disclaimer appear in supporting
  17:../../protocol/lufa/LUFA-120730/LUFA/Drivers/USB/Core/AVR8/../AVR8/../AVR8/USBInterrupt_AVR8.h ****   documentation, and that the name of the author not be used in
  18:../../protocol/lufa/LUFA-120730/LUFA/Drivers/USB/Core/AVR8/../AVR8/../AVR8/USBInterrupt_AVR8.h ****   advertising or publicity pertaining to distribution of the
  19:../../protocol/lufa/LUFA-120730/LUFA/Drivers/USB/Core/AVR8/../AVR8/../AVR8/USBInterrupt_AVR8.h ****   software without specific, written prior permission.
  20:../../protocol/lufa/LUFA-120730/LUFA/Drivers/USB/Core/AVR8/../AVR8/../AVR8/USBInterrupt_AVR8.h **** 
  21:../../protocol/lufa/LUFA-120730/LUFA/Drivers/USB/Core/AVR8/../AVR8/../AVR8/USBInterrupt_AVR8.h ****   The author disclaim all warranties with regard to this
  22:../../protocol/lufa/LUFA-120730/LUFA/Drivers/USB/Core/AVR8/../AVR8/../AVR8/USBInterrupt_AVR8.h ****   software, including all implied warranties of merchantability
  23:../../protocol/lufa/LUFA-120730/LUFA/Drivers/USB/Core/AVR8/../AVR8/../AVR8/USBInterrupt_AVR8.h ****   and fitness.  In no event shall the author be liable for any
  24:../../protocol/lufa/LUFA-120730/LUFA/Drivers/USB/Core/AVR8/../AVR8/../AVR8/USBInterrupt_AVR8.h ****   special, indirect or consequential damages or any damages
  25:../../protocol/lufa/LUFA-120730/LUFA/Drivers/USB/Core/AVR8/../AVR8/../AVR8/USBInterrupt_AVR8.h ****   whatsoever resulting from loss of use, data or profits, whether
  26:../../protocol/lufa/LUFA-120730/LUFA/Drivers/USB/Core/AVR8/../AVR8/../AVR8/USBInterrupt_AVR8.h ****   in an action of contract, negligence or other tortious action,
  27:../../protocol/lufa/LUFA-120730/LUFA/Drivers/USB/Core/AVR8/../AVR8/../AVR8/USBInterrupt_AVR8.h ****   arising out of or in connection with the use or performance of
  28:../../protocol/lufa/LUFA-120730/LUFA/Drivers/USB/Core/AVR8/../AVR8/../AVR8/USBInterrupt_AVR8.h ****   this software.
  29:../../protocol/lufa/LUFA-120730/LUFA/Drivers/USB/Core/AVR8/../AVR8/../AVR8/USBInterrupt_AVR8.h **** */
  30:../../protocol/lufa/LUFA-120730/LUFA/Drivers/USB/Core/AVR8/../AVR8/../AVR8/USBInterrupt_AVR8.h **** 
  31:../../protocol/lufa/LUFA-120730/LUFA/Drivers/USB/Core/AVR8/../AVR8/../AVR8/USBInterrupt_AVR8.h **** /** \file
  32:../../protocol/lufa/LUFA-120730/LUFA/Drivers/USB/Core/AVR8/../AVR8/../AVR8/USBInterrupt_AVR8.h ****  *  \brief USB Controller Interrupt definitions for the AVR8 microcontrollers.
  33:../../protocol/lufa/LUFA-120730/LUFA/Drivers/USB/Core/AVR8/../AVR8/../AVR8/USBInterrupt_AVR8.h ****  *
  34:../../protocol/lufa/LUFA-120730/LUFA/Drivers/USB/Core/AVR8/../AVR8/../AVR8/USBInterrupt_AVR8.h ****  *  This file contains definitions required for the correct handling of low level USB service routi
  35:../../protocol/lufa/LUFA-120730/LUFA/Drivers/USB/Core/AVR8/../AVR8/../AVR8/USBInterrupt_AVR8.h ****  *  from the USB controller.
  36:../../protocol/lufa/LUFA-120730/LUFA/Drivers/USB/Core/AVR8/../AVR8/../AVR8/USBInterrupt_AVR8.h ****  *
  37:../../protocol/lufa/LUFA-120730/LUFA/Drivers/USB/Core/AVR8/../AVR8/../AVR8/USBInterrupt_AVR8.h ****  *  \note This file should not be included directly. It is automatically included as needed by the 
  38:../../protocol/lufa/LUFA-120730/LUFA/Drivers/USB/Core/AVR8/../AVR8/../AVR8/USBInterrupt_AVR8.h ****  *        dispatch header located in LUFA/Drivers/USB/USB.h.
  39:../../protocol/lufa/LUFA-120730/LUFA/Drivers/USB/Core/AVR8/../AVR8/../AVR8/USBInterrupt_AVR8.h ****  */
  40:../../protocol/lufa/LUFA-120730/LUFA/Drivers/USB/Core/AVR8/../AVR8/../AVR8/USBInterrupt_AVR8.h **** 
  41:../../protocol/lufa/LUFA-120730/LUFA/Drivers/USB/Core/AVR8/../AVR8/../AVR8/USBInterrupt_AVR8.h **** #ifndef __USBINTERRUPT_AVR8_H__
  42:../../protocol/lufa/LUFA-120730/LUFA/Drivers/USB/Core/AVR8/../AVR8/../AVR8/USBInterrupt_AVR8.h **** #define __USBINTERRUPT_AVR8_H__
  43:../../protocol/lufa/LUFA-120730/LUFA/Drivers/USB/Core/AVR8/../AVR8/../AVR8/USBInterrupt_AVR8.h **** 
  44:../../protocol/lufa/LUFA-120730/LUFA/Drivers/USB/Core/AVR8/../AVR8/../AVR8/USBInterrupt_AVR8.h **** 	/* Includes: */
  45:../../protocol/lufa/LUFA-120730/LUFA/Drivers/USB/Core/AVR8/../AVR8/../AVR8/USBInterrupt_AVR8.h **** 		#include "../../../../Common/Common.h"
  46:../../protocol/lufa/LUFA-120730/LUFA/Drivers/USB/Core/AVR8/../AVR8/../AVR8/USBInterrupt_AVR8.h **** 
  47:../../protocol/lufa/LUFA-120730/LUFA/Drivers/USB/Core/AVR8/../AVR8/../AVR8/USBInterrupt_AVR8.h **** 	/* Enable C linkage for C++ Compilers: */
  48:../../protocol/lufa/LUFA-120730/LUFA/Drivers/USB/Core/AVR8/../AVR8/../AVR8/USBInterrupt_AVR8.h **** 		#if defined(__cplusplus)
  49:../../protocol/lufa/LUFA-120730/LUFA/Drivers/USB/Core/AVR8/../AVR8/../AVR8/USBInterrupt_AVR8.h **** 			extern "C" {
  50:../../protocol/lufa/LUFA-120730/LUFA/Drivers/USB/Core/AVR8/../AVR8/../AVR8/USBInterrupt_AVR8.h **** 		#endif
  51:../../protocol/lufa/LUFA-120730/LUFA/Drivers/USB/Core/AVR8/../AVR8/../AVR8/USBInterrupt_AVR8.h **** 
  52:../../protocol/lufa/LUFA-120730/LUFA/Drivers/USB/Core/AVR8/../AVR8/../AVR8/USBInterrupt_AVR8.h **** 	/* Preprocessor Checks: */
  53:../../protocol/lufa/LUFA-120730/LUFA/Drivers/USB/Core/AVR8/../AVR8/../AVR8/USBInterrupt_AVR8.h **** 		#if !defined(__INCLUDE_FROM_USB_DRIVER)
  54:../../protocol/lufa/LUFA-120730/LUFA/Drivers/USB/Core/AVR8/../AVR8/../AVR8/USBInterrupt_AVR8.h **** 			#error Do not include this file directly. Include LUFA/Drivers/USB/USB.h instead.
  55:../../protocol/lufa/LUFA-120730/LUFA/Drivers/USB/Core/AVR8/../AVR8/../AVR8/USBInterrupt_AVR8.h **** 		#endif
  56:../../protocol/lufa/LUFA-120730/LUFA/Drivers/USB/Core/AVR8/../AVR8/../AVR8/USBInterrupt_AVR8.h **** 
  57:../../protocol/lufa/LUFA-120730/LUFA/Drivers/USB/Core/AVR8/../AVR8/../AVR8/USBInterrupt_AVR8.h **** 	/* Private Interface - For use in library only: */
  58:../../protocol/lufa/LUFA-120730/LUFA/Drivers/USB/Core/AVR8/../AVR8/../AVR8/USBInterrupt_AVR8.h **** 	#if !defined(__DOXYGEN__)
  59:../../protocol/lufa/LUFA-120730/LUFA/Drivers/USB/Core/AVR8/../AVR8/../AVR8/USBInterrupt_AVR8.h **** 		/* Enums: */
  60:../../protocol/lufa/LUFA-120730/LUFA/Drivers/USB/Core/AVR8/../AVR8/../AVR8/USBInterrupt_AVR8.h **** 			enum USB_Interrupts_t
  61:../../protocol/lufa/LUFA-120730/LUFA/Drivers/USB/Core/AVR8/../AVR8/../AVR8/USBInterrupt_AVR8.h **** 			{
  62:../../protocol/lufa/LUFA-120730/LUFA/Drivers/USB/Core/AVR8/../AVR8/../AVR8/USBInterrupt_AVR8.h **** 				#if (defined(USB_SERIES_4_AVR) || defined(USB_SERIES_6_AVR) || defined(USB_SERIES_7_AVR) || def
  63:../../protocol/lufa/LUFA-120730/LUFA/Drivers/USB/Core/AVR8/../AVR8/../AVR8/USBInterrupt_AVR8.h **** 				USB_INT_VBUSTI  = 0,
  64:../../protocol/lufa/LUFA-120730/LUFA/Drivers/USB/Core/AVR8/../AVR8/../AVR8/USBInterrupt_AVR8.h **** 				#endif
  65:../../protocol/lufa/LUFA-120730/LUFA/Drivers/USB/Core/AVR8/../AVR8/../AVR8/USBInterrupt_AVR8.h **** 				#if (defined(USB_CAN_BE_BOTH) || defined(__DOXYGEN__))
  66:../../protocol/lufa/LUFA-120730/LUFA/Drivers/USB/Core/AVR8/../AVR8/../AVR8/USBInterrupt_AVR8.h **** 				USB_INT_IDTI    = 1,
  67:../../protocol/lufa/LUFA-120730/LUFA/Drivers/USB/Core/AVR8/../AVR8/../AVR8/USBInterrupt_AVR8.h **** 				#endif
  68:../../protocol/lufa/LUFA-120730/LUFA/Drivers/USB/Core/AVR8/../AVR8/../AVR8/USBInterrupt_AVR8.h **** 				#if (defined(USB_CAN_BE_DEVICE) || defined(__DOXYGEN__))
  69:../../protocol/lufa/LUFA-120730/LUFA/Drivers/USB/Core/AVR8/../AVR8/../AVR8/USBInterrupt_AVR8.h **** 				USB_INT_WAKEUPI = 2,
  70:../../protocol/lufa/LUFA-120730/LUFA/Drivers/USB/Core/AVR8/../AVR8/../AVR8/USBInterrupt_AVR8.h **** 				USB_INT_SUSPI   = 3,
  71:../../protocol/lufa/LUFA-120730/LUFA/Drivers/USB/Core/AVR8/../AVR8/../AVR8/USBInterrupt_AVR8.h **** 				USB_INT_EORSTI  = 4,
  72:../../protocol/lufa/LUFA-120730/LUFA/Drivers/USB/Core/AVR8/../AVR8/../AVR8/USBInterrupt_AVR8.h **** 				USB_INT_SOFI    = 5,
  73:../../protocol/lufa/LUFA-120730/LUFA/Drivers/USB/Core/AVR8/../AVR8/../AVR8/USBInterrupt_AVR8.h **** 				USB_INT_RXSTPI  = 6,
  74:../../protocol/lufa/LUFA-120730/LUFA/Drivers/USB/Core/AVR8/../AVR8/../AVR8/USBInterrupt_AVR8.h **** 				#endif
  75:../../protocol/lufa/LUFA-120730/LUFA/Drivers/USB/Core/AVR8/../AVR8/../AVR8/USBInterrupt_AVR8.h **** 				#if (defined(USB_CAN_BE_HOST) || defined(__DOXYGEN__))
  76:../../protocol/lufa/LUFA-120730/LUFA/Drivers/USB/Core/AVR8/../AVR8/../AVR8/USBInterrupt_AVR8.h **** 				USB_INT_HSOFI   = 7,
  77:../../protocol/lufa/LUFA-120730/LUFA/Drivers/USB/Core/AVR8/../AVR8/../AVR8/USBInterrupt_AVR8.h **** 				USB_INT_DCONNI  = 8,
  78:../../protocol/lufa/LUFA-120730/LUFA/Drivers/USB/Core/AVR8/../AVR8/../AVR8/USBInterrupt_AVR8.h **** 				USB_INT_DDISCI  = 9,
  79:../../protocol/lufa/LUFA-120730/LUFA/Drivers/USB/Core/AVR8/../AVR8/../AVR8/USBInterrupt_AVR8.h **** 				USB_INT_RSTI    = 10,
  80:../../protocol/lufa/LUFA-120730/LUFA/Drivers/USB/Core/AVR8/../AVR8/../AVR8/USBInterrupt_AVR8.h **** 				USB_INT_BCERRI  = 11,
  81:../../protocol/lufa/LUFA-120730/LUFA/Drivers/USB/Core/AVR8/../AVR8/../AVR8/USBInterrupt_AVR8.h **** 				USB_INT_VBERRI  = 12,
  82:../../protocol/lufa/LUFA-120730/LUFA/Drivers/USB/Core/AVR8/../AVR8/../AVR8/USBInterrupt_AVR8.h **** 				USB_INT_SRPI    = 13,
  83:../../protocol/lufa/LUFA-120730/LUFA/Drivers/USB/Core/AVR8/../AVR8/../AVR8/USBInterrupt_AVR8.h **** 				#endif
  84:../../protocol/lufa/LUFA-120730/LUFA/Drivers/USB/Core/AVR8/../AVR8/../AVR8/USBInterrupt_AVR8.h **** 			};
  85:../../protocol/lufa/LUFA-120730/LUFA/Drivers/USB/Core/AVR8/../AVR8/../AVR8/USBInterrupt_AVR8.h **** 
  86:../../protocol/lufa/LUFA-120730/LUFA/Drivers/USB/Core/AVR8/../AVR8/../AVR8/USBInterrupt_AVR8.h **** 		/* Inline Functions: */
  87:../../protocol/lufa/LUFA-120730/LUFA/Drivers/USB/Core/AVR8/../AVR8/../AVR8/USBInterrupt_AVR8.h **** 			static inline void USB_INT_Enable(const uint8_t Interrupt) ATTR_ALWAYS_INLINE;
  88:../../protocol/lufa/LUFA-120730/LUFA/Drivers/USB/Core/AVR8/../AVR8/../AVR8/USBInterrupt_AVR8.h **** 			static inline void USB_INT_Enable(const uint8_t Interrupt)
  89:../../protocol/lufa/LUFA-120730/LUFA/Drivers/USB/Core/AVR8/../AVR8/../AVR8/USBInterrupt_AVR8.h **** 			{
  90:../../protocol/lufa/LUFA-120730/LUFA/Drivers/USB/Core/AVR8/../AVR8/../AVR8/USBInterrupt_AVR8.h **** 				switch (Interrupt)
  91:../../protocol/lufa/LUFA-120730/LUFA/Drivers/USB/Core/AVR8/../AVR8/../AVR8/USBInterrupt_AVR8.h **** 				{
  92:../../protocol/lufa/LUFA-120730/LUFA/Drivers/USB/Core/AVR8/../AVR8/../AVR8/USBInterrupt_AVR8.h **** 					#if (defined(USB_SERIES_4_AVR) || defined(USB_SERIES_6_AVR) || defined(USB_SERIES_7_AVR))
  93:../../protocol/lufa/LUFA-120730/LUFA/Drivers/USB/Core/AVR8/../AVR8/../AVR8/USBInterrupt_AVR8.h **** 					case USB_INT_VBUSTI:
  94:../../protocol/lufa/LUFA-120730/LUFA/Drivers/USB/Core/AVR8/../AVR8/../AVR8/USBInterrupt_AVR8.h **** 						USBCON |= (1 << VBUSTE);
 166               		.loc 4 94 0
 167 0044 8881      		ld r24,Y
 168 0046 8160      		ori r24,lo8(1)
 169 0048 8883      		st Y,r24
 170               	.LVL5:
 171               	.LBE85:
 172               	.LBE84:
 173               	.LBB86:
 174               	.LBB87:
 175               		.file 5 "../../protocol/lufa/LUFA-120730/LUFA/Drivers/USB/Core/AVR8/../AVR8/../AVR8/Endpoint_AVR8.
   1:../../protocol/lufa/LUFA-120730/LUFA/Drivers/USB/Core/AVR8/../AVR8/../AVR8/Endpoint_AVR8.h **** /*
   2:../../protocol/lufa/LUFA-120730/LUFA/Drivers/USB/Core/AVR8/../AVR8/../AVR8/Endpoint_AVR8.h ****              LUFA Library
   3:../../protocol/lufa/LUFA-120730/LUFA/Drivers/USB/Core/AVR8/../AVR8/../AVR8/Endpoint_AVR8.h ****      Copyright (C) Dean Camera, 2012.
   4:../../protocol/lufa/LUFA-120730/LUFA/Drivers/USB/Core/AVR8/../AVR8/../AVR8/Endpoint_AVR8.h **** 
   5:../../protocol/lufa/LUFA-120730/LUFA/Drivers/USB/Core/AVR8/../AVR8/../AVR8/Endpoint_AVR8.h ****   dean [at] fourwalledcubicle [dot] com
   6:../../protocol/lufa/LUFA-120730/LUFA/Drivers/USB/Core/AVR8/../AVR8/../AVR8/Endpoint_AVR8.h ****            www.lufa-lib.org
   7:../../protocol/lufa/LUFA-120730/LUFA/Drivers/USB/Core/AVR8/../AVR8/../AVR8/Endpoint_AVR8.h **** */
   8:../../protocol/lufa/LUFA-120730/LUFA/Drivers/USB/Core/AVR8/../AVR8/../AVR8/Endpoint_AVR8.h **** 
   9:../../protocol/lufa/LUFA-120730/LUFA/Drivers/USB/Core/AVR8/../AVR8/../AVR8/Endpoint_AVR8.h **** /*
  10:../../protocol/lufa/LUFA-120730/LUFA/Drivers/USB/Core/AVR8/../AVR8/../AVR8/Endpoint_AVR8.h ****   Copyright 2012  Dean Camera (dean [at] fourwalledcubicle [dot] com)
  11:../../protocol/lufa/LUFA-120730/LUFA/Drivers/USB/Core/AVR8/../AVR8/../AVR8/Endpoint_AVR8.h **** 
  12:../../protocol/lufa/LUFA-120730/LUFA/Drivers/USB/Core/AVR8/../AVR8/../AVR8/Endpoint_AVR8.h ****   Permission to use, copy, modify, distribute, and sell this
  13:../../protocol/lufa/LUFA-120730/LUFA/Drivers/USB/Core/AVR8/../AVR8/../AVR8/Endpoint_AVR8.h ****   software and its documentation for any purpose is hereby granted
  14:../../protocol/lufa/LUFA-120730/LUFA/Drivers/USB/Core/AVR8/../AVR8/../AVR8/Endpoint_AVR8.h ****   without fee, provided that the above copyright notice appear in
  15:../../protocol/lufa/LUFA-120730/LUFA/Drivers/USB/Core/AVR8/../AVR8/../AVR8/Endpoint_AVR8.h ****   all copies and that both that the copyright notice and this
  16:../../protocol/lufa/LUFA-120730/LUFA/Drivers/USB/Core/AVR8/../AVR8/../AVR8/Endpoint_AVR8.h ****   permission notice and warranty disclaimer appear in supporting
  17:../../protocol/lufa/LUFA-120730/LUFA/Drivers/USB/Core/AVR8/../AVR8/../AVR8/Endpoint_AVR8.h ****   documentation, and that the name of the author not be used in
  18:../../protocol/lufa/LUFA-120730/LUFA/Drivers/USB/Core/AVR8/../AVR8/../AVR8/Endpoint_AVR8.h ****   advertising or publicity pertaining to distribution of the
  19:../../protocol/lufa/LUFA-120730/LUFA/Drivers/USB/Core/AVR8/../AVR8/../AVR8/Endpoint_AVR8.h ****   software without specific, written prior permission.
  20:../../protocol/lufa/LUFA-120730/LUFA/Drivers/USB/Core/AVR8/../AVR8/../AVR8/Endpoint_AVR8.h **** 
  21:../../protocol/lufa/LUFA-120730/LUFA/Drivers/USB/Core/AVR8/../AVR8/../AVR8/Endpoint_AVR8.h ****   The author disclaim all warranties with regard to this
  22:../../protocol/lufa/LUFA-120730/LUFA/Drivers/USB/Core/AVR8/../AVR8/../AVR8/Endpoint_AVR8.h ****   software, including all implied warranties of merchantability
  23:../../protocol/lufa/LUFA-120730/LUFA/Drivers/USB/Core/AVR8/../AVR8/../AVR8/Endpoint_AVR8.h ****   and fitness.  In no event shall the author be liable for any
  24:../../protocol/lufa/LUFA-120730/LUFA/Drivers/USB/Core/AVR8/../AVR8/../AVR8/Endpoint_AVR8.h ****   special, indirect or consequential damages or any damages
  25:../../protocol/lufa/LUFA-120730/LUFA/Drivers/USB/Core/AVR8/../AVR8/../AVR8/Endpoint_AVR8.h ****   whatsoever resulting from loss of use, data or profits, whether
  26:../../protocol/lufa/LUFA-120730/LUFA/Drivers/USB/Core/AVR8/../AVR8/../AVR8/Endpoint_AVR8.h ****   in an action of contract, negligence or other tortious action,
  27:../../protocol/lufa/LUFA-120730/LUFA/Drivers/USB/Core/AVR8/../AVR8/../AVR8/Endpoint_AVR8.h ****   arising out of or in connection with the use or performance of
  28:../../protocol/lufa/LUFA-120730/LUFA/Drivers/USB/Core/AVR8/../AVR8/../AVR8/Endpoint_AVR8.h ****   this software.
  29:../../protocol/lufa/LUFA-120730/LUFA/Drivers/USB/Core/AVR8/../AVR8/../AVR8/Endpoint_AVR8.h **** */
  30:../../protocol/lufa/LUFA-120730/LUFA/Drivers/USB/Core/AVR8/../AVR8/../AVR8/Endpoint_AVR8.h **** 
  31:../../protocol/lufa/LUFA-120730/LUFA/Drivers/USB/Core/AVR8/../AVR8/../AVR8/Endpoint_AVR8.h **** /** \file
  32:../../protocol/lufa/LUFA-120730/LUFA/Drivers/USB/Core/AVR8/../AVR8/../AVR8/Endpoint_AVR8.h ****  *  \brief USB Endpoint definitions for the AVR8 microcontrollers.
  33:../../protocol/lufa/LUFA-120730/LUFA/Drivers/USB/Core/AVR8/../AVR8/../AVR8/Endpoint_AVR8.h ****  *  \copydetails Group_EndpointManagement_AVR8
  34:../../protocol/lufa/LUFA-120730/LUFA/Drivers/USB/Core/AVR8/../AVR8/../AVR8/Endpoint_AVR8.h ****  *
  35:../../protocol/lufa/LUFA-120730/LUFA/Drivers/USB/Core/AVR8/../AVR8/../AVR8/Endpoint_AVR8.h ****  *  \note This file should not be included directly. It is automatically included as needed by the 
  36:../../protocol/lufa/LUFA-120730/LUFA/Drivers/USB/Core/AVR8/../AVR8/../AVR8/Endpoint_AVR8.h ****  *        dispatch header located in LUFA/Drivers/USB/USB.h.
  37:../../protocol/lufa/LUFA-120730/LUFA/Drivers/USB/Core/AVR8/../AVR8/../AVR8/Endpoint_AVR8.h ****  */
  38:../../protocol/lufa/LUFA-120730/LUFA/Drivers/USB/Core/AVR8/../AVR8/../AVR8/Endpoint_AVR8.h **** 
  39:../../protocol/lufa/LUFA-120730/LUFA/Drivers/USB/Core/AVR8/../AVR8/../AVR8/Endpoint_AVR8.h **** /** \ingroup Group_EndpointRW
  40:../../protocol/lufa/LUFA-120730/LUFA/Drivers/USB/Core/AVR8/../AVR8/../AVR8/Endpoint_AVR8.h ****  *  \defgroup Group_EndpointRW_AVR8 Endpoint Data Reading and Writing (AVR8)
  41:../../protocol/lufa/LUFA-120730/LUFA/Drivers/USB/Core/AVR8/../AVR8/../AVR8/Endpoint_AVR8.h ****  *  \brief Endpoint data read/write definitions for the Atmel AVR8 architecture.
  42:../../protocol/lufa/LUFA-120730/LUFA/Drivers/USB/Core/AVR8/../AVR8/../AVR8/Endpoint_AVR8.h ****  *
  43:../../protocol/lufa/LUFA-120730/LUFA/Drivers/USB/Core/AVR8/../AVR8/../AVR8/Endpoint_AVR8.h ****  *  Functions, macros, variables, enums and types related to data reading and writing from and to e
  44:../../protocol/lufa/LUFA-120730/LUFA/Drivers/USB/Core/AVR8/../AVR8/../AVR8/Endpoint_AVR8.h ****  */
  45:../../protocol/lufa/LUFA-120730/LUFA/Drivers/USB/Core/AVR8/../AVR8/../AVR8/Endpoint_AVR8.h **** 
  46:../../protocol/lufa/LUFA-120730/LUFA/Drivers/USB/Core/AVR8/../AVR8/../AVR8/Endpoint_AVR8.h **** /** \ingroup Group_EndpointPrimitiveRW
  47:../../protocol/lufa/LUFA-120730/LUFA/Drivers/USB/Core/AVR8/../AVR8/../AVR8/Endpoint_AVR8.h ****  *  \defgroup Group_EndpointPrimitiveRW_AVR8 Read/Write of Primitive Data Types (AVR8)
  48:../../protocol/lufa/LUFA-120730/LUFA/Drivers/USB/Core/AVR8/../AVR8/../AVR8/Endpoint_AVR8.h ****  *  \brief Endpoint primitive read/write definitions for the Atmel AVR8 architecture.
  49:../../protocol/lufa/LUFA-120730/LUFA/Drivers/USB/Core/AVR8/../AVR8/../AVR8/Endpoint_AVR8.h ****  *
  50:../../protocol/lufa/LUFA-120730/LUFA/Drivers/USB/Core/AVR8/../AVR8/../AVR8/Endpoint_AVR8.h ****  *  Functions, macros, variables, enums and types related to data reading and writing of primitive 
  51:../../protocol/lufa/LUFA-120730/LUFA/Drivers/USB/Core/AVR8/../AVR8/../AVR8/Endpoint_AVR8.h ****  *  from and to endpoints.
  52:../../protocol/lufa/LUFA-120730/LUFA/Drivers/USB/Core/AVR8/../AVR8/../AVR8/Endpoint_AVR8.h ****  */
  53:../../protocol/lufa/LUFA-120730/LUFA/Drivers/USB/Core/AVR8/../AVR8/../AVR8/Endpoint_AVR8.h **** 
  54:../../protocol/lufa/LUFA-120730/LUFA/Drivers/USB/Core/AVR8/../AVR8/../AVR8/Endpoint_AVR8.h **** /** \ingroup Group_EndpointPacketManagement
  55:../../protocol/lufa/LUFA-120730/LUFA/Drivers/USB/Core/AVR8/../AVR8/../AVR8/Endpoint_AVR8.h ****  *  \defgroup Group_EndpointPacketManagement_AVR8 Endpoint Packet Management (AVR8)
  56:../../protocol/lufa/LUFA-120730/LUFA/Drivers/USB/Core/AVR8/../AVR8/../AVR8/Endpoint_AVR8.h ****  *  \brief Endpoint packet management definitions for the Atmel AVR8 architecture.
  57:../../protocol/lufa/LUFA-120730/LUFA/Drivers/USB/Core/AVR8/../AVR8/../AVR8/Endpoint_AVR8.h ****  *
  58:../../protocol/lufa/LUFA-120730/LUFA/Drivers/USB/Core/AVR8/../AVR8/../AVR8/Endpoint_AVR8.h ****  *  Functions, macros, variables, enums and types related to packet management of endpoints.
  59:../../protocol/lufa/LUFA-120730/LUFA/Drivers/USB/Core/AVR8/../AVR8/../AVR8/Endpoint_AVR8.h ****  */
  60:../../protocol/lufa/LUFA-120730/LUFA/Drivers/USB/Core/AVR8/../AVR8/../AVR8/Endpoint_AVR8.h **** 
  61:../../protocol/lufa/LUFA-120730/LUFA/Drivers/USB/Core/AVR8/../AVR8/../AVR8/Endpoint_AVR8.h **** /** \ingroup Group_EndpointManagement
  62:../../protocol/lufa/LUFA-120730/LUFA/Drivers/USB/Core/AVR8/../AVR8/../AVR8/Endpoint_AVR8.h ****  *  \defgroup Group_EndpointManagement_AVR8 Endpoint Management (AVR8)
  63:../../protocol/lufa/LUFA-120730/LUFA/Drivers/USB/Core/AVR8/../AVR8/../AVR8/Endpoint_AVR8.h ****  *  \brief Endpoint management definitions for the Atmel AVR8 architecture.
  64:../../protocol/lufa/LUFA-120730/LUFA/Drivers/USB/Core/AVR8/../AVR8/../AVR8/Endpoint_AVR8.h ****  *
  65:../../protocol/lufa/LUFA-120730/LUFA/Drivers/USB/Core/AVR8/../AVR8/../AVR8/Endpoint_AVR8.h ****  *  Functions, macros and enums related to endpoint management when in USB Device mode. This
  66:../../protocol/lufa/LUFA-120730/LUFA/Drivers/USB/Core/AVR8/../AVR8/../AVR8/Endpoint_AVR8.h ****  *  module contains the endpoint management macros, as well as endpoint interrupt and data
  67:../../protocol/lufa/LUFA-120730/LUFA/Drivers/USB/Core/AVR8/../AVR8/../AVR8/Endpoint_AVR8.h ****  *  send/receive functions for various data types.
  68:../../protocol/lufa/LUFA-120730/LUFA/Drivers/USB/Core/AVR8/../AVR8/../AVR8/Endpoint_AVR8.h ****  *
  69:../../protocol/lufa/LUFA-120730/LUFA/Drivers/USB/Core/AVR8/../AVR8/../AVR8/Endpoint_AVR8.h ****  *  @{
  70:../../protocol/lufa/LUFA-120730/LUFA/Drivers/USB/Core/AVR8/../AVR8/../AVR8/Endpoint_AVR8.h ****  */
  71:../../protocol/lufa/LUFA-120730/LUFA/Drivers/USB/Core/AVR8/../AVR8/../AVR8/Endpoint_AVR8.h **** 
  72:../../protocol/lufa/LUFA-120730/LUFA/Drivers/USB/Core/AVR8/../AVR8/../AVR8/Endpoint_AVR8.h **** #ifndef __ENDPOINT_AVR8_H__
  73:../../protocol/lufa/LUFA-120730/LUFA/Drivers/USB/Core/AVR8/../AVR8/../AVR8/Endpoint_AVR8.h **** #define __ENDPOINT_AVR8_H__
  74:../../protocol/lufa/LUFA-120730/LUFA/Drivers/USB/Core/AVR8/../AVR8/../AVR8/Endpoint_AVR8.h **** 
  75:../../protocol/lufa/LUFA-120730/LUFA/Drivers/USB/Core/AVR8/../AVR8/../AVR8/Endpoint_AVR8.h **** 	/* Includes: */
  76:../../protocol/lufa/LUFA-120730/LUFA/Drivers/USB/Core/AVR8/../AVR8/../AVR8/Endpoint_AVR8.h **** 		#include "../../../../Common/Common.h"
  77:../../protocol/lufa/LUFA-120730/LUFA/Drivers/USB/Core/AVR8/../AVR8/../AVR8/Endpoint_AVR8.h **** 		#include "../USBTask.h"
  78:../../protocol/lufa/LUFA-120730/LUFA/Drivers/USB/Core/AVR8/../AVR8/../AVR8/Endpoint_AVR8.h **** 		#include "../USBInterrupt.h"
  79:../../protocol/lufa/LUFA-120730/LUFA/Drivers/USB/Core/AVR8/../AVR8/../AVR8/Endpoint_AVR8.h **** 
  80:../../protocol/lufa/LUFA-120730/LUFA/Drivers/USB/Core/AVR8/../AVR8/../AVR8/Endpoint_AVR8.h **** 	/* Enable C linkage for C++ Compilers: */
  81:../../protocol/lufa/LUFA-120730/LUFA/Drivers/USB/Core/AVR8/../AVR8/../AVR8/Endpoint_AVR8.h **** 		#if defined(__cplusplus)
  82:../../protocol/lufa/LUFA-120730/LUFA/Drivers/USB/Core/AVR8/../AVR8/../AVR8/Endpoint_AVR8.h **** 			extern "C" {
  83:../../protocol/lufa/LUFA-120730/LUFA/Drivers/USB/Core/AVR8/../AVR8/../AVR8/Endpoint_AVR8.h **** 		#endif
  84:../../protocol/lufa/LUFA-120730/LUFA/Drivers/USB/Core/AVR8/../AVR8/../AVR8/Endpoint_AVR8.h **** 
  85:../../protocol/lufa/LUFA-120730/LUFA/Drivers/USB/Core/AVR8/../AVR8/../AVR8/Endpoint_AVR8.h **** 	/* Preprocessor Checks: */
  86:../../protocol/lufa/LUFA-120730/LUFA/Drivers/USB/Core/AVR8/../AVR8/../AVR8/Endpoint_AVR8.h **** 		#if !defined(__INCLUDE_FROM_USB_DRIVER)
  87:../../protocol/lufa/LUFA-120730/LUFA/Drivers/USB/Core/AVR8/../AVR8/../AVR8/Endpoint_AVR8.h **** 			#error Do not include this file directly. Include LUFA/Drivers/USB/USB.h instead.
  88:../../protocol/lufa/LUFA-120730/LUFA/Drivers/USB/Core/AVR8/../AVR8/../AVR8/Endpoint_AVR8.h **** 		#endif
  89:../../protocol/lufa/LUFA-120730/LUFA/Drivers/USB/Core/AVR8/../AVR8/../AVR8/Endpoint_AVR8.h **** 
  90:../../protocol/lufa/LUFA-120730/LUFA/Drivers/USB/Core/AVR8/../AVR8/../AVR8/Endpoint_AVR8.h **** 	/* Private Interface - For use in library only: */
  91:../../protocol/lufa/LUFA-120730/LUFA/Drivers/USB/Core/AVR8/../AVR8/../AVR8/Endpoint_AVR8.h **** 	#if !defined(__DOXYGEN__)
  92:../../protocol/lufa/LUFA-120730/LUFA/Drivers/USB/Core/AVR8/../AVR8/../AVR8/Endpoint_AVR8.h **** 		/* Inline Functions: */
  93:../../protocol/lufa/LUFA-120730/LUFA/Drivers/USB/Core/AVR8/../AVR8/../AVR8/Endpoint_AVR8.h **** 			static inline uint8_t Endpoint_BytesToEPSizeMask(const uint16_t Bytes) ATTR_WARN_UNUSED_RESULT A
  94:../../protocol/lufa/LUFA-120730/LUFA/Drivers/USB/Core/AVR8/../AVR8/../AVR8/Endpoint_AVR8.h **** 			                                                                       ATTR_ALWAYS_INLINE;
  95:../../protocol/lufa/LUFA-120730/LUFA/Drivers/USB/Core/AVR8/../AVR8/../AVR8/Endpoint_AVR8.h **** 			static inline uint8_t Endpoint_BytesToEPSizeMask(const uint16_t Bytes)
  96:../../protocol/lufa/LUFA-120730/LUFA/Drivers/USB/Core/AVR8/../AVR8/../AVR8/Endpoint_AVR8.h **** 			{
  97:../../protocol/lufa/LUFA-120730/LUFA/Drivers/USB/Core/AVR8/../AVR8/../AVR8/Endpoint_AVR8.h **** 				uint8_t  MaskVal    = 0;
  98:../../protocol/lufa/LUFA-120730/LUFA/Drivers/USB/Core/AVR8/../AVR8/../AVR8/Endpoint_AVR8.h **** 				uint16_t CheckBytes = 8;
  99:../../protocol/lufa/LUFA-120730/LUFA/Drivers/USB/Core/AVR8/../AVR8/../AVR8/Endpoint_AVR8.h **** 
 100:../../protocol/lufa/LUFA-120730/LUFA/Drivers/USB/Core/AVR8/../AVR8/../AVR8/Endpoint_AVR8.h **** 				while (CheckBytes < Bytes)
 101:../../protocol/lufa/LUFA-120730/LUFA/Drivers/USB/Core/AVR8/../AVR8/../AVR8/Endpoint_AVR8.h **** 				{
 102:../../protocol/lufa/LUFA-120730/LUFA/Drivers/USB/Core/AVR8/../AVR8/../AVR8/Endpoint_AVR8.h **** 					MaskVal++;
 103:../../protocol/lufa/LUFA-120730/LUFA/Drivers/USB/Core/AVR8/../AVR8/../AVR8/Endpoint_AVR8.h **** 					CheckBytes <<= 1;
 104:../../protocol/lufa/LUFA-120730/LUFA/Drivers/USB/Core/AVR8/../AVR8/../AVR8/Endpoint_AVR8.h **** 				}
 105:../../protocol/lufa/LUFA-120730/LUFA/Drivers/USB/Core/AVR8/../AVR8/../AVR8/Endpoint_AVR8.h **** 
 106:../../protocol/lufa/LUFA-120730/LUFA/Drivers/USB/Core/AVR8/../AVR8/../AVR8/Endpoint_AVR8.h **** 				return (MaskVal << EPSIZE0);
 107:../../protocol/lufa/LUFA-120730/LUFA/Drivers/USB/Core/AVR8/../AVR8/../AVR8/Endpoint_AVR8.h **** 			}
 108:../../protocol/lufa/LUFA-120730/LUFA/Drivers/USB/Core/AVR8/../AVR8/../AVR8/Endpoint_AVR8.h **** 
 109:../../protocol/lufa/LUFA-120730/LUFA/Drivers/USB/Core/AVR8/../AVR8/../AVR8/Endpoint_AVR8.h **** 		/* Function Prototypes: */
 110:../../protocol/lufa/LUFA-120730/LUFA/Drivers/USB/Core/AVR8/../AVR8/../AVR8/Endpoint_AVR8.h **** 			void Endpoint_ClearEndpoints(void);
 111:../../protocol/lufa/LUFA-120730/LUFA/Drivers/USB/Core/AVR8/../AVR8/../AVR8/Endpoint_AVR8.h **** 			bool Endpoint_ConfigureEndpoint_Prv(const uint8_t Number,
 112:../../protocol/lufa/LUFA-120730/LUFA/Drivers/USB/Core/AVR8/../AVR8/../AVR8/Endpoint_AVR8.h **** 			                                    const uint8_t UECFG0XData,
 113:../../protocol/lufa/LUFA-120730/LUFA/Drivers/USB/Core/AVR8/../AVR8/../AVR8/Endpoint_AVR8.h **** 			                                    const uint8_t UECFG1XData);
 114:../../protocol/lufa/LUFA-120730/LUFA/Drivers/USB/Core/AVR8/../AVR8/../AVR8/Endpoint_AVR8.h **** 
 115:../../protocol/lufa/LUFA-120730/LUFA/Drivers/USB/Core/AVR8/../AVR8/../AVR8/Endpoint_AVR8.h **** 	#endif
 116:../../protocol/lufa/LUFA-120730/LUFA/Drivers/USB/Core/AVR8/../AVR8/../AVR8/Endpoint_AVR8.h **** 
 117:../../protocol/lufa/LUFA-120730/LUFA/Drivers/USB/Core/AVR8/../AVR8/../AVR8/Endpoint_AVR8.h **** 	/* Public Interface - May be used in end-application: */
 118:../../protocol/lufa/LUFA-120730/LUFA/Drivers/USB/Core/AVR8/../AVR8/../AVR8/Endpoint_AVR8.h **** 		/* Macros: */
 119:../../protocol/lufa/LUFA-120730/LUFA/Drivers/USB/Core/AVR8/../AVR8/../AVR8/Endpoint_AVR8.h **** 			#if (!defined(FIXED_CONTROL_ENDPOINT_SIZE) || defined(__DOXYGEN__))
 120:../../protocol/lufa/LUFA-120730/LUFA/Drivers/USB/Core/AVR8/../AVR8/../AVR8/Endpoint_AVR8.h **** 				/** Default size of the default control endpoint's bank, until altered by the control endpoint 
 121:../../protocol/lufa/LUFA-120730/LUFA/Drivers/USB/Core/AVR8/../AVR8/../AVR8/Endpoint_AVR8.h **** 				 *  value in the device descriptor. Not available if the \c FIXED_CONTROL_ENDPOINT_SIZE token i
 122:../../protocol/lufa/LUFA-120730/LUFA/Drivers/USB/Core/AVR8/../AVR8/../AVR8/Endpoint_AVR8.h **** 				 */
 123:../../protocol/lufa/LUFA-120730/LUFA/Drivers/USB/Core/AVR8/../AVR8/../AVR8/Endpoint_AVR8.h **** 				#define ENDPOINT_CONTROLEP_DEFAULT_SIZE     8
 124:../../protocol/lufa/LUFA-120730/LUFA/Drivers/USB/Core/AVR8/../AVR8/../AVR8/Endpoint_AVR8.h **** 			#endif
 125:../../protocol/lufa/LUFA-120730/LUFA/Drivers/USB/Core/AVR8/../AVR8/../AVR8/Endpoint_AVR8.h **** 
 126:../../protocol/lufa/LUFA-120730/LUFA/Drivers/USB/Core/AVR8/../AVR8/../AVR8/Endpoint_AVR8.h **** 			#if !defined(CONTROL_ONLY_DEVICE) || defined(__DOXYGEN__)
 127:../../protocol/lufa/LUFA-120730/LUFA/Drivers/USB/Core/AVR8/../AVR8/../AVR8/Endpoint_AVR8.h **** 				#if defined(USB_SERIES_4_AVR) || defined(USB_SERIES_6_AVR) || defined(USB_SERIES_7_AVR)
 128:../../protocol/lufa/LUFA-120730/LUFA/Drivers/USB/Core/AVR8/../AVR8/../AVR8/Endpoint_AVR8.h **** 					#define ENDPOINT_TOTAL_ENDPOINTS        7
 129:../../protocol/lufa/LUFA-120730/LUFA/Drivers/USB/Core/AVR8/../AVR8/../AVR8/Endpoint_AVR8.h **** 				#else
 130:../../protocol/lufa/LUFA-120730/LUFA/Drivers/USB/Core/AVR8/../AVR8/../AVR8/Endpoint_AVR8.h **** 					/** Total number of endpoints (including the default control endpoint at address 0) which may
 131:../../protocol/lufa/LUFA-120730/LUFA/Drivers/USB/Core/AVR8/../AVR8/../AVR8/Endpoint_AVR8.h **** 					 *  be used in the device. Different USB AVR models support different amounts of endpoints,
 132:../../protocol/lufa/LUFA-120730/LUFA/Drivers/USB/Core/AVR8/../AVR8/../AVR8/Endpoint_AVR8.h **** 					 *  this value reflects the maximum number of endpoints for the currently selected AVR model.
 133:../../protocol/lufa/LUFA-120730/LUFA/Drivers/USB/Core/AVR8/../AVR8/../AVR8/Endpoint_AVR8.h **** 					 */
 134:../../protocol/lufa/LUFA-120730/LUFA/Drivers/USB/Core/AVR8/../AVR8/../AVR8/Endpoint_AVR8.h **** 					#define ENDPOINT_TOTAL_ENDPOINTS        5
 135:../../protocol/lufa/LUFA-120730/LUFA/Drivers/USB/Core/AVR8/../AVR8/../AVR8/Endpoint_AVR8.h **** 				#endif
 136:../../protocol/lufa/LUFA-120730/LUFA/Drivers/USB/Core/AVR8/../AVR8/../AVR8/Endpoint_AVR8.h **** 			#else
 137:../../protocol/lufa/LUFA-120730/LUFA/Drivers/USB/Core/AVR8/../AVR8/../AVR8/Endpoint_AVR8.h **** 				#define ENDPOINT_TOTAL_ENDPOINTS            1
 138:../../protocol/lufa/LUFA-120730/LUFA/Drivers/USB/Core/AVR8/../AVR8/../AVR8/Endpoint_AVR8.h **** 			#endif
 139:../../protocol/lufa/LUFA-120730/LUFA/Drivers/USB/Core/AVR8/../AVR8/../AVR8/Endpoint_AVR8.h **** 
 140:../../protocol/lufa/LUFA-120730/LUFA/Drivers/USB/Core/AVR8/../AVR8/../AVR8/Endpoint_AVR8.h **** 		/* Enums: */
 141:../../protocol/lufa/LUFA-120730/LUFA/Drivers/USB/Core/AVR8/../AVR8/../AVR8/Endpoint_AVR8.h **** 			/** Enum for the possible error return codes of the \ref Endpoint_WaitUntilReady() function.
 142:../../protocol/lufa/LUFA-120730/LUFA/Drivers/USB/Core/AVR8/../AVR8/../AVR8/Endpoint_AVR8.h **** 			 *
 143:../../protocol/lufa/LUFA-120730/LUFA/Drivers/USB/Core/AVR8/../AVR8/../AVR8/Endpoint_AVR8.h **** 			 *  \ingroup Group_EndpointRW_AVR8
 144:../../protocol/lufa/LUFA-120730/LUFA/Drivers/USB/Core/AVR8/../AVR8/../AVR8/Endpoint_AVR8.h **** 			 */
 145:../../protocol/lufa/LUFA-120730/LUFA/Drivers/USB/Core/AVR8/../AVR8/../AVR8/Endpoint_AVR8.h **** 			enum Endpoint_WaitUntilReady_ErrorCodes_t
 146:../../protocol/lufa/LUFA-120730/LUFA/Drivers/USB/Core/AVR8/../AVR8/../AVR8/Endpoint_AVR8.h **** 			{
 147:../../protocol/lufa/LUFA-120730/LUFA/Drivers/USB/Core/AVR8/../AVR8/../AVR8/Endpoint_AVR8.h **** 				ENDPOINT_READYWAIT_NoError                 = 0, /**< Endpoint is ready for next packet, no erro
 148:../../protocol/lufa/LUFA-120730/LUFA/Drivers/USB/Core/AVR8/../AVR8/../AVR8/Endpoint_AVR8.h **** 				ENDPOINT_READYWAIT_EndpointStalled         = 1, /**< The endpoint was stalled during the stream
 149:../../protocol/lufa/LUFA-120730/LUFA/Drivers/USB/Core/AVR8/../AVR8/../AVR8/Endpoint_AVR8.h **** 				                                                 *   transfer by the host or device.
 150:../../protocol/lufa/LUFA-120730/LUFA/Drivers/USB/Core/AVR8/../AVR8/../AVR8/Endpoint_AVR8.h **** 				                                                 */
 151:../../protocol/lufa/LUFA-120730/LUFA/Drivers/USB/Core/AVR8/../AVR8/../AVR8/Endpoint_AVR8.h **** 				ENDPOINT_READYWAIT_DeviceDisconnected      = 2,	/**< Device was disconnected from the host whil
 152:../../protocol/lufa/LUFA-120730/LUFA/Drivers/USB/Core/AVR8/../AVR8/../AVR8/Endpoint_AVR8.h **** 				                                                 *   waiting for the endpoint to become ready.
 153:../../protocol/lufa/LUFA-120730/LUFA/Drivers/USB/Core/AVR8/../AVR8/../AVR8/Endpoint_AVR8.h **** 				                                                 */
 154:../../protocol/lufa/LUFA-120730/LUFA/Drivers/USB/Core/AVR8/../AVR8/../AVR8/Endpoint_AVR8.h **** 				ENDPOINT_READYWAIT_BusSuspended            = 3, /**< The USB bus has been suspended by the host
 155:../../protocol/lufa/LUFA-120730/LUFA/Drivers/USB/Core/AVR8/../AVR8/../AVR8/Endpoint_AVR8.h **** 				                                                 *   no USB endpoint traffic can occur until th
 156:../../protocol/lufa/LUFA-120730/LUFA/Drivers/USB/Core/AVR8/../AVR8/../AVR8/Endpoint_AVR8.h **** 				                                                 *   has resumed.
 157:../../protocol/lufa/LUFA-120730/LUFA/Drivers/USB/Core/AVR8/../AVR8/../AVR8/Endpoint_AVR8.h **** 				                                                 */
 158:../../protocol/lufa/LUFA-120730/LUFA/Drivers/USB/Core/AVR8/../AVR8/../AVR8/Endpoint_AVR8.h **** 				ENDPOINT_READYWAIT_Timeout                 = 4, /**< The host failed to accept or send the next
 159:../../protocol/lufa/LUFA-120730/LUFA/Drivers/USB/Core/AVR8/../AVR8/../AVR8/Endpoint_AVR8.h **** 				                                                 *   within the software timeout period set by 
 160:../../protocol/lufa/LUFA-120730/LUFA/Drivers/USB/Core/AVR8/../AVR8/../AVR8/Endpoint_AVR8.h **** 				                                                 *   \ref USB_STREAM_TIMEOUT_MS macro.
 161:../../protocol/lufa/LUFA-120730/LUFA/Drivers/USB/Core/AVR8/../AVR8/../AVR8/Endpoint_AVR8.h **** 				                                                 */
 162:../../protocol/lufa/LUFA-120730/LUFA/Drivers/USB/Core/AVR8/../AVR8/../AVR8/Endpoint_AVR8.h **** 			};
 163:../../protocol/lufa/LUFA-120730/LUFA/Drivers/USB/Core/AVR8/../AVR8/../AVR8/Endpoint_AVR8.h **** 
 164:../../protocol/lufa/LUFA-120730/LUFA/Drivers/USB/Core/AVR8/../AVR8/../AVR8/Endpoint_AVR8.h **** 		/* Inline Functions: */
 165:../../protocol/lufa/LUFA-120730/LUFA/Drivers/USB/Core/AVR8/../AVR8/../AVR8/Endpoint_AVR8.h **** 			/** Configures the specified endpoint address with the given endpoint type, bank size and number
 166:../../protocol/lufa/LUFA-120730/LUFA/Drivers/USB/Core/AVR8/../AVR8/../AVR8/Endpoint_AVR8.h **** 			 *  banks. Once configured, the endpoint may be read from or written to, depending on its direct
 167:../../protocol/lufa/LUFA-120730/LUFA/Drivers/USB/Core/AVR8/../AVR8/../AVR8/Endpoint_AVR8.h **** 			 *
 168:../../protocol/lufa/LUFA-120730/LUFA/Drivers/USB/Core/AVR8/../AVR8/../AVR8/Endpoint_AVR8.h **** 			 *  \param[in] Address    Endpoint address to configure.
 169:../../protocol/lufa/LUFA-120730/LUFA/Drivers/USB/Core/AVR8/../AVR8/../AVR8/Endpoint_AVR8.h **** 			 *
 170:../../protocol/lufa/LUFA-120730/LUFA/Drivers/USB/Core/AVR8/../AVR8/../AVR8/Endpoint_AVR8.h **** 			 *  \param[in] Type       Type of endpoint to configure, a \c EP_TYPE_* mask. Not all endpoint t
 171:../../protocol/lufa/LUFA-120730/LUFA/Drivers/USB/Core/AVR8/../AVR8/../AVR8/Endpoint_AVR8.h **** 			 *                        are available on Low Speed USB devices - refer to the USB 2.0 specific
 172:../../protocol/lufa/LUFA-120730/LUFA/Drivers/USB/Core/AVR8/../AVR8/../AVR8/Endpoint_AVR8.h **** 			 *
 173:../../protocol/lufa/LUFA-120730/LUFA/Drivers/USB/Core/AVR8/../AVR8/../AVR8/Endpoint_AVR8.h **** 			 *  \param[in] Size       Size of the endpoint's bank, where packets are stored before they are 
 174:../../protocol/lufa/LUFA-120730/LUFA/Drivers/USB/Core/AVR8/../AVR8/../AVR8/Endpoint_AVR8.h **** 			 *                        to the USB host, or after they have been received from the USB host (d
 175:../../protocol/lufa/LUFA-120730/LUFA/Drivers/USB/Core/AVR8/../AVR8/../AVR8/Endpoint_AVR8.h **** 			 *                        the endpoint's data direction). The bank size must indicate the maximu
 176:../../protocol/lufa/LUFA-120730/LUFA/Drivers/USB/Core/AVR8/../AVR8/../AVR8/Endpoint_AVR8.h **** 			 *                        that the endpoint can handle.
 177:../../protocol/lufa/LUFA-120730/LUFA/Drivers/USB/Core/AVR8/../AVR8/../AVR8/Endpoint_AVR8.h **** 			 *
 178:../../protocol/lufa/LUFA-120730/LUFA/Drivers/USB/Core/AVR8/../AVR8/../AVR8/Endpoint_AVR8.h **** 			 *  \param[in] Banks      Number of banks to use for the endpoint being configured.
 179:../../protocol/lufa/LUFA-120730/LUFA/Drivers/USB/Core/AVR8/../AVR8/../AVR8/Endpoint_AVR8.h **** 			 *
 180:../../protocol/lufa/LUFA-120730/LUFA/Drivers/USB/Core/AVR8/../AVR8/../AVR8/Endpoint_AVR8.h **** 			 *  \attention When the \c ORDERED_EP_CONFIG compile time option is used, Endpoints <b>must</b> 
 181:../../protocol/lufa/LUFA-120730/LUFA/Drivers/USB/Core/AVR8/../AVR8/../AVR8/Endpoint_AVR8.h **** 			 *             ascending order, or bank corruption will occur.
 182:../../protocol/lufa/LUFA-120730/LUFA/Drivers/USB/Core/AVR8/../AVR8/../AVR8/Endpoint_AVR8.h **** 			 *
 183:../../protocol/lufa/LUFA-120730/LUFA/Drivers/USB/Core/AVR8/../AVR8/../AVR8/Endpoint_AVR8.h **** 			 *  \note Different endpoints may have different maximum packet sizes based on the endpoint's in
 184:../../protocol/lufa/LUFA-120730/LUFA/Drivers/USB/Core/AVR8/../AVR8/../AVR8/Endpoint_AVR8.h **** 			 *        refer to the chosen microcontroller model's datasheet to determine the maximum bank si
 185:../../protocol/lufa/LUFA-120730/LUFA/Drivers/USB/Core/AVR8/../AVR8/../AVR8/Endpoint_AVR8.h **** 			 *        \n\n
 186:../../protocol/lufa/LUFA-120730/LUFA/Drivers/USB/Core/AVR8/../AVR8/../AVR8/Endpoint_AVR8.h **** 			 *
 187:../../protocol/lufa/LUFA-120730/LUFA/Drivers/USB/Core/AVR8/../AVR8/../AVR8/Endpoint_AVR8.h **** 			 *  \note The default control endpoint should not be manually configured by the user application
 188:../../protocol/lufa/LUFA-120730/LUFA/Drivers/USB/Core/AVR8/../AVR8/../AVR8/Endpoint_AVR8.h **** 			 *        it is automatically configured by the library internally.
 189:../../protocol/lufa/LUFA-120730/LUFA/Drivers/USB/Core/AVR8/../AVR8/../AVR8/Endpoint_AVR8.h **** 			 *        \n\n
 190:../../protocol/lufa/LUFA-120730/LUFA/Drivers/USB/Core/AVR8/../AVR8/../AVR8/Endpoint_AVR8.h **** 			 *
 191:../../protocol/lufa/LUFA-120730/LUFA/Drivers/USB/Core/AVR8/../AVR8/../AVR8/Endpoint_AVR8.h **** 			 *  \note This routine will automatically select the specified endpoint upon success. Upon failu
 192:../../protocol/lufa/LUFA-120730/LUFA/Drivers/USB/Core/AVR8/../AVR8/../AVR8/Endpoint_AVR8.h **** 			 *        which failed to reconfigure correctly will be selected.
 193:../../protocol/lufa/LUFA-120730/LUFA/Drivers/USB/Core/AVR8/../AVR8/../AVR8/Endpoint_AVR8.h **** 			 *
 194:../../protocol/lufa/LUFA-120730/LUFA/Drivers/USB/Core/AVR8/../AVR8/../AVR8/Endpoint_AVR8.h **** 			 *  \return Boolean \c true if the configuration succeeded, \c false otherwise.
 195:../../protocol/lufa/LUFA-120730/LUFA/Drivers/USB/Core/AVR8/../AVR8/../AVR8/Endpoint_AVR8.h **** 			 */
 196:../../protocol/lufa/LUFA-120730/LUFA/Drivers/USB/Core/AVR8/../AVR8/../AVR8/Endpoint_AVR8.h **** 			static inline bool Endpoint_ConfigureEndpoint(const uint8_t Address,
 197:../../protocol/lufa/LUFA-120730/LUFA/Drivers/USB/Core/AVR8/../AVR8/../AVR8/Endpoint_AVR8.h **** 			                                              const uint8_t Type,
 198:../../protocol/lufa/LUFA-120730/LUFA/Drivers/USB/Core/AVR8/../AVR8/../AVR8/Endpoint_AVR8.h **** 			                                              const uint16_t Size,
 199:../../protocol/lufa/LUFA-120730/LUFA/Drivers/USB/Core/AVR8/../AVR8/../AVR8/Endpoint_AVR8.h **** 			                                              const uint8_t Banks) ATTR_ALWAYS_INLINE;
 200:../../protocol/lufa/LUFA-120730/LUFA/Drivers/USB/Core/AVR8/../AVR8/../AVR8/Endpoint_AVR8.h **** 			static inline bool Endpoint_ConfigureEndpoint(const uint8_t Address,
 201:../../protocol/lufa/LUFA-120730/LUFA/Drivers/USB/Core/AVR8/../AVR8/../AVR8/Endpoint_AVR8.h **** 			                                              const uint8_t Type,
 202:../../protocol/lufa/LUFA-120730/LUFA/Drivers/USB/Core/AVR8/../AVR8/../AVR8/Endpoint_AVR8.h **** 			                                              const uint16_t Size,
 203:../../protocol/lufa/LUFA-120730/LUFA/Drivers/USB/Core/AVR8/../AVR8/../AVR8/Endpoint_AVR8.h **** 			                                              const uint8_t Banks)
 204:../../protocol/lufa/LUFA-120730/LUFA/Drivers/USB/Core/AVR8/../AVR8/../AVR8/Endpoint_AVR8.h **** 			{
 205:../../protocol/lufa/LUFA-120730/LUFA/Drivers/USB/Core/AVR8/../AVR8/../AVR8/Endpoint_AVR8.h **** 				uint8_t Number = (Address & ENDPOINT_EPNUM_MASK);
 206:../../protocol/lufa/LUFA-120730/LUFA/Drivers/USB/Core/AVR8/../AVR8/../AVR8/Endpoint_AVR8.h **** 			
 207:../../protocol/lufa/LUFA-120730/LUFA/Drivers/USB/Core/AVR8/../AVR8/../AVR8/Endpoint_AVR8.h **** 				if (Number >= ENDPOINT_TOTAL_ENDPOINTS)
 208:../../protocol/lufa/LUFA-120730/LUFA/Drivers/USB/Core/AVR8/../AVR8/../AVR8/Endpoint_AVR8.h **** 				  return false;
 209:../../protocol/lufa/LUFA-120730/LUFA/Drivers/USB/Core/AVR8/../AVR8/../AVR8/Endpoint_AVR8.h **** 			
 210:../../protocol/lufa/LUFA-120730/LUFA/Drivers/USB/Core/AVR8/../AVR8/../AVR8/Endpoint_AVR8.h **** 				return Endpoint_ConfigureEndpoint_Prv(Number,
 176               		.loc 5 210 0
 177 004a 42E0      		ldi r20,lo8(2)
 178 004c 60E0      		ldi r22,0
 179 004e 80E0      		ldi r24,0
 180 0050 0E94 0000 		call Endpoint_ConfigureEndpoint_Prv
 181               	.LVL6:
 182               	.LBE87:
 183               	.LBE86:
 184               	.LBB88:
 185               	.LBB89:
  95:../../protocol/lufa/LUFA-120730/LUFA/Drivers/USB/Core/AVR8/../AVR8/../AVR8/USBInterrupt_AVR8.h **** 						break;
  96:../../protocol/lufa/LUFA-120730/LUFA/Drivers/USB/Core/AVR8/../AVR8/../AVR8/USBInterrupt_AVR8.h **** 					#endif
  97:../../protocol/lufa/LUFA-120730/LUFA/Drivers/USB/Core/AVR8/../AVR8/../AVR8/USBInterrupt_AVR8.h **** 					#if defined(USB_CAN_BE_BOTH)
  98:../../protocol/lufa/LUFA-120730/LUFA/Drivers/USB/Core/AVR8/../AVR8/../AVR8/USBInterrupt_AVR8.h **** 					case USB_INT_IDTI:
  99:../../protocol/lufa/LUFA-120730/LUFA/Drivers/USB/Core/AVR8/../AVR8/../AVR8/USBInterrupt_AVR8.h **** 						USBCON |= (1 << IDTE);
 100:../../protocol/lufa/LUFA-120730/LUFA/Drivers/USB/Core/AVR8/../AVR8/../AVR8/USBInterrupt_AVR8.h **** 						break;
 101:../../protocol/lufa/LUFA-120730/LUFA/Drivers/USB/Core/AVR8/../AVR8/../AVR8/USBInterrupt_AVR8.h **** 					#endif
 102:../../protocol/lufa/LUFA-120730/LUFA/Drivers/USB/Core/AVR8/../AVR8/../AVR8/USBInterrupt_AVR8.h **** 					#if defined(USB_CAN_BE_DEVICE)
 103:../../protocol/lufa/LUFA-120730/LUFA/Drivers/USB/Core/AVR8/../AVR8/../AVR8/USBInterrupt_AVR8.h **** 					case USB_INT_WAKEUPI:
 104:../../protocol/lufa/LUFA-120730/LUFA/Drivers/USB/Core/AVR8/../AVR8/../AVR8/USBInterrupt_AVR8.h **** 						UDIEN  |= (1 << WAKEUPE);
 105:../../protocol/lufa/LUFA-120730/LUFA/Drivers/USB/Core/AVR8/../AVR8/../AVR8/USBInterrupt_AVR8.h **** 						break;
 106:../../protocol/lufa/LUFA-120730/LUFA/Drivers/USB/Core/AVR8/../AVR8/../AVR8/USBInterrupt_AVR8.h **** 					case USB_INT_SUSPI:
 107:../../protocol/lufa/LUFA-120730/LUFA/Drivers/USB/Core/AVR8/../AVR8/../AVR8/USBInterrupt_AVR8.h **** 						UDIEN  |= (1 << SUSPE);
 108:../../protocol/lufa/LUFA-120730/LUFA/Drivers/USB/Core/AVR8/../AVR8/../AVR8/USBInterrupt_AVR8.h **** 						break;
 109:../../protocol/lufa/LUFA-120730/LUFA/Drivers/USB/Core/AVR8/../AVR8/../AVR8/USBInterrupt_AVR8.h **** 					case USB_INT_EORSTI:
 110:../../protocol/lufa/LUFA-120730/LUFA/Drivers/USB/Core/AVR8/../AVR8/../AVR8/USBInterrupt_AVR8.h **** 						UDIEN  |= (1 << EORSTE);
 111:../../protocol/lufa/LUFA-120730/LUFA/Drivers/USB/Core/AVR8/../AVR8/../AVR8/USBInterrupt_AVR8.h **** 						break;
 112:../../protocol/lufa/LUFA-120730/LUFA/Drivers/USB/Core/AVR8/../AVR8/../AVR8/USBInterrupt_AVR8.h **** 					case USB_INT_SOFI:
 113:../../protocol/lufa/LUFA-120730/LUFA/Drivers/USB/Core/AVR8/../AVR8/../AVR8/USBInterrupt_AVR8.h **** 						UDIEN  |= (1 << SOFE);
 114:../../protocol/lufa/LUFA-120730/LUFA/Drivers/USB/Core/AVR8/../AVR8/../AVR8/USBInterrupt_AVR8.h **** 						break;
 115:../../protocol/lufa/LUFA-120730/LUFA/Drivers/USB/Core/AVR8/../AVR8/../AVR8/USBInterrupt_AVR8.h **** 					case USB_INT_RXSTPI:
 116:../../protocol/lufa/LUFA-120730/LUFA/Drivers/USB/Core/AVR8/../AVR8/../AVR8/USBInterrupt_AVR8.h **** 						UEIENX |= (1 << RXSTPE);
 117:../../protocol/lufa/LUFA-120730/LUFA/Drivers/USB/Core/AVR8/../AVR8/../AVR8/USBInterrupt_AVR8.h **** 						break;
 118:../../protocol/lufa/LUFA-120730/LUFA/Drivers/USB/Core/AVR8/../AVR8/../AVR8/USBInterrupt_AVR8.h **** 					#endif
 119:../../protocol/lufa/LUFA-120730/LUFA/Drivers/USB/Core/AVR8/../AVR8/../AVR8/USBInterrupt_AVR8.h **** 					#if defined(USB_CAN_BE_HOST)
 120:../../protocol/lufa/LUFA-120730/LUFA/Drivers/USB/Core/AVR8/../AVR8/../AVR8/USBInterrupt_AVR8.h **** 					case USB_INT_HSOFI:
 121:../../protocol/lufa/LUFA-120730/LUFA/Drivers/USB/Core/AVR8/../AVR8/../AVR8/USBInterrupt_AVR8.h **** 						UHIEN  |= (1 << HSOFE);
 122:../../protocol/lufa/LUFA-120730/LUFA/Drivers/USB/Core/AVR8/../AVR8/../AVR8/USBInterrupt_AVR8.h **** 						break;
 123:../../protocol/lufa/LUFA-120730/LUFA/Drivers/USB/Core/AVR8/../AVR8/../AVR8/USBInterrupt_AVR8.h **** 					case USB_INT_DCONNI:
 124:../../protocol/lufa/LUFA-120730/LUFA/Drivers/USB/Core/AVR8/../AVR8/../AVR8/USBInterrupt_AVR8.h **** 						UHIEN  |= (1 << DCONNE);
 125:../../protocol/lufa/LUFA-120730/LUFA/Drivers/USB/Core/AVR8/../AVR8/../AVR8/USBInterrupt_AVR8.h **** 						break;
 126:../../protocol/lufa/LUFA-120730/LUFA/Drivers/USB/Core/AVR8/../AVR8/../AVR8/USBInterrupt_AVR8.h **** 					case USB_INT_DDISCI:
 127:../../protocol/lufa/LUFA-120730/LUFA/Drivers/USB/Core/AVR8/../AVR8/../AVR8/USBInterrupt_AVR8.h **** 						UHIEN  |= (1 << DDISCE);
 128:../../protocol/lufa/LUFA-120730/LUFA/Drivers/USB/Core/AVR8/../AVR8/../AVR8/USBInterrupt_AVR8.h **** 						break;
 129:../../protocol/lufa/LUFA-120730/LUFA/Drivers/USB/Core/AVR8/../AVR8/../AVR8/USBInterrupt_AVR8.h **** 					case USB_INT_RSTI:
 130:../../protocol/lufa/LUFA-120730/LUFA/Drivers/USB/Core/AVR8/../AVR8/../AVR8/USBInterrupt_AVR8.h **** 						UHIEN  |= (1 << RSTE);
 131:../../protocol/lufa/LUFA-120730/LUFA/Drivers/USB/Core/AVR8/../AVR8/../AVR8/USBInterrupt_AVR8.h **** 						break;
 132:../../protocol/lufa/LUFA-120730/LUFA/Drivers/USB/Core/AVR8/../AVR8/../AVR8/USBInterrupt_AVR8.h **** 					case USB_INT_BCERRI:
 133:../../protocol/lufa/LUFA-120730/LUFA/Drivers/USB/Core/AVR8/../AVR8/../AVR8/USBInterrupt_AVR8.h **** 						OTGIEN |= (1 << BCERRE);
 134:../../protocol/lufa/LUFA-120730/LUFA/Drivers/USB/Core/AVR8/../AVR8/../AVR8/USBInterrupt_AVR8.h **** 						break;
 135:../../protocol/lufa/LUFA-120730/LUFA/Drivers/USB/Core/AVR8/../AVR8/../AVR8/USBInterrupt_AVR8.h **** 					case USB_INT_VBERRI:
 136:../../protocol/lufa/LUFA-120730/LUFA/Drivers/USB/Core/AVR8/../AVR8/../AVR8/USBInterrupt_AVR8.h **** 						OTGIEN |= (1 << VBERRE);
 137:../../protocol/lufa/LUFA-120730/LUFA/Drivers/USB/Core/AVR8/../AVR8/../AVR8/USBInterrupt_AVR8.h **** 						break;
 138:../../protocol/lufa/LUFA-120730/LUFA/Drivers/USB/Core/AVR8/../AVR8/../AVR8/USBInterrupt_AVR8.h **** 					case USB_INT_SRPI:
 139:../../protocol/lufa/LUFA-120730/LUFA/Drivers/USB/Core/AVR8/../AVR8/../AVR8/USBInterrupt_AVR8.h **** 						OTGIEN |= (1 << SRPE);
 140:../../protocol/lufa/LUFA-120730/LUFA/Drivers/USB/Core/AVR8/../AVR8/../AVR8/USBInterrupt_AVR8.h **** 						break;
 141:../../protocol/lufa/LUFA-120730/LUFA/Drivers/USB/Core/AVR8/../AVR8/../AVR8/USBInterrupt_AVR8.h **** 					#endif
 142:../../protocol/lufa/LUFA-120730/LUFA/Drivers/USB/Core/AVR8/../AVR8/../AVR8/USBInterrupt_AVR8.h **** 				}
 143:../../protocol/lufa/LUFA-120730/LUFA/Drivers/USB/Core/AVR8/../AVR8/../AVR8/USBInterrupt_AVR8.h **** 			}
 144:../../protocol/lufa/LUFA-120730/LUFA/Drivers/USB/Core/AVR8/../AVR8/../AVR8/USBInterrupt_AVR8.h **** 
 145:../../protocol/lufa/LUFA-120730/LUFA/Drivers/USB/Core/AVR8/../AVR8/../AVR8/USBInterrupt_AVR8.h **** 			static inline void USB_INT_Disable(const uint8_t Interrupt) ATTR_ALWAYS_INLINE;
 146:../../protocol/lufa/LUFA-120730/LUFA/Drivers/USB/Core/AVR8/../AVR8/../AVR8/USBInterrupt_AVR8.h **** 			static inline void USB_INT_Disable(const uint8_t Interrupt)
 147:../../protocol/lufa/LUFA-120730/LUFA/Drivers/USB/Core/AVR8/../AVR8/../AVR8/USBInterrupt_AVR8.h **** 			{
 148:../../protocol/lufa/LUFA-120730/LUFA/Drivers/USB/Core/AVR8/../AVR8/../AVR8/USBInterrupt_AVR8.h **** 				switch (Interrupt)
 149:../../protocol/lufa/LUFA-120730/LUFA/Drivers/USB/Core/AVR8/../AVR8/../AVR8/USBInterrupt_AVR8.h **** 				{
 150:../../protocol/lufa/LUFA-120730/LUFA/Drivers/USB/Core/AVR8/../AVR8/../AVR8/USBInterrupt_AVR8.h **** 					#if (defined(USB_SERIES_4_AVR) || defined(USB_SERIES_6_AVR) || defined(USB_SERIES_7_AVR))
 151:../../protocol/lufa/LUFA-120730/LUFA/Drivers/USB/Core/AVR8/../AVR8/../AVR8/USBInterrupt_AVR8.h **** 					case USB_INT_VBUSTI:
 152:../../protocol/lufa/LUFA-120730/LUFA/Drivers/USB/Core/AVR8/../AVR8/../AVR8/USBInterrupt_AVR8.h **** 						USBCON &= ~(1 << VBUSTE);
 153:../../protocol/lufa/LUFA-120730/LUFA/Drivers/USB/Core/AVR8/../AVR8/../AVR8/USBInterrupt_AVR8.h **** 						break;
 154:../../protocol/lufa/LUFA-120730/LUFA/Drivers/USB/Core/AVR8/../AVR8/../AVR8/USBInterrupt_AVR8.h **** 					#endif
 155:../../protocol/lufa/LUFA-120730/LUFA/Drivers/USB/Core/AVR8/../AVR8/../AVR8/USBInterrupt_AVR8.h **** 					#if defined(USB_CAN_BE_BOTH)
 156:../../protocol/lufa/LUFA-120730/LUFA/Drivers/USB/Core/AVR8/../AVR8/../AVR8/USBInterrupt_AVR8.h **** 					case USB_INT_IDTI:
 157:../../protocol/lufa/LUFA-120730/LUFA/Drivers/USB/Core/AVR8/../AVR8/../AVR8/USBInterrupt_AVR8.h **** 						USBCON &= ~(1 << IDTE);
 158:../../protocol/lufa/LUFA-120730/LUFA/Drivers/USB/Core/AVR8/../AVR8/../AVR8/USBInterrupt_AVR8.h **** 						break;
 159:../../protocol/lufa/LUFA-120730/LUFA/Drivers/USB/Core/AVR8/../AVR8/../AVR8/USBInterrupt_AVR8.h **** 					#endif
 160:../../protocol/lufa/LUFA-120730/LUFA/Drivers/USB/Core/AVR8/../AVR8/../AVR8/USBInterrupt_AVR8.h **** 					#if defined(USB_CAN_BE_DEVICE)
 161:../../protocol/lufa/LUFA-120730/LUFA/Drivers/USB/Core/AVR8/../AVR8/../AVR8/USBInterrupt_AVR8.h **** 					case USB_INT_WAKEUPI:
 162:../../protocol/lufa/LUFA-120730/LUFA/Drivers/USB/Core/AVR8/../AVR8/../AVR8/USBInterrupt_AVR8.h **** 						UDIEN  &= ~(1 << WAKEUPE);
 163:../../protocol/lufa/LUFA-120730/LUFA/Drivers/USB/Core/AVR8/../AVR8/../AVR8/USBInterrupt_AVR8.h **** 						break;
 164:../../protocol/lufa/LUFA-120730/LUFA/Drivers/USB/Core/AVR8/../AVR8/../AVR8/USBInterrupt_AVR8.h **** 					case USB_INT_SUSPI:
 165:../../protocol/lufa/LUFA-120730/LUFA/Drivers/USB/Core/AVR8/../AVR8/../AVR8/USBInterrupt_AVR8.h **** 						UDIEN  &= ~(1 << SUSPE);
 166:../../protocol/lufa/LUFA-120730/LUFA/Drivers/USB/Core/AVR8/../AVR8/../AVR8/USBInterrupt_AVR8.h **** 						break;
 167:../../protocol/lufa/LUFA-120730/LUFA/Drivers/USB/Core/AVR8/../AVR8/../AVR8/USBInterrupt_AVR8.h **** 					case USB_INT_EORSTI:
 168:../../protocol/lufa/LUFA-120730/LUFA/Drivers/USB/Core/AVR8/../AVR8/../AVR8/USBInterrupt_AVR8.h **** 						UDIEN  &= ~(1 << EORSTE);
 169:../../protocol/lufa/LUFA-120730/LUFA/Drivers/USB/Core/AVR8/../AVR8/../AVR8/USBInterrupt_AVR8.h **** 						break;
 170:../../protocol/lufa/LUFA-120730/LUFA/Drivers/USB/Core/AVR8/../AVR8/../AVR8/USBInterrupt_AVR8.h **** 					case USB_INT_SOFI:
 171:../../protocol/lufa/LUFA-120730/LUFA/Drivers/USB/Core/AVR8/../AVR8/../AVR8/USBInterrupt_AVR8.h **** 						UDIEN  &= ~(1 << SOFE);
 172:../../protocol/lufa/LUFA-120730/LUFA/Drivers/USB/Core/AVR8/../AVR8/../AVR8/USBInterrupt_AVR8.h **** 						break;
 173:../../protocol/lufa/LUFA-120730/LUFA/Drivers/USB/Core/AVR8/../AVR8/../AVR8/USBInterrupt_AVR8.h **** 					case USB_INT_RXSTPI:
 174:../../protocol/lufa/LUFA-120730/LUFA/Drivers/USB/Core/AVR8/../AVR8/../AVR8/USBInterrupt_AVR8.h **** 						UEIENX &= ~(1 << RXSTPE);
 175:../../protocol/lufa/LUFA-120730/LUFA/Drivers/USB/Core/AVR8/../AVR8/../AVR8/USBInterrupt_AVR8.h **** 						break;
 176:../../protocol/lufa/LUFA-120730/LUFA/Drivers/USB/Core/AVR8/../AVR8/../AVR8/USBInterrupt_AVR8.h **** 					#endif
 177:../../protocol/lufa/LUFA-120730/LUFA/Drivers/USB/Core/AVR8/../AVR8/../AVR8/USBInterrupt_AVR8.h **** 					#if defined(USB_CAN_BE_HOST)
 178:../../protocol/lufa/LUFA-120730/LUFA/Drivers/USB/Core/AVR8/../AVR8/../AVR8/USBInterrupt_AVR8.h **** 					case USB_INT_HSOFI:
 179:../../protocol/lufa/LUFA-120730/LUFA/Drivers/USB/Core/AVR8/../AVR8/../AVR8/USBInterrupt_AVR8.h **** 						UHIEN  &= ~(1 << HSOFE);
 180:../../protocol/lufa/LUFA-120730/LUFA/Drivers/USB/Core/AVR8/../AVR8/../AVR8/USBInterrupt_AVR8.h **** 						break;
 181:../../protocol/lufa/LUFA-120730/LUFA/Drivers/USB/Core/AVR8/../AVR8/../AVR8/USBInterrupt_AVR8.h **** 					case USB_INT_DCONNI:
 182:../../protocol/lufa/LUFA-120730/LUFA/Drivers/USB/Core/AVR8/../AVR8/../AVR8/USBInterrupt_AVR8.h **** 						UHIEN  &= ~(1 << DCONNE);
 183:../../protocol/lufa/LUFA-120730/LUFA/Drivers/USB/Core/AVR8/../AVR8/../AVR8/USBInterrupt_AVR8.h **** 						break;
 184:../../protocol/lufa/LUFA-120730/LUFA/Drivers/USB/Core/AVR8/../AVR8/../AVR8/USBInterrupt_AVR8.h **** 					case USB_INT_DDISCI:
 185:../../protocol/lufa/LUFA-120730/LUFA/Drivers/USB/Core/AVR8/../AVR8/../AVR8/USBInterrupt_AVR8.h **** 						UHIEN  &= ~(1 << DDISCE);
 186:../../protocol/lufa/LUFA-120730/LUFA/Drivers/USB/Core/AVR8/../AVR8/../AVR8/USBInterrupt_AVR8.h **** 						break;
 187:../../protocol/lufa/LUFA-120730/LUFA/Drivers/USB/Core/AVR8/../AVR8/../AVR8/USBInterrupt_AVR8.h **** 					case USB_INT_RSTI:
 188:../../protocol/lufa/LUFA-120730/LUFA/Drivers/USB/Core/AVR8/../AVR8/../AVR8/USBInterrupt_AVR8.h **** 						UHIEN  &= ~(1 << RSTE);
 189:../../protocol/lufa/LUFA-120730/LUFA/Drivers/USB/Core/AVR8/../AVR8/../AVR8/USBInterrupt_AVR8.h **** 						break;
 190:../../protocol/lufa/LUFA-120730/LUFA/Drivers/USB/Core/AVR8/../AVR8/../AVR8/USBInterrupt_AVR8.h **** 					case USB_INT_BCERRI:
 191:../../protocol/lufa/LUFA-120730/LUFA/Drivers/USB/Core/AVR8/../AVR8/../AVR8/USBInterrupt_AVR8.h **** 						OTGIEN &= ~(1 << BCERRE);
 192:../../protocol/lufa/LUFA-120730/LUFA/Drivers/USB/Core/AVR8/../AVR8/../AVR8/USBInterrupt_AVR8.h **** 						break;
 193:../../protocol/lufa/LUFA-120730/LUFA/Drivers/USB/Core/AVR8/../AVR8/../AVR8/USBInterrupt_AVR8.h **** 					case USB_INT_VBERRI:
 194:../../protocol/lufa/LUFA-120730/LUFA/Drivers/USB/Core/AVR8/../AVR8/../AVR8/USBInterrupt_AVR8.h **** 						OTGIEN &= ~(1 << VBERRE);
 195:../../protocol/lufa/LUFA-120730/LUFA/Drivers/USB/Core/AVR8/../AVR8/../AVR8/USBInterrupt_AVR8.h **** 						break;
 196:../../protocol/lufa/LUFA-120730/LUFA/Drivers/USB/Core/AVR8/../AVR8/../AVR8/USBInterrupt_AVR8.h **** 					case USB_INT_SRPI:
 197:../../protocol/lufa/LUFA-120730/LUFA/Drivers/USB/Core/AVR8/../AVR8/../AVR8/USBInterrupt_AVR8.h **** 						OTGIEN &= ~(1 << SRPE);
 198:../../protocol/lufa/LUFA-120730/LUFA/Drivers/USB/Core/AVR8/../AVR8/../AVR8/USBInterrupt_AVR8.h **** 						break;
 199:../../protocol/lufa/LUFA-120730/LUFA/Drivers/USB/Core/AVR8/../AVR8/../AVR8/USBInterrupt_AVR8.h **** 					#endif
 200:../../protocol/lufa/LUFA-120730/LUFA/Drivers/USB/Core/AVR8/../AVR8/../AVR8/USBInterrupt_AVR8.h **** 				}
 201:../../protocol/lufa/LUFA-120730/LUFA/Drivers/USB/Core/AVR8/../AVR8/../AVR8/USBInterrupt_AVR8.h **** 			}
 202:../../protocol/lufa/LUFA-120730/LUFA/Drivers/USB/Core/AVR8/../AVR8/../AVR8/USBInterrupt_AVR8.h **** 
 203:../../protocol/lufa/LUFA-120730/LUFA/Drivers/USB/Core/AVR8/../AVR8/../AVR8/USBInterrupt_AVR8.h **** 			static inline void USB_INT_Clear(const uint8_t Interrupt) ATTR_ALWAYS_INLINE;
 204:../../protocol/lufa/LUFA-120730/LUFA/Drivers/USB/Core/AVR8/../AVR8/../AVR8/USBInterrupt_AVR8.h **** 			static inline void USB_INT_Clear(const uint8_t Interrupt)
 205:../../protocol/lufa/LUFA-120730/LUFA/Drivers/USB/Core/AVR8/../AVR8/../AVR8/USBInterrupt_AVR8.h **** 			{
 206:../../protocol/lufa/LUFA-120730/LUFA/Drivers/USB/Core/AVR8/../AVR8/../AVR8/USBInterrupt_AVR8.h **** 				switch (Interrupt)
 207:../../protocol/lufa/LUFA-120730/LUFA/Drivers/USB/Core/AVR8/../AVR8/../AVR8/USBInterrupt_AVR8.h **** 				{
 208:../../protocol/lufa/LUFA-120730/LUFA/Drivers/USB/Core/AVR8/../AVR8/../AVR8/USBInterrupt_AVR8.h **** 					#if (defined(USB_SERIES_4_AVR) || defined(USB_SERIES_6_AVR) || defined(USB_SERIES_7_AVR))
 209:../../protocol/lufa/LUFA-120730/LUFA/Drivers/USB/Core/AVR8/../AVR8/../AVR8/USBInterrupt_AVR8.h **** 					case USB_INT_VBUSTI:
 210:../../protocol/lufa/LUFA-120730/LUFA/Drivers/USB/Core/AVR8/../AVR8/../AVR8/USBInterrupt_AVR8.h **** 						USBINT &= ~(1 << VBUSTI);
 211:../../protocol/lufa/LUFA-120730/LUFA/Drivers/USB/Core/AVR8/../AVR8/../AVR8/USBInterrupt_AVR8.h **** 						break;
 212:../../protocol/lufa/LUFA-120730/LUFA/Drivers/USB/Core/AVR8/../AVR8/../AVR8/USBInterrupt_AVR8.h **** 					#endif
 213:../../protocol/lufa/LUFA-120730/LUFA/Drivers/USB/Core/AVR8/../AVR8/../AVR8/USBInterrupt_AVR8.h **** 					#if defined(USB_CAN_BE_BOTH)
 214:../../protocol/lufa/LUFA-120730/LUFA/Drivers/USB/Core/AVR8/../AVR8/../AVR8/USBInterrupt_AVR8.h **** 					case USB_INT_IDTI:
 215:../../protocol/lufa/LUFA-120730/LUFA/Drivers/USB/Core/AVR8/../AVR8/../AVR8/USBInterrupt_AVR8.h **** 						USBINT &= ~(1 << IDTI);
 216:../../protocol/lufa/LUFA-120730/LUFA/Drivers/USB/Core/AVR8/../AVR8/../AVR8/USBInterrupt_AVR8.h **** 						break;
 217:../../protocol/lufa/LUFA-120730/LUFA/Drivers/USB/Core/AVR8/../AVR8/../AVR8/USBInterrupt_AVR8.h **** 					#endif
 218:../../protocol/lufa/LUFA-120730/LUFA/Drivers/USB/Core/AVR8/../AVR8/../AVR8/USBInterrupt_AVR8.h **** 					#if defined(USB_CAN_BE_DEVICE)
 219:../../protocol/lufa/LUFA-120730/LUFA/Drivers/USB/Core/AVR8/../AVR8/../AVR8/USBInterrupt_AVR8.h **** 					case USB_INT_WAKEUPI:
 220:../../protocol/lufa/LUFA-120730/LUFA/Drivers/USB/Core/AVR8/../AVR8/../AVR8/USBInterrupt_AVR8.h **** 						UDINT  &= ~(1 << WAKEUPI);
 221:../../protocol/lufa/LUFA-120730/LUFA/Drivers/USB/Core/AVR8/../AVR8/../AVR8/USBInterrupt_AVR8.h **** 						break;
 222:../../protocol/lufa/LUFA-120730/LUFA/Drivers/USB/Core/AVR8/../AVR8/../AVR8/USBInterrupt_AVR8.h **** 					case USB_INT_SUSPI:
 223:../../protocol/lufa/LUFA-120730/LUFA/Drivers/USB/Core/AVR8/../AVR8/../AVR8/USBInterrupt_AVR8.h **** 						UDINT  &= ~(1 << SUSPI);
 186               		.loc 4 223 0
 187 0054 E1EE      		ldi r30,lo8(-31)
 188 0056 F0E0      		ldi r31,0
 189 0058 8081      		ld r24,Z
 190 005a 8E7F      		andi r24,lo8(-2)
 191 005c 8083      		st Z,r24
 192               	.LVL7:
 193               	.LBE89:
 194               	.LBE88:
 195               	.LBB90:
 196               	.LBB91:
 107:../../protocol/lufa/LUFA-120730/LUFA/Drivers/USB/Core/AVR8/../AVR8/../AVR8/USBInterrupt_AVR8.h **** 						UDIEN  |= (1 << SUSPE);
 197               		.loc 4 107 0
 198 005e E2EE      		ldi r30,lo8(-30)
 199 0060 F0E0      		ldi r31,0
 200 0062 8081      		ld r24,Z
 201 0064 8160      		ori r24,lo8(1)
 202 0066 8083      		st Z,r24
 203               	.LVL8:
 204               	.LBE91:
 205               	.LBE90:
 206               	.LBB92:
 207               	.LBB93:
 110:../../protocol/lufa/LUFA-120730/LUFA/Drivers/USB/Core/AVR8/../AVR8/../AVR8/USBInterrupt_AVR8.h **** 						UDIEN  |= (1 << EORSTE);
 208               		.loc 4 110 0
 209 0068 8081      		ld r24,Z
 210 006a 8860      		ori r24,lo8(8)
 211 006c 8083      		st Z,r24
 212               	.LBE93:
 213               	.LBE92:
 214               	.LBB94:
 215               	.LBB95:
 196:../../protocol/lufa/LUFA-120730/LUFA/Drivers/USB/Core/AVR8/../AVR8/USBController_AVR8.h **** 				UDCON  &= ~(1 << DETACH);
 216               		.loc 2 196 0
 217 006e F801      		movw r30,r16
 218 0070 8081      		ld r24,Z
 219 0072 8E7F      		andi r24,lo8(-2)
 220 0074 8083      		st Z,r24
 221               	.LBE95:
 222               	.LBE94:
 223               	.LBE81:
 224               	.LBE80:
 225               	.LBB96:
 226               	.LBB97:
 374:../../protocol/lufa/LUFA-120730/LUFA/Drivers/USB/Core/AVR8/../AVR8/USBController_AVR8.h **** 				USBCON |=  (1 << OTGPADE);
 227               		.loc 2 374 0
 228 0076 8881      		ld r24,Y
 229 0078 8061      		ori r24,lo8(16)
 230 007a 8883      		st Y,r24
 231               	/* epilogue start */
 232               	.LBE97:
 233               	.LBE96:
 179:../../protocol/lufa/LUFA-120730/LUFA/Drivers/USB/Core/AVR8/USBController_AVR8.c **** }
 234               		.loc 1 179 0
 235 007c DF91      		pop r29
 236 007e CF91      		pop r28
 237 0080 1F91      		pop r17
 238 0082 0F91      		pop r16
 239 0084 0895      		ret
 240               		.cfi_endproc
 241               	.LFE86:
 243               		.section	.text.USB_Init,"ax",@progbits
 244               	.global	USB_Init
 246               	USB_Init:
 247               	.LFB84:
  61:../../protocol/lufa/LUFA-120730/LUFA/Drivers/USB/Core/AVR8/USBController_AVR8.c **** {
 248               		.loc 1 61 0
 249               		.cfi_startproc
 250               	/* prologue: function */
 251               	/* frame size = 0 */
 252               	/* stack size = 0 */
 253               	.L__stack_usage = 0
 254               	.LBB98:
 255               	.LBB99:
 354:../../protocol/lufa/LUFA-120730/LUFA/Drivers/USB/Core/AVR8/../AVR8/USBController_AVR8.h **** 				UHWCON |=  (1 << UVREGE);
 256               		.loc 2 354 0
 257 0000 E7ED      		ldi r30,lo8(-41)
 258 0002 F0E0      		ldi r31,0
 259 0004 8081      		ld r24,Z
 260 0006 8160      		ori r24,lo8(1)
 261 0008 8083      		st Z,r24
 262               	.LBE99:
 263               	.LBE98:
  74:../../protocol/lufa/LUFA-120730/LUFA/Drivers/USB/Core/AVR8/USBController_AVR8.c **** 		PLLFRQ = (1 << PDIV2);
 264               		.loc 1 74 0
 265 000a 84E0      		ldi r24,lo8(4)
 266 000c 82BF      		out 0x32,r24
  92:../../protocol/lufa/LUFA-120730/LUFA/Drivers/USB/Core/AVR8/USBController_AVR8.c **** 	USB_IsInitialized = true;
 267               		.loc 1 92 0
 268 000e 81E0      		ldi r24,lo8(1)
 269 0010 8093 0000 		sts USB_IsInitialized,r24
  94:../../protocol/lufa/LUFA-120730/LUFA/Drivers/USB/Core/AVR8/USBController_AVR8.c **** 	USB_ResetInterface();
 270               		.loc 1 94 0
 271 0014 0C94 0000 		jmp USB_ResetInterface
 272               	.LVL9:
 273               		.cfi_endproc
 274               	.LFE84:
 276               		.text
 277               	.Letext0:
 278               		.file 6 "/usr/local/CrossPack-AVR-20131216/avr/include/stdint.h"
 279               		.file 7 "../../protocol/lufa/LUFA-120730/LUFA/Drivers/USB/Core/AVR8/../AVR8/../Device.h"
 280               		.file 8 "../../protocol/lufa/LUFA-120730/LUFA/Drivers/USB/Core/AVR8/../AVR8/../DeviceStandardReq.h
 281               		.file 9 "../../protocol/lufa/LUFA-120730/LUFA/Drivers/USB/Core/AVR8/../AVR8/../USBTask.h"