   1               		.file	"USBInterrupt_AVR8.c"
   2               	__SP_H__ = 0x3e
   3               	__SP_L__ = 0x3d
   4               	__SREG__ = 0x3f
   5               	__tmp_reg__ = 0
   6               	__zero_reg__ = 1
   7               		.text
   8               	.Ltext0:
   9               		.cfi_sections	.debug_frame
  10               		.section	.text.USB_INT_DisableAllInterrupts,"ax",@progbits
  11               	.global	USB_INT_DisableAllInterrupts
  13               	USB_INT_DisableAllInterrupts:
  14               	.LFB84:
  15               		.file 1 "../../protocol/lufa/LUFA-120730/LUFA/Drivers/USB/Core/AVR8/USBInterrupt_AVR8.c"
   1:../../protocol/lufa/LUFA-120730/LUFA/Drivers/USB/Core/AVR8/USBInterrupt_AVR8.c **** /*
   2:../../protocol/lufa/LUFA-120730/LUFA/Drivers/USB/Core/AVR8/USBInterrupt_AVR8.c ****              LUFA Library
   3:../../protocol/lufa/LUFA-120730/LUFA/Drivers/USB/Core/AVR8/USBInterrupt_AVR8.c ****      Copyright (C) Dean Camera, 2012.
   4:../../protocol/lufa/LUFA-120730/LUFA/Drivers/USB/Core/AVR8/USBInterrupt_AVR8.c **** 
   5:../../protocol/lufa/LUFA-120730/LUFA/Drivers/USB/Core/AVR8/USBInterrupt_AVR8.c ****   dean [at] fourwalledcubicle [dot] com
   6:../../protocol/lufa/LUFA-120730/LUFA/Drivers/USB/Core/AVR8/USBInterrupt_AVR8.c ****            www.lufa-lib.org
   7:../../protocol/lufa/LUFA-120730/LUFA/Drivers/USB/Core/AVR8/USBInterrupt_AVR8.c **** */
   8:../../protocol/lufa/LUFA-120730/LUFA/Drivers/USB/Core/AVR8/USBInterrupt_AVR8.c **** 
   9:../../protocol/lufa/LUFA-120730/LUFA/Drivers/USB/Core/AVR8/USBInterrupt_AVR8.c **** /*
  10:../../protocol/lufa/LUFA-120730/LUFA/Drivers/USB/Core/AVR8/USBInterrupt_AVR8.c ****   Copyright 2012  Dean Camera (dean [at] fourwalledcubicle [dot] com)
  11:../../protocol/lufa/LUFA-120730/LUFA/Drivers/USB/Core/AVR8/USBInterrupt_AVR8.c **** 
  12:../../protocol/lufa/LUFA-120730/LUFA/Drivers/USB/Core/AVR8/USBInterrupt_AVR8.c ****   Permission to use, copy, modify, distribute, and sell this
  13:../../protocol/lufa/LUFA-120730/LUFA/Drivers/USB/Core/AVR8/USBInterrupt_AVR8.c ****   software and its documentation for any purpose is hereby granted
  14:../../protocol/lufa/LUFA-120730/LUFA/Drivers/USB/Core/AVR8/USBInterrupt_AVR8.c ****   without fee, provided that the above copyright notice appear in
  15:../../protocol/lufa/LUFA-120730/LUFA/Drivers/USB/Core/AVR8/USBInterrupt_AVR8.c ****   all copies and that both that the copyright notice and this
  16:../../protocol/lufa/LUFA-120730/LUFA/Drivers/USB/Core/AVR8/USBInterrupt_AVR8.c ****   permission notice and warranty disclaimer appear in supporting
  17:../../protocol/lufa/LUFA-120730/LUFA/Drivers/USB/Core/AVR8/USBInterrupt_AVR8.c ****   documentation, and that the name of the author not be used in
  18:../../protocol/lufa/LUFA-120730/LUFA/Drivers/USB/Core/AVR8/USBInterrupt_AVR8.c ****   advertising or publicity pertaining to distribution of the
  19:../../protocol/lufa/LUFA-120730/LUFA/Drivers/USB/Core/AVR8/USBInterrupt_AVR8.c ****   software without specific, written prior permission.
  20:../../protocol/lufa/LUFA-120730/LUFA/Drivers/USB/Core/AVR8/USBInterrupt_AVR8.c **** 
  21:../../protocol/lufa/LUFA-120730/LUFA/Drivers/USB/Core/AVR8/USBInterrupt_AVR8.c ****   The author disclaim all warranties with regard to this
  22:../../protocol/lufa/LUFA-120730/LUFA/Drivers/USB/Core/AVR8/USBInterrupt_AVR8.c ****   software, including all implied warranties of merchantability
  23:../../protocol/lufa/LUFA-120730/LUFA/Drivers/USB/Core/AVR8/USBInterrupt_AVR8.c ****   and fitness.  In no event shall the author be liable for any
  24:../../protocol/lufa/LUFA-120730/LUFA/Drivers/USB/Core/AVR8/USBInterrupt_AVR8.c ****   special, indirect or consequential damages or any damages
  25:../../protocol/lufa/LUFA-120730/LUFA/Drivers/USB/Core/AVR8/USBInterrupt_AVR8.c ****   whatsoever resulting from loss of use, data or profits, whether
  26:../../protocol/lufa/LUFA-120730/LUFA/Drivers/USB/Core/AVR8/USBInterrupt_AVR8.c ****   in an action of contract, negligence or other tortious action,
  27:../../protocol/lufa/LUFA-120730/LUFA/Drivers/USB/Core/AVR8/USBInterrupt_AVR8.c ****   arising out of or in connection with the use or performance of
  28:../../protocol/lufa/LUFA-120730/LUFA/Drivers/USB/Core/AVR8/USBInterrupt_AVR8.c ****   this software.
  29:../../protocol/lufa/LUFA-120730/LUFA/Drivers/USB/Core/AVR8/USBInterrupt_AVR8.c **** */
  30:../../protocol/lufa/LUFA-120730/LUFA/Drivers/USB/Core/AVR8/USBInterrupt_AVR8.c **** 
  31:../../protocol/lufa/LUFA-120730/LUFA/Drivers/USB/Core/AVR8/USBInterrupt_AVR8.c **** #include "../../../../Common/Common.h"
  32:../../protocol/lufa/LUFA-120730/LUFA/Drivers/USB/Core/AVR8/USBInterrupt_AVR8.c **** #if (ARCH == ARCH_AVR8)
  33:../../protocol/lufa/LUFA-120730/LUFA/Drivers/USB/Core/AVR8/USBInterrupt_AVR8.c **** 
  34:../../protocol/lufa/LUFA-120730/LUFA/Drivers/USB/Core/AVR8/USBInterrupt_AVR8.c **** #define  __INCLUDE_FROM_USB_DRIVER
  35:../../protocol/lufa/LUFA-120730/LUFA/Drivers/USB/Core/AVR8/USBInterrupt_AVR8.c **** #include "../USBInterrupt.h"
  36:../../protocol/lufa/LUFA-120730/LUFA/Drivers/USB/Core/AVR8/USBInterrupt_AVR8.c **** 
  37:../../protocol/lufa/LUFA-120730/LUFA/Drivers/USB/Core/AVR8/USBInterrupt_AVR8.c **** void USB_INT_DisableAllInterrupts(void)
  38:../../protocol/lufa/LUFA-120730/LUFA/Drivers/USB/Core/AVR8/USBInterrupt_AVR8.c **** {
  16               		.loc 1 38 0
  17               		.cfi_startproc
  18               	/* prologue: function */
  19               	/* frame size = 0 */
  20               	/* stack size = 0 */
  21               	.L__stack_usage = 0
  39:../../protocol/lufa/LUFA-120730/LUFA/Drivers/USB/Core/AVR8/USBInterrupt_AVR8.c **** 	#if defined(USB_SERIES_6_AVR) || defined(USB_SERIES_7_AVR)
  40:../../protocol/lufa/LUFA-120730/LUFA/Drivers/USB/Core/AVR8/USBInterrupt_AVR8.c **** 	USBCON &= ~((1 << VBUSTE) | (1 << IDTE));
  41:../../protocol/lufa/LUFA-120730/LUFA/Drivers/USB/Core/AVR8/USBInterrupt_AVR8.c **** 	#elif defined(USB_SERIES_4_AVR)
  42:../../protocol/lufa/LUFA-120730/LUFA/Drivers/USB/Core/AVR8/USBInterrupt_AVR8.c **** 	USBCON &= ~(1 << VBUSTE);
  22               		.loc 1 42 0
  23 0000 E8ED      		ldi r30,lo8(-40)
  24 0002 F0E0      		ldi r31,0
  25 0004 8081      		ld r24,Z
  26 0006 8E7F      		andi r24,lo8(-2)
  27 0008 8083      		st Z,r24
  43:../../protocol/lufa/LUFA-120730/LUFA/Drivers/USB/Core/AVR8/USBInterrupt_AVR8.c **** 	#endif
  44:../../protocol/lufa/LUFA-120730/LUFA/Drivers/USB/Core/AVR8/USBInterrupt_AVR8.c **** 
  45:../../protocol/lufa/LUFA-120730/LUFA/Drivers/USB/Core/AVR8/USBInterrupt_AVR8.c **** 	#if defined(USB_CAN_BE_BOTH)
  46:../../protocol/lufa/LUFA-120730/LUFA/Drivers/USB/Core/AVR8/USBInterrupt_AVR8.c **** 	OTGIEN  = 0;
  47:../../protocol/lufa/LUFA-120730/LUFA/Drivers/USB/Core/AVR8/USBInterrupt_AVR8.c **** 	#endif
  48:../../protocol/lufa/LUFA-120730/LUFA/Drivers/USB/Core/AVR8/USBInterrupt_AVR8.c **** 
  49:../../protocol/lufa/LUFA-120730/LUFA/Drivers/USB/Core/AVR8/USBInterrupt_AVR8.c **** 	#if defined(USB_CAN_BE_HOST)
  50:../../protocol/lufa/LUFA-120730/LUFA/Drivers/USB/Core/AVR8/USBInterrupt_AVR8.c **** 	UHIEN   = 0;
  51:../../protocol/lufa/LUFA-120730/LUFA/Drivers/USB/Core/AVR8/USBInterrupt_AVR8.c **** 	#endif
  52:../../protocol/lufa/LUFA-120730/LUFA/Drivers/USB/Core/AVR8/USBInterrupt_AVR8.c **** 
  53:../../protocol/lufa/LUFA-120730/LUFA/Drivers/USB/Core/AVR8/USBInterrupt_AVR8.c **** 	#if defined(USB_CAN_BE_DEVICE)
  54:../../protocol/lufa/LUFA-120730/LUFA/Drivers/USB/Core/AVR8/USBInterrupt_AVR8.c **** 	UDIEN   = 0;
  28               		.loc 1 54 0
  29 000a 1092 E200 		sts 226,__zero_reg__
  30 000e 0895      		ret
  31               		.cfi_endproc
  32               	.LFE84:
  34               		.section	.text.USB_INT_ClearAllInterrupts,"ax",@progbits
  35               	.global	USB_INT_ClearAllInterrupts
  37               	USB_INT_ClearAllInterrupts:
  38               	.LFB85:
  55:../../protocol/lufa/LUFA-120730/LUFA/Drivers/USB/Core/AVR8/USBInterrupt_AVR8.c **** 	#endif
  56:../../protocol/lufa/LUFA-120730/LUFA/Drivers/USB/Core/AVR8/USBInterrupt_AVR8.c **** }
  57:../../protocol/lufa/LUFA-120730/LUFA/Drivers/USB/Core/AVR8/USBInterrupt_AVR8.c **** 
  58:../../protocol/lufa/LUFA-120730/LUFA/Drivers/USB/Core/AVR8/USBInterrupt_AVR8.c **** void USB_INT_ClearAllInterrupts(void)
  59:../../protocol/lufa/LUFA-120730/LUFA/Drivers/USB/Core/AVR8/USBInterrupt_AVR8.c **** {
  39               		.loc 1 59 0
  40               		.cfi_startproc
  41               	/* prologue: function */
  42               	/* frame size = 0 */
  43               	/* stack size = 0 */
  44               	.L__stack_usage = 0
  60:../../protocol/lufa/LUFA-120730/LUFA/Drivers/USB/Core/AVR8/USBInterrupt_AVR8.c **** 	#if defined(USB_SERIES_4_AVR) || defined(USB_SERIES_6_AVR) || defined(USB_SERIES_7_AVR)
  61:../../protocol/lufa/LUFA-120730/LUFA/Drivers/USB/Core/AVR8/USBInterrupt_AVR8.c **** 	USBINT = 0;
  45               		.loc 1 61 0
  46 0000 1092 DA00 		sts 218,__zero_reg__
  62:../../protocol/lufa/LUFA-120730/LUFA/Drivers/USB/Core/AVR8/USBInterrupt_AVR8.c **** 	#endif
  63:../../protocol/lufa/LUFA-120730/LUFA/Drivers/USB/Core/AVR8/USBInterrupt_AVR8.c **** 
  64:../../protocol/lufa/LUFA-120730/LUFA/Drivers/USB/Core/AVR8/USBInterrupt_AVR8.c **** 	#if defined(USB_CAN_BE_BOTH)
  65:../../protocol/lufa/LUFA-120730/LUFA/Drivers/USB/Core/AVR8/USBInterrupt_AVR8.c **** 	OTGINT = 0;
  66:../../protocol/lufa/LUFA-120730/LUFA/Drivers/USB/Core/AVR8/USBInterrupt_AVR8.c **** 	#endif
  67:../../protocol/lufa/LUFA-120730/LUFA/Drivers/USB/Core/AVR8/USBInterrupt_AVR8.c **** 
  68:../../protocol/lufa/LUFA-120730/LUFA/Drivers/USB/Core/AVR8/USBInterrupt_AVR8.c **** 	#if defined(USB_CAN_BE_HOST)
  69:../../protocol/lufa/LUFA-120730/LUFA/Drivers/USB/Core/AVR8/USBInterrupt_AVR8.c **** 	UHINT  = 0;
  70:../../protocol/lufa/LUFA-120730/LUFA/Drivers/USB/Core/AVR8/USBInterrupt_AVR8.c **** 	#endif
  71:../../protocol/lufa/LUFA-120730/LUFA/Drivers/USB/Core/AVR8/USBInterrupt_AVR8.c **** 
  72:../../protocol/lufa/LUFA-120730/LUFA/Drivers/USB/Core/AVR8/USBInterrupt_AVR8.c **** 	#if defined(USB_CAN_BE_DEVICE)
  73:../../protocol/lufa/LUFA-120730/LUFA/Drivers/USB/Core/AVR8/USBInterrupt_AVR8.c **** 	UDINT  = 0;
  47               		.loc 1 73 0
  48 0004 1092 E100 		sts 225,__zero_reg__
  49 0008 0895      		ret
  50               		.cfi_endproc
  51               	.LFE85:
  53               		.section	.text.__vector_10,"ax",@progbits
  54               	.global	__vector_10
  56               	__vector_10:
  57               	.LFB86:
  74:../../protocol/lufa/LUFA-120730/LUFA/Drivers/USB/Core/AVR8/USBInterrupt_AVR8.c **** 	#endif
  75:../../protocol/lufa/LUFA-120730/LUFA/Drivers/USB/Core/AVR8/USBInterrupt_AVR8.c **** }
  76:../../protocol/lufa/LUFA-120730/LUFA/Drivers/USB/Core/AVR8/USBInterrupt_AVR8.c **** 
  77:../../protocol/lufa/LUFA-120730/LUFA/Drivers/USB/Core/AVR8/USBInterrupt_AVR8.c **** ISR(USB_GEN_vect, ISR_BLOCK)
  78:../../protocol/lufa/LUFA-120730/LUFA/Drivers/USB/Core/AVR8/USBInterrupt_AVR8.c **** {
  58               		.loc 1 78 0
  59               		.cfi_startproc
  60 0000 1F92      		push r1
  61               	.LCFI0:
  62               		.cfi_def_cfa_offset 3
  63               		.cfi_offset 1, -2
  64 0002 0F92      		push r0
  65               	.LCFI1:
  66               		.cfi_def_cfa_offset 4
  67               		.cfi_offset 0, -3
  68 0004 0FB6      		in r0,__SREG__
  69 0006 0F92      		push r0
  70 0008 1124      		clr __zero_reg__
  71 000a 2F93      		push r18
  72               	.LCFI2:
  73               		.cfi_def_cfa_offset 5
  74               		.cfi_offset 18, -4
  75 000c 3F93      		push r19
  76               	.LCFI3:
  77               		.cfi_def_cfa_offset 6
  78               		.cfi_offset 19, -5
  79 000e 4F93      		push r20
  80               	.LCFI4:
  81               		.cfi_def_cfa_offset 7
  82               		.cfi_offset 20, -6
  83 0010 5F93      		push r21
  84               	.LCFI5:
  85               		.cfi_def_cfa_offset 8
  86               		.cfi_offset 21, -7
  87 0012 6F93      		push r22
  88               	.LCFI6:
  89               		.cfi_def_cfa_offset 9
  90               		.cfi_offset 22, -8
  91 0014 7F93      		push r23
  92               	.LCFI7:
  93               		.cfi_def_cfa_offset 10
  94               		.cfi_offset 23, -9
  95 0016 8F93      		push r24
  96               	.LCFI8:
  97               		.cfi_def_cfa_offset 11
  98               		.cfi_offset 24, -10
  99 0018 9F93      		push r25
 100               	.LCFI9:
 101               		.cfi_def_cfa_offset 12
 102               		.cfi_offset 25, -11
 103 001a AF93      		push r26
 104               	.LCFI10:
 105               		.cfi_def_cfa_offset 13
 106               		.cfi_offset 26, -12
 107 001c BF93      		push r27
 108               	.LCFI11:
 109               		.cfi_def_cfa_offset 14
 110               		.cfi_offset 27, -13
 111 001e EF93      		push r30
 112               	.LCFI12:
 113               		.cfi_def_cfa_offset 15
 114               		.cfi_offset 30, -14
 115 0020 FF93      		push r31
 116               	.LCFI13:
 117               		.cfi_def_cfa_offset 16
 118               		.cfi_offset 31, -15
 119               	/* prologue: Signal */
 120               	/* frame size = 0 */
 121               	/* stack size = 15 */
 122               	.L__stack_usage = 15
 123               	.LVL0:
 124               	.LBB90:
 125               	.LBB91:
 126               		.file 2 "../../protocol/lufa/LUFA-120730/LUFA/Drivers/USB/Core/AVR8/../AVR8/USBInterrupt_AVR8.h"
   1:../../protocol/lufa/LUFA-120730/LUFA/Drivers/USB/Core/AVR8/../AVR8/USBInterrupt_AVR8.h **** /*
   2:../../protocol/lufa/LUFA-120730/LUFA/Drivers/USB/Core/AVR8/../AVR8/USBInterrupt_AVR8.h ****              LUFA Library
   3:../../protocol/lufa/LUFA-120730/LUFA/Drivers/USB/Core/AVR8/../AVR8/USBInterrupt_AVR8.h ****      Copyright (C) Dean Camera, 2012.
   4:../../protocol/lufa/LUFA-120730/LUFA/Drivers/USB/Core/AVR8/../AVR8/USBInterrupt_AVR8.h **** 
   5:../../protocol/lufa/LUFA-120730/LUFA/Drivers/USB/Core/AVR8/../AVR8/USBInterrupt_AVR8.h ****   dean [at] fourwalledcubicle [dot] com
   6:../../protocol/lufa/LUFA-120730/LUFA/Drivers/USB/Core/AVR8/../AVR8/USBInterrupt_AVR8.h ****            www.lufa-lib.org
   7:../../protocol/lufa/LUFA-120730/LUFA/Drivers/USB/Core/AVR8/../AVR8/USBInterrupt_AVR8.h **** */
   8:../../protocol/lufa/LUFA-120730/LUFA/Drivers/USB/Core/AVR8/../AVR8/USBInterrupt_AVR8.h **** 
   9:../../protocol/lufa/LUFA-120730/LUFA/Drivers/USB/Core/AVR8/../AVR8/USBInterrupt_AVR8.h **** /*
  10:../../protocol/lufa/LUFA-120730/LUFA/Drivers/USB/Core/AVR8/../AVR8/USBInterrupt_AVR8.h ****   Copyright 2012  Dean Camera (dean [at] fourwalledcubicle [dot] com)
  11:../../protocol/lufa/LUFA-120730/LUFA/Drivers/USB/Core/AVR8/../AVR8/USBInterrupt_AVR8.h **** 
  12:../../protocol/lufa/LUFA-120730/LUFA/Drivers/USB/Core/AVR8/../AVR8/USBInterrupt_AVR8.h ****   Permission to use, copy, modify, distribute, and sell this
  13:../../protocol/lufa/LUFA-120730/LUFA/Drivers/USB/Core/AVR8/../AVR8/USBInterrupt_AVR8.h ****   software and its documentation for any purpose is hereby granted
  14:../../protocol/lufa/LUFA-120730/LUFA/Drivers/USB/Core/AVR8/../AVR8/USBInterrupt_AVR8.h ****   without fee, provided that the above copyright notice appear in
  15:../../protocol/lufa/LUFA-120730/LUFA/Drivers/USB/Core/AVR8/../AVR8/USBInterrupt_AVR8.h ****   all copies and that both that the copyright notice and this
  16:../../protocol/lufa/LUFA-120730/LUFA/Drivers/USB/Core/AVR8/../AVR8/USBInterrupt_AVR8.h ****   permission notice and warranty disclaimer appear in supporting
  17:../../protocol/lufa/LUFA-120730/LUFA/Drivers/USB/Core/AVR8/../AVR8/USBInterrupt_AVR8.h ****   documentation, and that the name of the author not be used in
  18:../../protocol/lufa/LUFA-120730/LUFA/Drivers/USB/Core/AVR8/../AVR8/USBInterrupt_AVR8.h ****   advertising or publicity pertaining to distribution of the
  19:../../protocol/lufa/LUFA-120730/LUFA/Drivers/USB/Core/AVR8/../AVR8/USBInterrupt_AVR8.h ****   software without specific, written prior permission.
  20:../../protocol/lufa/LUFA-120730/LUFA/Drivers/USB/Core/AVR8/../AVR8/USBInterrupt_AVR8.h **** 
  21:../../protocol/lufa/LUFA-120730/LUFA/Drivers/USB/Core/AVR8/../AVR8/USBInterrupt_AVR8.h ****   The author disclaim all warranties with regard to this
  22:../../protocol/lufa/LUFA-120730/LUFA/Drivers/USB/Core/AVR8/../AVR8/USBInterrupt_AVR8.h ****   software, including all implied warranties of merchantability
  23:../../protocol/lufa/LUFA-120730/LUFA/Drivers/USB/Core/AVR8/../AVR8/USBInterrupt_AVR8.h ****   and fitness.  In no event shall the author be liable for any
  24:../../protocol/lufa/LUFA-120730/LUFA/Drivers/USB/Core/AVR8/../AVR8/USBInterrupt_AVR8.h ****   special, indirect or consequential damages or any damages
  25:../../protocol/lufa/LUFA-120730/LUFA/Drivers/USB/Core/AVR8/../AVR8/USBInterrupt_AVR8.h ****   whatsoever resulting from loss of use, data or profits, whether
  26:../../protocol/lufa/LUFA-120730/LUFA/Drivers/USB/Core/AVR8/../AVR8/USBInterrupt_AVR8.h ****   in an action of contract, negligence or other tortious action,
  27:../../protocol/lufa/LUFA-120730/LUFA/Drivers/USB/Core/AVR8/../AVR8/USBInterrupt_AVR8.h ****   arising out of or in connection with the use or performance of
  28:../../protocol/lufa/LUFA-120730/LUFA/Drivers/USB/Core/AVR8/../AVR8/USBInterrupt_AVR8.h ****   this software.
  29:../../protocol/lufa/LUFA-120730/LUFA/Drivers/USB/Core/AVR8/../AVR8/USBInterrupt_AVR8.h **** */
  30:../../protocol/lufa/LUFA-120730/LUFA/Drivers/USB/Core/AVR8/../AVR8/USBInterrupt_AVR8.h **** 
  31:../../protocol/lufa/LUFA-120730/LUFA/Drivers/USB/Core/AVR8/../AVR8/USBInterrupt_AVR8.h **** /** \file
  32:../../protocol/lufa/LUFA-120730/LUFA/Drivers/USB/Core/AVR8/../AVR8/USBInterrupt_AVR8.h ****  *  \brief USB Controller Interrupt definitions for the AVR8 microcontrollers.
  33:../../protocol/lufa/LUFA-120730/LUFA/Drivers/USB/Core/AVR8/../AVR8/USBInterrupt_AVR8.h ****  *
  34:../../protocol/lufa/LUFA-120730/LUFA/Drivers/USB/Core/AVR8/../AVR8/USBInterrupt_AVR8.h ****  *  This file contains definitions required for the correct handling of low level USB service routi
  35:../../protocol/lufa/LUFA-120730/LUFA/Drivers/USB/Core/AVR8/../AVR8/USBInterrupt_AVR8.h ****  *  from the USB controller.
  36:../../protocol/lufa/LUFA-120730/LUFA/Drivers/USB/Core/AVR8/../AVR8/USBInterrupt_AVR8.h ****  *
  37:../../protocol/lufa/LUFA-120730/LUFA/Drivers/USB/Core/AVR8/../AVR8/USBInterrupt_AVR8.h ****  *  \note This file should not be included directly. It is automatically included as needed by the 
  38:../../protocol/lufa/LUFA-120730/LUFA/Drivers/USB/Core/AVR8/../AVR8/USBInterrupt_AVR8.h ****  *        dispatch header located in LUFA/Drivers/USB/USB.h.
  39:../../protocol/lufa/LUFA-120730/LUFA/Drivers/USB/Core/AVR8/../AVR8/USBInterrupt_AVR8.h ****  */
  40:../../protocol/lufa/LUFA-120730/LUFA/Drivers/USB/Core/AVR8/../AVR8/USBInterrupt_AVR8.h **** 
  41:../../protocol/lufa/LUFA-120730/LUFA/Drivers/USB/Core/AVR8/../AVR8/USBInterrupt_AVR8.h **** #ifndef __USBINTERRUPT_AVR8_H__
  42:../../protocol/lufa/LUFA-120730/LUFA/Drivers/USB/Core/AVR8/../AVR8/USBInterrupt_AVR8.h **** #define __USBINTERRUPT_AVR8_H__
  43:../../protocol/lufa/LUFA-120730/LUFA/Drivers/USB/Core/AVR8/../AVR8/USBInterrupt_AVR8.h **** 
  44:../../protocol/lufa/LUFA-120730/LUFA/Drivers/USB/Core/AVR8/../AVR8/USBInterrupt_AVR8.h **** 	/* Includes: */
  45:../../protocol/lufa/LUFA-120730/LUFA/Drivers/USB/Core/AVR8/../AVR8/USBInterrupt_AVR8.h **** 		#include "../../../../Common/Common.h"
  46:../../protocol/lufa/LUFA-120730/LUFA/Drivers/USB/Core/AVR8/../AVR8/USBInterrupt_AVR8.h **** 
  47:../../protocol/lufa/LUFA-120730/LUFA/Drivers/USB/Core/AVR8/../AVR8/USBInterrupt_AVR8.h **** 	/* Enable C linkage for C++ Compilers: */
  48:../../protocol/lufa/LUFA-120730/LUFA/Drivers/USB/Core/AVR8/../AVR8/USBInterrupt_AVR8.h **** 		#if defined(__cplusplus)
  49:../../protocol/lufa/LUFA-120730/LUFA/Drivers/USB/Core/AVR8/../AVR8/USBInterrupt_AVR8.h **** 			extern "C" {
  50:../../protocol/lufa/LUFA-120730/LUFA/Drivers/USB/Core/AVR8/../AVR8/USBInterrupt_AVR8.h **** 		#endif
  51:../../protocol/lufa/LUFA-120730/LUFA/Drivers/USB/Core/AVR8/../AVR8/USBInterrupt_AVR8.h **** 
  52:../../protocol/lufa/LUFA-120730/LUFA/Drivers/USB/Core/AVR8/../AVR8/USBInterrupt_AVR8.h **** 	/* Preprocessor Checks: */
  53:../../protocol/lufa/LUFA-120730/LUFA/Drivers/USB/Core/AVR8/../AVR8/USBInterrupt_AVR8.h **** 		#if !defined(__INCLUDE_FROM_USB_DRIVER)
  54:../../protocol/lufa/LUFA-120730/LUFA/Drivers/USB/Core/AVR8/../AVR8/USBInterrupt_AVR8.h **** 			#error Do not include this file directly. Include LUFA/Drivers/USB/USB.h instead.
  55:../../protocol/lufa/LUFA-120730/LUFA/Drivers/USB/Core/AVR8/../AVR8/USBInterrupt_AVR8.h **** 		#endif
  56:../../protocol/lufa/LUFA-120730/LUFA/Drivers/USB/Core/AVR8/../AVR8/USBInterrupt_AVR8.h **** 
  57:../../protocol/lufa/LUFA-120730/LUFA/Drivers/USB/Core/AVR8/../AVR8/USBInterrupt_AVR8.h **** 	/* Private Interface - For use in library only: */
  58:../../protocol/lufa/LUFA-120730/LUFA/Drivers/USB/Core/AVR8/../AVR8/USBInterrupt_AVR8.h **** 	#if !defined(__DOXYGEN__)
  59:../../protocol/lufa/LUFA-120730/LUFA/Drivers/USB/Core/AVR8/../AVR8/USBInterrupt_AVR8.h **** 		/* Enums: */
  60:../../protocol/lufa/LUFA-120730/LUFA/Drivers/USB/Core/AVR8/../AVR8/USBInterrupt_AVR8.h **** 			enum USB_Interrupts_t
  61:../../protocol/lufa/LUFA-120730/LUFA/Drivers/USB/Core/AVR8/../AVR8/USBInterrupt_AVR8.h **** 			{
  62:../../protocol/lufa/LUFA-120730/LUFA/Drivers/USB/Core/AVR8/../AVR8/USBInterrupt_AVR8.h **** 				#if (defined(USB_SERIES_4_AVR) || defined(USB_SERIES_6_AVR) || defined(USB_SERIES_7_AVR) || def
  63:../../protocol/lufa/LUFA-120730/LUFA/Drivers/USB/Core/AVR8/../AVR8/USBInterrupt_AVR8.h **** 				USB_INT_VBUSTI  = 0,
  64:../../protocol/lufa/LUFA-120730/LUFA/Drivers/USB/Core/AVR8/../AVR8/USBInterrupt_AVR8.h **** 				#endif
  65:../../protocol/lufa/LUFA-120730/LUFA/Drivers/USB/Core/AVR8/../AVR8/USBInterrupt_AVR8.h **** 				#if (defined(USB_CAN_BE_BOTH) || defined(__DOXYGEN__))
  66:../../protocol/lufa/LUFA-120730/LUFA/Drivers/USB/Core/AVR8/../AVR8/USBInterrupt_AVR8.h **** 				USB_INT_IDTI    = 1,
  67:../../protocol/lufa/LUFA-120730/LUFA/Drivers/USB/Core/AVR8/../AVR8/USBInterrupt_AVR8.h **** 				#endif
  68:../../protocol/lufa/LUFA-120730/LUFA/Drivers/USB/Core/AVR8/../AVR8/USBInterrupt_AVR8.h **** 				#if (defined(USB_CAN_BE_DEVICE) || defined(__DOXYGEN__))
  69:../../protocol/lufa/LUFA-120730/LUFA/Drivers/USB/Core/AVR8/../AVR8/USBInterrupt_AVR8.h **** 				USB_INT_WAKEUPI = 2,
  70:../../protocol/lufa/LUFA-120730/LUFA/Drivers/USB/Core/AVR8/../AVR8/USBInterrupt_AVR8.h **** 				USB_INT_SUSPI   = 3,
  71:../../protocol/lufa/LUFA-120730/LUFA/Drivers/USB/Core/AVR8/../AVR8/USBInterrupt_AVR8.h **** 				USB_INT_EORSTI  = 4,
  72:../../protocol/lufa/LUFA-120730/LUFA/Drivers/USB/Core/AVR8/../AVR8/USBInterrupt_AVR8.h **** 				USB_INT_SOFI    = 5,
  73:../../protocol/lufa/LUFA-120730/LUFA/Drivers/USB/Core/AVR8/../AVR8/USBInterrupt_AVR8.h **** 				USB_INT_RXSTPI  = 6,
  74:../../protocol/lufa/LUFA-120730/LUFA/Drivers/USB/Core/AVR8/../AVR8/USBInterrupt_AVR8.h **** 				#endif
  75:../../protocol/lufa/LUFA-120730/LUFA/Drivers/USB/Core/AVR8/../AVR8/USBInterrupt_AVR8.h **** 				#if (defined(USB_CAN_BE_HOST) || defined(__DOXYGEN__))
  76:../../protocol/lufa/LUFA-120730/LUFA/Drivers/USB/Core/AVR8/../AVR8/USBInterrupt_AVR8.h **** 				USB_INT_HSOFI   = 7,
  77:../../protocol/lufa/LUFA-120730/LUFA/Drivers/USB/Core/AVR8/../AVR8/USBInterrupt_AVR8.h **** 				USB_INT_DCONNI  = 8,
  78:../../protocol/lufa/LUFA-120730/LUFA/Drivers/USB/Core/AVR8/../AVR8/USBInterrupt_AVR8.h **** 				USB_INT_DDISCI  = 9,
  79:../../protocol/lufa/LUFA-120730/LUFA/Drivers/USB/Core/AVR8/../AVR8/USBInterrupt_AVR8.h **** 				USB_INT_RSTI    = 10,
  80:../../protocol/lufa/LUFA-120730/LUFA/Drivers/USB/Core/AVR8/../AVR8/USBInterrupt_AVR8.h **** 				USB_INT_BCERRI  = 11,
  81:../../protocol/lufa/LUFA-120730/LUFA/Drivers/USB/Core/AVR8/../AVR8/USBInterrupt_AVR8.h **** 				USB_INT_VBERRI  = 12,
  82:../../protocol/lufa/LUFA-120730/LUFA/Drivers/USB/Core/AVR8/../AVR8/USBInterrupt_AVR8.h **** 				USB_INT_SRPI    = 13,
  83:../../protocol/lufa/LUFA-120730/LUFA/Drivers/USB/Core/AVR8/../AVR8/USBInterrupt_AVR8.h **** 				#endif
  84:../../protocol/lufa/LUFA-120730/LUFA/Drivers/USB/Core/AVR8/../AVR8/USBInterrupt_AVR8.h **** 			};
  85:../../protocol/lufa/LUFA-120730/LUFA/Drivers/USB/Core/AVR8/../AVR8/USBInterrupt_AVR8.h **** 
  86:../../protocol/lufa/LUFA-120730/LUFA/Drivers/USB/Core/AVR8/../AVR8/USBInterrupt_AVR8.h **** 		/* Inline Functions: */
  87:../../protocol/lufa/LUFA-120730/LUFA/Drivers/USB/Core/AVR8/../AVR8/USBInterrupt_AVR8.h **** 			static inline void USB_INT_Enable(const uint8_t Interrupt) ATTR_ALWAYS_INLINE;
  88:../../protocol/lufa/LUFA-120730/LUFA/Drivers/USB/Core/AVR8/../AVR8/USBInterrupt_AVR8.h **** 			static inline void USB_INT_Enable(const uint8_t Interrupt)
  89:../../protocol/lufa/LUFA-120730/LUFA/Drivers/USB/Core/AVR8/../AVR8/USBInterrupt_AVR8.h **** 			{
  90:../../protocol/lufa/LUFA-120730/LUFA/Drivers/USB/Core/AVR8/../AVR8/USBInterrupt_AVR8.h **** 				switch (Interrupt)
  91:../../protocol/lufa/LUFA-120730/LUFA/Drivers/USB/Core/AVR8/../AVR8/USBInterrupt_AVR8.h **** 				{
  92:../../protocol/lufa/LUFA-120730/LUFA/Drivers/USB/Core/AVR8/../AVR8/USBInterrupt_AVR8.h **** 					#if (defined(USB_SERIES_4_AVR) || defined(USB_SERIES_6_AVR) || defined(USB_SERIES_7_AVR))
  93:../../protocol/lufa/LUFA-120730/LUFA/Drivers/USB/Core/AVR8/../AVR8/USBInterrupt_AVR8.h **** 					case USB_INT_VBUSTI:
  94:../../protocol/lufa/LUFA-120730/LUFA/Drivers/USB/Core/AVR8/../AVR8/USBInterrupt_AVR8.h **** 						USBCON |= (1 << VBUSTE);
  95:../../protocol/lufa/LUFA-120730/LUFA/Drivers/USB/Core/AVR8/../AVR8/USBInterrupt_AVR8.h **** 						break;
  96:../../protocol/lufa/LUFA-120730/LUFA/Drivers/USB/Core/AVR8/../AVR8/USBInterrupt_AVR8.h **** 					#endif
  97:../../protocol/lufa/LUFA-120730/LUFA/Drivers/USB/Core/AVR8/../AVR8/USBInterrupt_AVR8.h **** 					#if defined(USB_CAN_BE_BOTH)
  98:../../protocol/lufa/LUFA-120730/LUFA/Drivers/USB/Core/AVR8/../AVR8/USBInterrupt_AVR8.h **** 					case USB_INT_IDTI:
  99:../../protocol/lufa/LUFA-120730/LUFA/Drivers/USB/Core/AVR8/../AVR8/USBInterrupt_AVR8.h **** 						USBCON |= (1 << IDTE);
 100:../../protocol/lufa/LUFA-120730/LUFA/Drivers/USB/Core/AVR8/../AVR8/USBInterrupt_AVR8.h **** 						break;
 101:../../protocol/lufa/LUFA-120730/LUFA/Drivers/USB/Core/AVR8/../AVR8/USBInterrupt_AVR8.h **** 					#endif
 102:../../protocol/lufa/LUFA-120730/LUFA/Drivers/USB/Core/AVR8/../AVR8/USBInterrupt_AVR8.h **** 					#if defined(USB_CAN_BE_DEVICE)
 103:../../protocol/lufa/LUFA-120730/LUFA/Drivers/USB/Core/AVR8/../AVR8/USBInterrupt_AVR8.h **** 					case USB_INT_WAKEUPI:
 104:../../protocol/lufa/LUFA-120730/LUFA/Drivers/USB/Core/AVR8/../AVR8/USBInterrupt_AVR8.h **** 						UDIEN  |= (1 << WAKEUPE);
 105:../../protocol/lufa/LUFA-120730/LUFA/Drivers/USB/Core/AVR8/../AVR8/USBInterrupt_AVR8.h **** 						break;
 106:../../protocol/lufa/LUFA-120730/LUFA/Drivers/USB/Core/AVR8/../AVR8/USBInterrupt_AVR8.h **** 					case USB_INT_SUSPI:
 107:../../protocol/lufa/LUFA-120730/LUFA/Drivers/USB/Core/AVR8/../AVR8/USBInterrupt_AVR8.h **** 						UDIEN  |= (1 << SUSPE);
 108:../../protocol/lufa/LUFA-120730/LUFA/Drivers/USB/Core/AVR8/../AVR8/USBInterrupt_AVR8.h **** 						break;
 109:../../protocol/lufa/LUFA-120730/LUFA/Drivers/USB/Core/AVR8/../AVR8/USBInterrupt_AVR8.h **** 					case USB_INT_EORSTI:
 110:../../protocol/lufa/LUFA-120730/LUFA/Drivers/USB/Core/AVR8/../AVR8/USBInterrupt_AVR8.h **** 						UDIEN  |= (1 << EORSTE);
 111:../../protocol/lufa/LUFA-120730/LUFA/Drivers/USB/Core/AVR8/../AVR8/USBInterrupt_AVR8.h **** 						break;
 112:../../protocol/lufa/LUFA-120730/LUFA/Drivers/USB/Core/AVR8/../AVR8/USBInterrupt_AVR8.h **** 					case USB_INT_SOFI:
 113:../../protocol/lufa/LUFA-120730/LUFA/Drivers/USB/Core/AVR8/../AVR8/USBInterrupt_AVR8.h **** 						UDIEN  |= (1 << SOFE);
 114:../../protocol/lufa/LUFA-120730/LUFA/Drivers/USB/Core/AVR8/../AVR8/USBInterrupt_AVR8.h **** 						break;
 115:../../protocol/lufa/LUFA-120730/LUFA/Drivers/USB/Core/AVR8/../AVR8/USBInterrupt_AVR8.h **** 					case USB_INT_RXSTPI:
 116:../../protocol/lufa/LUFA-120730/LUFA/Drivers/USB/Core/AVR8/../AVR8/USBInterrupt_AVR8.h **** 						UEIENX |= (1 << RXSTPE);
 117:../../protocol/lufa/LUFA-120730/LUFA/Drivers/USB/Core/AVR8/../AVR8/USBInterrupt_AVR8.h **** 						break;
 118:../../protocol/lufa/LUFA-120730/LUFA/Drivers/USB/Core/AVR8/../AVR8/USBInterrupt_AVR8.h **** 					#endif
 119:../../protocol/lufa/LUFA-120730/LUFA/Drivers/USB/Core/AVR8/../AVR8/USBInterrupt_AVR8.h **** 					#if defined(USB_CAN_BE_HOST)
 120:../../protocol/lufa/LUFA-120730/LUFA/Drivers/USB/Core/AVR8/../AVR8/USBInterrupt_AVR8.h **** 					case USB_INT_HSOFI:
 121:../../protocol/lufa/LUFA-120730/LUFA/Drivers/USB/Core/AVR8/../AVR8/USBInterrupt_AVR8.h **** 						UHIEN  |= (1 << HSOFE);
 122:../../protocol/lufa/LUFA-120730/LUFA/Drivers/USB/Core/AVR8/../AVR8/USBInterrupt_AVR8.h **** 						break;
 123:../../protocol/lufa/LUFA-120730/LUFA/Drivers/USB/Core/AVR8/../AVR8/USBInterrupt_AVR8.h **** 					case USB_INT_DCONNI:
 124:../../protocol/lufa/LUFA-120730/LUFA/Drivers/USB/Core/AVR8/../AVR8/USBInterrupt_AVR8.h **** 						UHIEN  |= (1 << DCONNE);
 125:../../protocol/lufa/LUFA-120730/LUFA/Drivers/USB/Core/AVR8/../AVR8/USBInterrupt_AVR8.h **** 						break;
 126:../../protocol/lufa/LUFA-120730/LUFA/Drivers/USB/Core/AVR8/../AVR8/USBInterrupt_AVR8.h **** 					case USB_INT_DDISCI:
 127:../../protocol/lufa/LUFA-120730/LUFA/Drivers/USB/Core/AVR8/../AVR8/USBInterrupt_AVR8.h **** 						UHIEN  |= (1 << DDISCE);
 128:../../protocol/lufa/LUFA-120730/LUFA/Drivers/USB/Core/AVR8/../AVR8/USBInterrupt_AVR8.h **** 						break;
 129:../../protocol/lufa/LUFA-120730/LUFA/Drivers/USB/Core/AVR8/../AVR8/USBInterrupt_AVR8.h **** 					case USB_INT_RSTI:
 130:../../protocol/lufa/LUFA-120730/LUFA/Drivers/USB/Core/AVR8/../AVR8/USBInterrupt_AVR8.h **** 						UHIEN  |= (1 << RSTE);
 131:../../protocol/lufa/LUFA-120730/LUFA/Drivers/USB/Core/AVR8/../AVR8/USBInterrupt_AVR8.h **** 						break;
 132:../../protocol/lufa/LUFA-120730/LUFA/Drivers/USB/Core/AVR8/../AVR8/USBInterrupt_AVR8.h **** 					case USB_INT_BCERRI:
 133:../../protocol/lufa/LUFA-120730/LUFA/Drivers/USB/Core/AVR8/../AVR8/USBInterrupt_AVR8.h **** 						OTGIEN |= (1 << BCERRE);
 134:../../protocol/lufa/LUFA-120730/LUFA/Drivers/USB/Core/AVR8/../AVR8/USBInterrupt_AVR8.h **** 						break;
 135:../../protocol/lufa/LUFA-120730/LUFA/Drivers/USB/Core/AVR8/../AVR8/USBInterrupt_AVR8.h **** 					case USB_INT_VBERRI:
 136:../../protocol/lufa/LUFA-120730/LUFA/Drivers/USB/Core/AVR8/../AVR8/USBInterrupt_AVR8.h **** 						OTGIEN |= (1 << VBERRE);
 137:../../protocol/lufa/LUFA-120730/LUFA/Drivers/USB/Core/AVR8/../AVR8/USBInterrupt_AVR8.h **** 						break;
 138:../../protocol/lufa/LUFA-120730/LUFA/Drivers/USB/Core/AVR8/../AVR8/USBInterrupt_AVR8.h **** 					case USB_INT_SRPI:
 139:../../protocol/lufa/LUFA-120730/LUFA/Drivers/USB/Core/AVR8/../AVR8/USBInterrupt_AVR8.h **** 						OTGIEN |= (1 << SRPE);
 140:../../protocol/lufa/LUFA-120730/LUFA/Drivers/USB/Core/AVR8/../AVR8/USBInterrupt_AVR8.h **** 						break;
 141:../../protocol/lufa/LUFA-120730/LUFA/Drivers/USB/Core/AVR8/../AVR8/USBInterrupt_AVR8.h **** 					#endif
 142:../../protocol/lufa/LUFA-120730/LUFA/Drivers/USB/Core/AVR8/../AVR8/USBInterrupt_AVR8.h **** 				}
 143:../../protocol/lufa/LUFA-120730/LUFA/Drivers/USB/Core/AVR8/../AVR8/USBInterrupt_AVR8.h **** 			}
 144:../../protocol/lufa/LUFA-120730/LUFA/Drivers/USB/Core/AVR8/../AVR8/USBInterrupt_AVR8.h **** 
 145:../../protocol/lufa/LUFA-120730/LUFA/Drivers/USB/Core/AVR8/../AVR8/USBInterrupt_AVR8.h **** 			static inline void USB_INT_Disable(const uint8_t Interrupt) ATTR_ALWAYS_INLINE;
 146:../../protocol/lufa/LUFA-120730/LUFA/Drivers/USB/Core/AVR8/../AVR8/USBInterrupt_AVR8.h **** 			static inline void USB_INT_Disable(const uint8_t Interrupt)
 147:../../protocol/lufa/LUFA-120730/LUFA/Drivers/USB/Core/AVR8/../AVR8/USBInterrupt_AVR8.h **** 			{
 148:../../protocol/lufa/LUFA-120730/LUFA/Drivers/USB/Core/AVR8/../AVR8/USBInterrupt_AVR8.h **** 				switch (Interrupt)
 149:../../protocol/lufa/LUFA-120730/LUFA/Drivers/USB/Core/AVR8/../AVR8/USBInterrupt_AVR8.h **** 				{
 150:../../protocol/lufa/LUFA-120730/LUFA/Drivers/USB/Core/AVR8/../AVR8/USBInterrupt_AVR8.h **** 					#if (defined(USB_SERIES_4_AVR) || defined(USB_SERIES_6_AVR) || defined(USB_SERIES_7_AVR))
 151:../../protocol/lufa/LUFA-120730/LUFA/Drivers/USB/Core/AVR8/../AVR8/USBInterrupt_AVR8.h **** 					case USB_INT_VBUSTI:
 152:../../protocol/lufa/LUFA-120730/LUFA/Drivers/USB/Core/AVR8/../AVR8/USBInterrupt_AVR8.h **** 						USBCON &= ~(1 << VBUSTE);
 153:../../protocol/lufa/LUFA-120730/LUFA/Drivers/USB/Core/AVR8/../AVR8/USBInterrupt_AVR8.h **** 						break;
 154:../../protocol/lufa/LUFA-120730/LUFA/Drivers/USB/Core/AVR8/../AVR8/USBInterrupt_AVR8.h **** 					#endif
 155:../../protocol/lufa/LUFA-120730/LUFA/Drivers/USB/Core/AVR8/../AVR8/USBInterrupt_AVR8.h **** 					#if defined(USB_CAN_BE_BOTH)
 156:../../protocol/lufa/LUFA-120730/LUFA/Drivers/USB/Core/AVR8/../AVR8/USBInterrupt_AVR8.h **** 					case USB_INT_IDTI:
 157:../../protocol/lufa/LUFA-120730/LUFA/Drivers/USB/Core/AVR8/../AVR8/USBInterrupt_AVR8.h **** 						USBCON &= ~(1 << IDTE);
 158:../../protocol/lufa/LUFA-120730/LUFA/Drivers/USB/Core/AVR8/../AVR8/USBInterrupt_AVR8.h **** 						break;
 159:../../protocol/lufa/LUFA-120730/LUFA/Drivers/USB/Core/AVR8/../AVR8/USBInterrupt_AVR8.h **** 					#endif
 160:../../protocol/lufa/LUFA-120730/LUFA/Drivers/USB/Core/AVR8/../AVR8/USBInterrupt_AVR8.h **** 					#if defined(USB_CAN_BE_DEVICE)
 161:../../protocol/lufa/LUFA-120730/LUFA/Drivers/USB/Core/AVR8/../AVR8/USBInterrupt_AVR8.h **** 					case USB_INT_WAKEUPI:
 162:../../protocol/lufa/LUFA-120730/LUFA/Drivers/USB/Core/AVR8/../AVR8/USBInterrupt_AVR8.h **** 						UDIEN  &= ~(1 << WAKEUPE);
 163:../../protocol/lufa/LUFA-120730/LUFA/Drivers/USB/Core/AVR8/../AVR8/USBInterrupt_AVR8.h **** 						break;
 164:../../protocol/lufa/LUFA-120730/LUFA/Drivers/USB/Core/AVR8/../AVR8/USBInterrupt_AVR8.h **** 					case USB_INT_SUSPI:
 165:../../protocol/lufa/LUFA-120730/LUFA/Drivers/USB/Core/AVR8/../AVR8/USBInterrupt_AVR8.h **** 						UDIEN  &= ~(1 << SUSPE);
 166:../../protocol/lufa/LUFA-120730/LUFA/Drivers/USB/Core/AVR8/../AVR8/USBInterrupt_AVR8.h **** 						break;
 167:../../protocol/lufa/LUFA-120730/LUFA/Drivers/USB/Core/AVR8/../AVR8/USBInterrupt_AVR8.h **** 					case USB_INT_EORSTI:
 168:../../protocol/lufa/LUFA-120730/LUFA/Drivers/USB/Core/AVR8/../AVR8/USBInterrupt_AVR8.h **** 						UDIEN  &= ~(1 << EORSTE);
 169:../../protocol/lufa/LUFA-120730/LUFA/Drivers/USB/Core/AVR8/../AVR8/USBInterrupt_AVR8.h **** 						break;
 170:../../protocol/lufa/LUFA-120730/LUFA/Drivers/USB/Core/AVR8/../AVR8/USBInterrupt_AVR8.h **** 					case USB_INT_SOFI:
 171:../../protocol/lufa/LUFA-120730/LUFA/Drivers/USB/Core/AVR8/../AVR8/USBInterrupt_AVR8.h **** 						UDIEN  &= ~(1 << SOFE);
 172:../../protocol/lufa/LUFA-120730/LUFA/Drivers/USB/Core/AVR8/../AVR8/USBInterrupt_AVR8.h **** 						break;
 173:../../protocol/lufa/LUFA-120730/LUFA/Drivers/USB/Core/AVR8/../AVR8/USBInterrupt_AVR8.h **** 					case USB_INT_RXSTPI:
 174:../../protocol/lufa/LUFA-120730/LUFA/Drivers/USB/Core/AVR8/../AVR8/USBInterrupt_AVR8.h **** 						UEIENX &= ~(1 << RXSTPE);
 175:../../protocol/lufa/LUFA-120730/LUFA/Drivers/USB/Core/AVR8/../AVR8/USBInterrupt_AVR8.h **** 						break;
 176:../../protocol/lufa/LUFA-120730/LUFA/Drivers/USB/Core/AVR8/../AVR8/USBInterrupt_AVR8.h **** 					#endif
 177:../../protocol/lufa/LUFA-120730/LUFA/Drivers/USB/Core/AVR8/../AVR8/USBInterrupt_AVR8.h **** 					#if defined(USB_CAN_BE_HOST)
 178:../../protocol/lufa/LUFA-120730/LUFA/Drivers/USB/Core/AVR8/../AVR8/USBInterrupt_AVR8.h **** 					case USB_INT_HSOFI:
 179:../../protocol/lufa/LUFA-120730/LUFA/Drivers/USB/Core/AVR8/../AVR8/USBInterrupt_AVR8.h **** 						UHIEN  &= ~(1 << HSOFE);
 180:../../protocol/lufa/LUFA-120730/LUFA/Drivers/USB/Core/AVR8/../AVR8/USBInterrupt_AVR8.h **** 						break;
 181:../../protocol/lufa/LUFA-120730/LUFA/Drivers/USB/Core/AVR8/../AVR8/USBInterrupt_AVR8.h **** 					case USB_INT_DCONNI:
 182:../../protocol/lufa/LUFA-120730/LUFA/Drivers/USB/Core/AVR8/../AVR8/USBInterrupt_AVR8.h **** 						UHIEN  &= ~(1 << DCONNE);
 183:../../protocol/lufa/LUFA-120730/LUFA/Drivers/USB/Core/AVR8/../AVR8/USBInterrupt_AVR8.h **** 						break;
 184:../../protocol/lufa/LUFA-120730/LUFA/Drivers/USB/Core/AVR8/../AVR8/USBInterrupt_AVR8.h **** 					case USB_INT_DDISCI:
 185:../../protocol/lufa/LUFA-120730/LUFA/Drivers/USB/Core/AVR8/../AVR8/USBInterrupt_AVR8.h **** 						UHIEN  &= ~(1 << DDISCE);
 186:../../protocol/lufa/LUFA-120730/LUFA/Drivers/USB/Core/AVR8/../AVR8/USBInterrupt_AVR8.h **** 						break;
 187:../../protocol/lufa/LUFA-120730/LUFA/Drivers/USB/Core/AVR8/../AVR8/USBInterrupt_AVR8.h **** 					case USB_INT_RSTI:
 188:../../protocol/lufa/LUFA-120730/LUFA/Drivers/USB/Core/AVR8/../AVR8/USBInterrupt_AVR8.h **** 						UHIEN  &= ~(1 << RSTE);
 189:../../protocol/lufa/LUFA-120730/LUFA/Drivers/USB/Core/AVR8/../AVR8/USBInterrupt_AVR8.h **** 						break;
 190:../../protocol/lufa/LUFA-120730/LUFA/Drivers/USB/Core/AVR8/../AVR8/USBInterrupt_AVR8.h **** 					case USB_INT_BCERRI:
 191:../../protocol/lufa/LUFA-120730/LUFA/Drivers/USB/Core/AVR8/../AVR8/USBInterrupt_AVR8.h **** 						OTGIEN &= ~(1 << BCERRE);
 192:../../protocol/lufa/LUFA-120730/LUFA/Drivers/USB/Core/AVR8/../AVR8/USBInterrupt_AVR8.h **** 						break;
 193:../../protocol/lufa/LUFA-120730/LUFA/Drivers/USB/Core/AVR8/../AVR8/USBInterrupt_AVR8.h **** 					case USB_INT_VBERRI:
 194:../../protocol/lufa/LUFA-120730/LUFA/Drivers/USB/Core/AVR8/../AVR8/USBInterrupt_AVR8.h **** 						OTGIEN &= ~(1 << VBERRE);
 195:../../protocol/lufa/LUFA-120730/LUFA/Drivers/USB/Core/AVR8/../AVR8/USBInterrupt_AVR8.h **** 						break;
 196:../../protocol/lufa/LUFA-120730/LUFA/Drivers/USB/Core/AVR8/../AVR8/USBInterrupt_AVR8.h **** 					case USB_INT_SRPI:
 197:../../protocol/lufa/LUFA-120730/LUFA/Drivers/USB/Core/AVR8/../AVR8/USBInterrupt_AVR8.h **** 						OTGIEN &= ~(1 << SRPE);
 198:../../protocol/lufa/LUFA-120730/LUFA/Drivers/USB/Core/AVR8/../AVR8/USBInterrupt_AVR8.h **** 						break;
 199:../../protocol/lufa/LUFA-120730/LUFA/Drivers/USB/Core/AVR8/../AVR8/USBInterrupt_AVR8.h **** 					#endif
 200:../../protocol/lufa/LUFA-120730/LUFA/Drivers/USB/Core/AVR8/../AVR8/USBInterrupt_AVR8.h **** 				}
 201:../../protocol/lufa/LUFA-120730/LUFA/Drivers/USB/Core/AVR8/../AVR8/USBInterrupt_AVR8.h **** 			}
 202:../../protocol/lufa/LUFA-120730/LUFA/Drivers/USB/Core/AVR8/../AVR8/USBInterrupt_AVR8.h **** 
 203:../../protocol/lufa/LUFA-120730/LUFA/Drivers/USB/Core/AVR8/../AVR8/USBInterrupt_AVR8.h **** 			static inline void USB_INT_Clear(const uint8_t Interrupt) ATTR_ALWAYS_INLINE;
 204:../../protocol/lufa/LUFA-120730/LUFA/Drivers/USB/Core/AVR8/../AVR8/USBInterrupt_AVR8.h **** 			static inline void USB_INT_Clear(const uint8_t Interrupt)
 205:../../protocol/lufa/LUFA-120730/LUFA/Drivers/USB/Core/AVR8/../AVR8/USBInterrupt_AVR8.h **** 			{
 206:../../protocol/lufa/LUFA-120730/LUFA/Drivers/USB/Core/AVR8/../AVR8/USBInterrupt_AVR8.h **** 				switch (Interrupt)
 207:../../protocol/lufa/LUFA-120730/LUFA/Drivers/USB/Core/AVR8/../AVR8/USBInterrupt_AVR8.h **** 				{
 208:../../protocol/lufa/LUFA-120730/LUFA/Drivers/USB/Core/AVR8/../AVR8/USBInterrupt_AVR8.h **** 					#if (defined(USB_SERIES_4_AVR) || defined(USB_SERIES_6_AVR) || defined(USB_SERIES_7_AVR))
 209:../../protocol/lufa/LUFA-120730/LUFA/Drivers/USB/Core/AVR8/../AVR8/USBInterrupt_AVR8.h **** 					case USB_INT_VBUSTI:
 210:../../protocol/lufa/LUFA-120730/LUFA/Drivers/USB/Core/AVR8/../AVR8/USBInterrupt_AVR8.h **** 						USBINT &= ~(1 << VBUSTI);
 211:../../protocol/lufa/LUFA-120730/LUFA/Drivers/USB/Core/AVR8/../AVR8/USBInterrupt_AVR8.h **** 						break;
 212:../../protocol/lufa/LUFA-120730/LUFA/Drivers/USB/Core/AVR8/../AVR8/USBInterrupt_AVR8.h **** 					#endif
 213:../../protocol/lufa/LUFA-120730/LUFA/Drivers/USB/Core/AVR8/../AVR8/USBInterrupt_AVR8.h **** 					#if defined(USB_CAN_BE_BOTH)
 214:../../protocol/lufa/LUFA-120730/LUFA/Drivers/USB/Core/AVR8/../AVR8/USBInterrupt_AVR8.h **** 					case USB_INT_IDTI:
 215:../../protocol/lufa/LUFA-120730/LUFA/Drivers/USB/Core/AVR8/../AVR8/USBInterrupt_AVR8.h **** 						USBINT &= ~(1 << IDTI);
 216:../../protocol/lufa/LUFA-120730/LUFA/Drivers/USB/Core/AVR8/../AVR8/USBInterrupt_AVR8.h **** 						break;
 217:../../protocol/lufa/LUFA-120730/LUFA/Drivers/USB/Core/AVR8/../AVR8/USBInterrupt_AVR8.h **** 					#endif
 218:../../protocol/lufa/LUFA-120730/LUFA/Drivers/USB/Core/AVR8/../AVR8/USBInterrupt_AVR8.h **** 					#if defined(USB_CAN_BE_DEVICE)
 219:../../protocol/lufa/LUFA-120730/LUFA/Drivers/USB/Core/AVR8/../AVR8/USBInterrupt_AVR8.h **** 					case USB_INT_WAKEUPI:
 220:../../protocol/lufa/LUFA-120730/LUFA/Drivers/USB/Core/AVR8/../AVR8/USBInterrupt_AVR8.h **** 						UDINT  &= ~(1 << WAKEUPI);
 221:../../protocol/lufa/LUFA-120730/LUFA/Drivers/USB/Core/AVR8/../AVR8/USBInterrupt_AVR8.h **** 						break;
 222:../../protocol/lufa/LUFA-120730/LUFA/Drivers/USB/Core/AVR8/../AVR8/USBInterrupt_AVR8.h **** 					case USB_INT_SUSPI:
 223:../../protocol/lufa/LUFA-120730/LUFA/Drivers/USB/Core/AVR8/../AVR8/USBInterrupt_AVR8.h **** 						UDINT  &= ~(1 << SUSPI);
 224:../../protocol/lufa/LUFA-120730/LUFA/Drivers/USB/Core/AVR8/../AVR8/USBInterrupt_AVR8.h **** 						break;
 225:../../protocol/lufa/LUFA-120730/LUFA/Drivers/USB/Core/AVR8/../AVR8/USBInterrupt_AVR8.h **** 					case USB_INT_EORSTI:
 226:../../protocol/lufa/LUFA-120730/LUFA/Drivers/USB/Core/AVR8/../AVR8/USBInterrupt_AVR8.h **** 						UDINT  &= ~(1 << EORSTI);
 227:../../protocol/lufa/LUFA-120730/LUFA/Drivers/USB/Core/AVR8/../AVR8/USBInterrupt_AVR8.h **** 						break;
 228:../../protocol/lufa/LUFA-120730/LUFA/Drivers/USB/Core/AVR8/../AVR8/USBInterrupt_AVR8.h **** 					case USB_INT_SOFI:
 229:../../protocol/lufa/LUFA-120730/LUFA/Drivers/USB/Core/AVR8/../AVR8/USBInterrupt_AVR8.h **** 						UDINT  &= ~(1 << SOFI);
 230:../../protocol/lufa/LUFA-120730/LUFA/Drivers/USB/Core/AVR8/../AVR8/USBInterrupt_AVR8.h **** 						break;
 231:../../protocol/lufa/LUFA-120730/LUFA/Drivers/USB/Core/AVR8/../AVR8/USBInterrupt_AVR8.h **** 					case USB_INT_RXSTPI:
 232:../../protocol/lufa/LUFA-120730/LUFA/Drivers/USB/Core/AVR8/../AVR8/USBInterrupt_AVR8.h **** 						UEINTX &= ~(1 << RXSTPI);
 233:../../protocol/lufa/LUFA-120730/LUFA/Drivers/USB/Core/AVR8/../AVR8/USBInterrupt_AVR8.h **** 						break;
 234:../../protocol/lufa/LUFA-120730/LUFA/Drivers/USB/Core/AVR8/../AVR8/USBInterrupt_AVR8.h **** 					#endif
 235:../../protocol/lufa/LUFA-120730/LUFA/Drivers/USB/Core/AVR8/../AVR8/USBInterrupt_AVR8.h **** 					#if defined(USB_CAN_BE_HOST)
 236:../../protocol/lufa/LUFA-120730/LUFA/Drivers/USB/Core/AVR8/../AVR8/USBInterrupt_AVR8.h **** 					case USB_INT_HSOFI:
 237:../../protocol/lufa/LUFA-120730/LUFA/Drivers/USB/Core/AVR8/../AVR8/USBInterrupt_AVR8.h **** 						UHINT  &= ~(1 << HSOFI);
 238:../../protocol/lufa/LUFA-120730/LUFA/Drivers/USB/Core/AVR8/../AVR8/USBInterrupt_AVR8.h **** 						break;
 239:../../protocol/lufa/LUFA-120730/LUFA/Drivers/USB/Core/AVR8/../AVR8/USBInterrupt_AVR8.h **** 					case USB_INT_DCONNI:
 240:../../protocol/lufa/LUFA-120730/LUFA/Drivers/USB/Core/AVR8/../AVR8/USBInterrupt_AVR8.h **** 						UHINT  &= ~(1 << DCONNI);
 241:../../protocol/lufa/LUFA-120730/LUFA/Drivers/USB/Core/AVR8/../AVR8/USBInterrupt_AVR8.h **** 						break;
 242:../../protocol/lufa/LUFA-120730/LUFA/Drivers/USB/Core/AVR8/../AVR8/USBInterrupt_AVR8.h **** 					case USB_INT_DDISCI:
 243:../../protocol/lufa/LUFA-120730/LUFA/Drivers/USB/Core/AVR8/../AVR8/USBInterrupt_AVR8.h **** 						UHINT  &= ~(1 << DDISCI);
 244:../../protocol/lufa/LUFA-120730/LUFA/Drivers/USB/Core/AVR8/../AVR8/USBInterrupt_AVR8.h **** 						break;
 245:../../protocol/lufa/LUFA-120730/LUFA/Drivers/USB/Core/AVR8/../AVR8/USBInterrupt_AVR8.h **** 					case USB_INT_RSTI:
 246:../../protocol/lufa/LUFA-120730/LUFA/Drivers/USB/Core/AVR8/../AVR8/USBInterrupt_AVR8.h **** 						UHINT  &= ~(1 << RSTI);
 247:../../protocol/lufa/LUFA-120730/LUFA/Drivers/USB/Core/AVR8/../AVR8/USBInterrupt_AVR8.h **** 						break;
 248:../../protocol/lufa/LUFA-120730/LUFA/Drivers/USB/Core/AVR8/../AVR8/USBInterrupt_AVR8.h **** 					case USB_INT_BCERRI:
 249:../../protocol/lufa/LUFA-120730/LUFA/Drivers/USB/Core/AVR8/../AVR8/USBInterrupt_AVR8.h **** 						OTGINT &= ~(1 << BCERRI);
 250:../../protocol/lufa/LUFA-120730/LUFA/Drivers/USB/Core/AVR8/../AVR8/USBInterrupt_AVR8.h **** 						break;
 251:../../protocol/lufa/LUFA-120730/LUFA/Drivers/USB/Core/AVR8/../AVR8/USBInterrupt_AVR8.h **** 					case USB_INT_VBERRI:
 252:../../protocol/lufa/LUFA-120730/LUFA/Drivers/USB/Core/AVR8/../AVR8/USBInterrupt_AVR8.h **** 						OTGINT &= ~(1 << VBERRI);
 253:../../protocol/lufa/LUFA-120730/LUFA/Drivers/USB/Core/AVR8/../AVR8/USBInterrupt_AVR8.h **** 						break;
 254:../../protocol/lufa/LUFA-120730/LUFA/Drivers/USB/Core/AVR8/../AVR8/USBInterrupt_AVR8.h **** 					case USB_INT_SRPI:
 255:../../protocol/lufa/LUFA-120730/LUFA/Drivers/USB/Core/AVR8/../AVR8/USBInterrupt_AVR8.h **** 						OTGINT &= ~(1 << SRPI);
 256:../../protocol/lufa/LUFA-120730/LUFA/Drivers/USB/Core/AVR8/../AVR8/USBInterrupt_AVR8.h **** 						break;
 257:../../protocol/lufa/LUFA-120730/LUFA/Drivers/USB/Core/AVR8/../AVR8/USBInterrupt_AVR8.h **** 					#endif
 258:../../protocol/lufa/LUFA-120730/LUFA/Drivers/USB/Core/AVR8/../AVR8/USBInterrupt_AVR8.h **** 				}
 259:../../protocol/lufa/LUFA-120730/LUFA/Drivers/USB/Core/AVR8/../AVR8/USBInterrupt_AVR8.h **** 			}
 260:../../protocol/lufa/LUFA-120730/LUFA/Drivers/USB/Core/AVR8/../AVR8/USBInterrupt_AVR8.h **** 
 261:../../protocol/lufa/LUFA-120730/LUFA/Drivers/USB/Core/AVR8/../AVR8/USBInterrupt_AVR8.h **** 			static inline bool USB_INT_IsEnabled(const uint8_t Interrupt) ATTR_ALWAYS_INLINE ATTR_WARN_UNUSE
 262:../../protocol/lufa/LUFA-120730/LUFA/Drivers/USB/Core/AVR8/../AVR8/USBInterrupt_AVR8.h **** 			static inline bool USB_INT_IsEnabled(const uint8_t Interrupt)
 263:../../protocol/lufa/LUFA-120730/LUFA/Drivers/USB/Core/AVR8/../AVR8/USBInterrupt_AVR8.h **** 			{
 264:../../protocol/lufa/LUFA-120730/LUFA/Drivers/USB/Core/AVR8/../AVR8/USBInterrupt_AVR8.h **** 				switch (Interrupt)
 265:../../protocol/lufa/LUFA-120730/LUFA/Drivers/USB/Core/AVR8/../AVR8/USBInterrupt_AVR8.h **** 				{
 266:../../protocol/lufa/LUFA-120730/LUFA/Drivers/USB/Core/AVR8/../AVR8/USBInterrupt_AVR8.h **** 					#if (defined(USB_SERIES_4_AVR) || defined(USB_SERIES_6_AVR) || defined(USB_SERIES_7_AVR))
 267:../../protocol/lufa/LUFA-120730/LUFA/Drivers/USB/Core/AVR8/../AVR8/USBInterrupt_AVR8.h **** 					case USB_INT_VBUSTI:
 268:../../protocol/lufa/LUFA-120730/LUFA/Drivers/USB/Core/AVR8/../AVR8/USBInterrupt_AVR8.h **** 						return (USBCON & (1 << VBUSTE));
 269:../../protocol/lufa/LUFA-120730/LUFA/Drivers/USB/Core/AVR8/../AVR8/USBInterrupt_AVR8.h **** 					#endif
 270:../../protocol/lufa/LUFA-120730/LUFA/Drivers/USB/Core/AVR8/../AVR8/USBInterrupt_AVR8.h **** 					#if defined(USB_CAN_BE_BOTH)
 271:../../protocol/lufa/LUFA-120730/LUFA/Drivers/USB/Core/AVR8/../AVR8/USBInterrupt_AVR8.h **** 					case USB_INT_IDTI:
 272:../../protocol/lufa/LUFA-120730/LUFA/Drivers/USB/Core/AVR8/../AVR8/USBInterrupt_AVR8.h **** 						return (USBCON & (1 << IDTE));
 273:../../protocol/lufa/LUFA-120730/LUFA/Drivers/USB/Core/AVR8/../AVR8/USBInterrupt_AVR8.h **** 					#endif
 274:../../protocol/lufa/LUFA-120730/LUFA/Drivers/USB/Core/AVR8/../AVR8/USBInterrupt_AVR8.h **** 					#if defined(USB_CAN_BE_DEVICE)
 275:../../protocol/lufa/LUFA-120730/LUFA/Drivers/USB/Core/AVR8/../AVR8/USBInterrupt_AVR8.h **** 					case USB_INT_WAKEUPI:
 276:../../protocol/lufa/LUFA-120730/LUFA/Drivers/USB/Core/AVR8/../AVR8/USBInterrupt_AVR8.h **** 						return (UDIEN  & (1 << WAKEUPE));
 277:../../protocol/lufa/LUFA-120730/LUFA/Drivers/USB/Core/AVR8/../AVR8/USBInterrupt_AVR8.h **** 					case USB_INT_SUSPI:
 278:../../protocol/lufa/LUFA-120730/LUFA/Drivers/USB/Core/AVR8/../AVR8/USBInterrupt_AVR8.h **** 						return (UDIEN  & (1 << SUSPE));
 279:../../protocol/lufa/LUFA-120730/LUFA/Drivers/USB/Core/AVR8/../AVR8/USBInterrupt_AVR8.h **** 					case USB_INT_EORSTI:
 280:../../protocol/lufa/LUFA-120730/LUFA/Drivers/USB/Core/AVR8/../AVR8/USBInterrupt_AVR8.h **** 						return (UDIEN  & (1 << EORSTE));
 281:../../protocol/lufa/LUFA-120730/LUFA/Drivers/USB/Core/AVR8/../AVR8/USBInterrupt_AVR8.h **** 					case USB_INT_SOFI:
 282:../../protocol/lufa/LUFA-120730/LUFA/Drivers/USB/Core/AVR8/../AVR8/USBInterrupt_AVR8.h **** 						return (UDIEN  & (1 << SOFE));
 283:../../protocol/lufa/LUFA-120730/LUFA/Drivers/USB/Core/AVR8/../AVR8/USBInterrupt_AVR8.h **** 					case USB_INT_RXSTPI:
 284:../../protocol/lufa/LUFA-120730/LUFA/Drivers/USB/Core/AVR8/../AVR8/USBInterrupt_AVR8.h **** 						return (UEIENX & (1 << RXSTPE));
 285:../../protocol/lufa/LUFA-120730/LUFA/Drivers/USB/Core/AVR8/../AVR8/USBInterrupt_AVR8.h **** 					#endif
 286:../../protocol/lufa/LUFA-120730/LUFA/Drivers/USB/Core/AVR8/../AVR8/USBInterrupt_AVR8.h **** 					#if defined(USB_CAN_BE_HOST)
 287:../../protocol/lufa/LUFA-120730/LUFA/Drivers/USB/Core/AVR8/../AVR8/USBInterrupt_AVR8.h **** 					case USB_INT_HSOFI:
 288:../../protocol/lufa/LUFA-120730/LUFA/Drivers/USB/Core/AVR8/../AVR8/USBInterrupt_AVR8.h **** 						return (UHIEN  & (1 << HSOFE));
 289:../../protocol/lufa/LUFA-120730/LUFA/Drivers/USB/Core/AVR8/../AVR8/USBInterrupt_AVR8.h **** 					case USB_INT_DCONNI:
 290:../../protocol/lufa/LUFA-120730/LUFA/Drivers/USB/Core/AVR8/../AVR8/USBInterrupt_AVR8.h **** 						return (UHIEN  & (1 << DCONNE));
 291:../../protocol/lufa/LUFA-120730/LUFA/Drivers/USB/Core/AVR8/../AVR8/USBInterrupt_AVR8.h **** 					case USB_INT_DDISCI:
 292:../../protocol/lufa/LUFA-120730/LUFA/Drivers/USB/Core/AVR8/../AVR8/USBInterrupt_AVR8.h **** 						return (UHIEN  & (1 << DDISCE));
 293:../../protocol/lufa/LUFA-120730/LUFA/Drivers/USB/Core/AVR8/../AVR8/USBInterrupt_AVR8.h **** 					case USB_INT_RSTI:
 294:../../protocol/lufa/LUFA-120730/LUFA/Drivers/USB/Core/AVR8/../AVR8/USBInterrupt_AVR8.h **** 						return (UHIEN  & (1 << RSTE));
 295:../../protocol/lufa/LUFA-120730/LUFA/Drivers/USB/Core/AVR8/../AVR8/USBInterrupt_AVR8.h **** 					case USB_INT_BCERRI:
 296:../../protocol/lufa/LUFA-120730/LUFA/Drivers/USB/Core/AVR8/../AVR8/USBInterrupt_AVR8.h **** 						return (OTGIEN & (1 << BCERRE));
 297:../../protocol/lufa/LUFA-120730/LUFA/Drivers/USB/Core/AVR8/../AVR8/USBInterrupt_AVR8.h **** 					case USB_INT_VBERRI:
 298:../../protocol/lufa/LUFA-120730/LUFA/Drivers/USB/Core/AVR8/../AVR8/USBInterrupt_AVR8.h **** 						return (OTGIEN & (1 << VBERRE));
 299:../../protocol/lufa/LUFA-120730/LUFA/Drivers/USB/Core/AVR8/../AVR8/USBInterrupt_AVR8.h **** 					case USB_INT_SRPI:
 300:../../protocol/lufa/LUFA-120730/LUFA/Drivers/USB/Core/AVR8/../AVR8/USBInterrupt_AVR8.h **** 						return (OTGIEN & (1 << SRPE));
 301:../../protocol/lufa/LUFA-120730/LUFA/Drivers/USB/Core/AVR8/../AVR8/USBInterrupt_AVR8.h **** 					#endif
 302:../../protocol/lufa/LUFA-120730/LUFA/Drivers/USB/Core/AVR8/../AVR8/USBInterrupt_AVR8.h **** 				}
 303:../../protocol/lufa/LUFA-120730/LUFA/Drivers/USB/Core/AVR8/../AVR8/USBInterrupt_AVR8.h **** 
 304:../../protocol/lufa/LUFA-120730/LUFA/Drivers/USB/Core/AVR8/../AVR8/USBInterrupt_AVR8.h **** 				return false;
 305:../../protocol/lufa/LUFA-120730/LUFA/Drivers/USB/Core/AVR8/../AVR8/USBInterrupt_AVR8.h **** 			}
 306:../../protocol/lufa/LUFA-120730/LUFA/Drivers/USB/Core/AVR8/../AVR8/USBInterrupt_AVR8.h **** 
 307:../../protocol/lufa/LUFA-120730/LUFA/Drivers/USB/Core/AVR8/../AVR8/USBInterrupt_AVR8.h **** 			static inline bool USB_INT_HasOccurred(const uint8_t Interrupt) ATTR_ALWAYS_INLINE ATTR_WARN_UNU
 308:../../protocol/lufa/LUFA-120730/LUFA/Drivers/USB/Core/AVR8/../AVR8/USBInterrupt_AVR8.h **** 			static inline bool USB_INT_HasOccurred(const uint8_t Interrupt)
 309:../../protocol/lufa/LUFA-120730/LUFA/Drivers/USB/Core/AVR8/../AVR8/USBInterrupt_AVR8.h **** 			{
 310:../../protocol/lufa/LUFA-120730/LUFA/Drivers/USB/Core/AVR8/../AVR8/USBInterrupt_AVR8.h **** 				switch (Interrupt)
 311:../../protocol/lufa/LUFA-120730/LUFA/Drivers/USB/Core/AVR8/../AVR8/USBInterrupt_AVR8.h **** 				{
 312:../../protocol/lufa/LUFA-120730/LUFA/Drivers/USB/Core/AVR8/../AVR8/USBInterrupt_AVR8.h **** 					#if (defined(USB_SERIES_4_AVR) || defined(USB_SERIES_6_AVR) || defined(USB_SERIES_7_AVR))
 313:../../protocol/lufa/LUFA-120730/LUFA/Drivers/USB/Core/AVR8/../AVR8/USBInterrupt_AVR8.h **** 					case USB_INT_VBUSTI:
 314:../../protocol/lufa/LUFA-120730/LUFA/Drivers/USB/Core/AVR8/../AVR8/USBInterrupt_AVR8.h **** 						return (USBINT & (1 << VBUSTI));
 315:../../protocol/lufa/LUFA-120730/LUFA/Drivers/USB/Core/AVR8/../AVR8/USBInterrupt_AVR8.h **** 					#endif
 316:../../protocol/lufa/LUFA-120730/LUFA/Drivers/USB/Core/AVR8/../AVR8/USBInterrupt_AVR8.h **** 					#if defined(USB_CAN_BE_BOTH)
 317:../../protocol/lufa/LUFA-120730/LUFA/Drivers/USB/Core/AVR8/../AVR8/USBInterrupt_AVR8.h **** 					case USB_INT_IDTI:
 318:../../protocol/lufa/LUFA-120730/LUFA/Drivers/USB/Core/AVR8/../AVR8/USBInterrupt_AVR8.h **** 						return (USBINT & (1 << IDTI));
 319:../../protocol/lufa/LUFA-120730/LUFA/Drivers/USB/Core/AVR8/../AVR8/USBInterrupt_AVR8.h **** 					#endif
 320:../../protocol/lufa/LUFA-120730/LUFA/Drivers/USB/Core/AVR8/../AVR8/USBInterrupt_AVR8.h **** 					#if defined(USB_CAN_BE_DEVICE)
 321:../../protocol/lufa/LUFA-120730/LUFA/Drivers/USB/Core/AVR8/../AVR8/USBInterrupt_AVR8.h **** 					case USB_INT_WAKEUPI:
 322:../../protocol/lufa/LUFA-120730/LUFA/Drivers/USB/Core/AVR8/../AVR8/USBInterrupt_AVR8.h **** 						return (UDINT  & (1 << WAKEUPI));
 323:../../protocol/lufa/LUFA-120730/LUFA/Drivers/USB/Core/AVR8/../AVR8/USBInterrupt_AVR8.h **** 					case USB_INT_SUSPI:
 324:../../protocol/lufa/LUFA-120730/LUFA/Drivers/USB/Core/AVR8/../AVR8/USBInterrupt_AVR8.h **** 						return (UDINT  & (1 << SUSPI));
 325:../../protocol/lufa/LUFA-120730/LUFA/Drivers/USB/Core/AVR8/../AVR8/USBInterrupt_AVR8.h **** 					case USB_INT_EORSTI:
 326:../../protocol/lufa/LUFA-120730/LUFA/Drivers/USB/Core/AVR8/../AVR8/USBInterrupt_AVR8.h **** 						return (UDINT  & (1 << EORSTI));
 327:../../protocol/lufa/LUFA-120730/LUFA/Drivers/USB/Core/AVR8/../AVR8/USBInterrupt_AVR8.h **** 					case USB_INT_SOFI:
 328:../../protocol/lufa/LUFA-120730/LUFA/Drivers/USB/Core/AVR8/../AVR8/USBInterrupt_AVR8.h **** 						return (UDINT  & (1 << SOFI));
 127               		.loc 2 328 0
 128 0022 8091 E100 		lds r24,225
 129               	.LBE91:
 130               	.LBE90:
  79:../../protocol/lufa/LUFA-120730/LUFA/Drivers/USB/Core/AVR8/USBInterrupt_AVR8.c **** 	#if defined(USB_CAN_BE_DEVICE)
  80:../../protocol/lufa/LUFA-120730/LUFA/Drivers/USB/Core/AVR8/USBInterrupt_AVR8.c **** 	#if !defined(NO_SOF_EVENTS)
  81:../../protocol/lufa/LUFA-120730/LUFA/Drivers/USB/Core/AVR8/USBInterrupt_AVR8.c **** 	if (USB_INT_HasOccurred(USB_INT_SOFI) && USB_INT_IsEnabled(USB_INT_SOFI))
 131               		.loc 1 81 0
 132 0026 82FF      		sbrs r24,2
 133 0028 00C0      		rjmp .L4
 134               	.LVL1:
 135               	.LBB92:
 136               	.LBB93:
 282:../../protocol/lufa/LUFA-120730/LUFA/Drivers/USB/Core/AVR8/../AVR8/USBInterrupt_AVR8.h **** 						return (UDIEN  & (1 << SOFE));
 137               		.loc 2 282 0
 138 002a 8091 E200 		lds r24,226
 139               	.LBE93:
 140               	.LBE92:
 141               		.loc 1 81 0
 142 002e 82FF      		sbrs r24,2
 143 0030 00C0      		rjmp .L4
 144               	.LVL2:
 145               	.LBB94:
 146               	.LBB95:
 229:../../protocol/lufa/LUFA-120730/LUFA/Drivers/USB/Core/AVR8/../AVR8/USBInterrupt_AVR8.h **** 						UDINT  &= ~(1 << SOFI);
 147               		.loc 2 229 0
 148 0032 8091 E100 		lds r24,225
 149 0036 8B7F      		andi r24,lo8(-5)
 150 0038 8093 E100 		sts 225,r24
 151               	.LBE95:
 152               	.LBE94:
  82:../../protocol/lufa/LUFA-120730/LUFA/Drivers/USB/Core/AVR8/USBInterrupt_AVR8.c **** 	{
  83:../../protocol/lufa/LUFA-120730/LUFA/Drivers/USB/Core/AVR8/USBInterrupt_AVR8.c **** 		USB_INT_Clear(USB_INT_SOFI);
  84:../../protocol/lufa/LUFA-120730/LUFA/Drivers/USB/Core/AVR8/USBInterrupt_AVR8.c **** 
  85:../../protocol/lufa/LUFA-120730/LUFA/Drivers/USB/Core/AVR8/USBInterrupt_AVR8.c **** 		EVENT_USB_Device_StartOfFrame();
 153               		.loc 1 85 0
 154 003c 0E94 0000 		call EVENT_USB_Device_StartOfFrame
 155               	.LVL3:
 156               	.L4:
 157               	.LBB96:
 158               	.LBB97:
 314:../../protocol/lufa/LUFA-120730/LUFA/Drivers/USB/Core/AVR8/../AVR8/USBInterrupt_AVR8.h **** 						return (USBINT & (1 << VBUSTI));
 159               		.loc 2 314 0
 160 0040 8091 DA00 		lds r24,218
 161               	.LBE97:
 162               	.LBE96:
  86:../../protocol/lufa/LUFA-120730/LUFA/Drivers/USB/Core/AVR8/USBInterrupt_AVR8.c **** 	}
  87:../../protocol/lufa/LUFA-120730/LUFA/Drivers/USB/Core/AVR8/USBInterrupt_AVR8.c **** 	#endif
  88:../../protocol/lufa/LUFA-120730/LUFA/Drivers/USB/Core/AVR8/USBInterrupt_AVR8.c **** 
  89:../../protocol/lufa/LUFA-120730/LUFA/Drivers/USB/Core/AVR8/USBInterrupt_AVR8.c **** 	#if defined(USB_SERIES_4_AVR) || defined(USB_SERIES_6_AVR) || defined(USB_SERIES_7_AVR)
  90:../../protocol/lufa/LUFA-120730/LUFA/Drivers/USB/Core/AVR8/USBInterrupt_AVR8.c **** 	if (USB_INT_HasOccurred(USB_INT_VBUSTI) && USB_INT_IsEnabled(USB_INT_VBUSTI))
 163               		.loc 1 90 0
 164 0044 80FF      		sbrs r24,0
 165 0046 00C0      		rjmp .L5
 166               	.LVL4:
 167               	.LBB98:
 168               	.LBB99:
 268:../../protocol/lufa/LUFA-120730/LUFA/Drivers/USB/Core/AVR8/../AVR8/USBInterrupt_AVR8.h **** 						return (USBCON & (1 << VBUSTE));
 169               		.loc 2 268 0
 170 0048 8091 D800 		lds r24,216
 171               	.LBE99:
 172               	.LBE98:
 173               		.loc 1 90 0
 174 004c 80FF      		sbrs r24,0
 175 004e 00C0      		rjmp .L5
 176               	.LVL5:
 177               	.LBB100:
 178               	.LBB101:
 210:../../protocol/lufa/LUFA-120730/LUFA/Drivers/USB/Core/AVR8/../AVR8/USBInterrupt_AVR8.h **** 						USBINT &= ~(1 << VBUSTI);
 179               		.loc 2 210 0
 180 0050 8091 DA00 		lds r24,218
 181 0054 8E7F      		andi r24,lo8(-2)
 182 0056 8093 DA00 		sts 218,r24
 183               	.LBE101:
 184               	.LBE100:
 185               	.LBB102:
 186               	.LBB103:
 187               		.file 3 "../../protocol/lufa/LUFA-120730/LUFA/Drivers/USB/Core/AVR8/../AVR8/../AVR8/USBController_
   1:../../protocol/lufa/LUFA-120730/LUFA/Drivers/USB/Core/AVR8/../AVR8/../AVR8/USBController_AVR8.h **** /*
   2:../../protocol/lufa/LUFA-120730/LUFA/Drivers/USB/Core/AVR8/../AVR8/../AVR8/USBController_AVR8.h ****              LUFA Library
   3:../../protocol/lufa/LUFA-120730/LUFA/Drivers/USB/Core/AVR8/../AVR8/../AVR8/USBController_AVR8.h ****      Copyright (C) Dean Camera, 2012.
   4:../../protocol/lufa/LUFA-120730/LUFA/Drivers/USB/Core/AVR8/../AVR8/../AVR8/USBController_AVR8.h **** 
   5:../../protocol/lufa/LUFA-120730/LUFA/Drivers/USB/Core/AVR8/../AVR8/../AVR8/USBController_AVR8.h ****   dean [at] fourwalledcubicle [dot] com
   6:../../protocol/lufa/LUFA-120730/LUFA/Drivers/USB/Core/AVR8/../AVR8/../AVR8/USBController_AVR8.h ****            www.lufa-lib.org
   7:../../protocol/lufa/LUFA-120730/LUFA/Drivers/USB/Core/AVR8/../AVR8/../AVR8/USBController_AVR8.h **** */
   8:../../protocol/lufa/LUFA-120730/LUFA/Drivers/USB/Core/AVR8/../AVR8/../AVR8/USBController_AVR8.h **** 
   9:../../protocol/lufa/LUFA-120730/LUFA/Drivers/USB/Core/AVR8/../AVR8/../AVR8/USBController_AVR8.h **** /*
  10:../../protocol/lufa/LUFA-120730/LUFA/Drivers/USB/Core/AVR8/../AVR8/../AVR8/USBController_AVR8.h ****   Copyright 2012  Dean Camera (dean [at] fourwalledcubicle [dot] com)
  11:../../protocol/lufa/LUFA-120730/LUFA/Drivers/USB/Core/AVR8/../AVR8/../AVR8/USBController_AVR8.h **** 
  12:../../protocol/lufa/LUFA-120730/LUFA/Drivers/USB/Core/AVR8/../AVR8/../AVR8/USBController_AVR8.h ****   Permission to use, copy, modify, distribute, and sell this
  13:../../protocol/lufa/LUFA-120730/LUFA/Drivers/USB/Core/AVR8/../AVR8/../AVR8/USBController_AVR8.h ****   software and its documentation for any purpose is hereby granted
  14:../../protocol/lufa/LUFA-120730/LUFA/Drivers/USB/Core/AVR8/../AVR8/../AVR8/USBController_AVR8.h ****   without fee, provided that the above copyright notice appear in
  15:../../protocol/lufa/LUFA-120730/LUFA/Drivers/USB/Core/AVR8/../AVR8/../AVR8/USBController_AVR8.h ****   all copies and that both that the copyright notice and this
  16:../../protocol/lufa/LUFA-120730/LUFA/Drivers/USB/Core/AVR8/../AVR8/../AVR8/USBController_AVR8.h ****   permission notice and warranty disclaimer appear in supporting
  17:../../protocol/lufa/LUFA-120730/LUFA/Drivers/USB/Core/AVR8/../AVR8/../AVR8/USBController_AVR8.h ****   documentation, and that the name of the author not be used in
  18:../../protocol/lufa/LUFA-120730/LUFA/Drivers/USB/Core/AVR8/../AVR8/../AVR8/USBController_AVR8.h ****   advertising or publicity pertaining to distribution of the
  19:../../protocol/lufa/LUFA-120730/LUFA/Drivers/USB/Core/AVR8/../AVR8/../AVR8/USBController_AVR8.h ****   software without specific, written prior permission.
  20:../../protocol/lufa/LUFA-120730/LUFA/Drivers/USB/Core/AVR8/../AVR8/../AVR8/USBController_AVR8.h **** 
  21:../../protocol/lufa/LUFA-120730/LUFA/Drivers/USB/Core/AVR8/../AVR8/../AVR8/USBController_AVR8.h ****   The author disclaim all warranties with regard to this
  22:../../protocol/lufa/LUFA-120730/LUFA/Drivers/USB/Core/AVR8/../AVR8/../AVR8/USBController_AVR8.h ****   software, including all implied warranties of merchantability
  23:../../protocol/lufa/LUFA-120730/LUFA/Drivers/USB/Core/AVR8/../AVR8/../AVR8/USBController_AVR8.h ****   and fitness.  In no event shall the author be liable for any
  24:../../protocol/lufa/LUFA-120730/LUFA/Drivers/USB/Core/AVR8/../AVR8/../AVR8/USBController_AVR8.h ****   special, indirect or consequential damages or any damages
  25:../../protocol/lufa/LUFA-120730/LUFA/Drivers/USB/Core/AVR8/../AVR8/../AVR8/USBController_AVR8.h ****   whatsoever resulting from loss of use, data or profits, whether
  26:../../protocol/lufa/LUFA-120730/LUFA/Drivers/USB/Core/AVR8/../AVR8/../AVR8/USBController_AVR8.h ****   in an action of contract, negligence or other tortious action,
  27:../../protocol/lufa/LUFA-120730/LUFA/Drivers/USB/Core/AVR8/../AVR8/../AVR8/USBController_AVR8.h ****   arising out of or in connection with the use or performance of
  28:../../protocol/lufa/LUFA-120730/LUFA/Drivers/USB/Core/AVR8/../AVR8/../AVR8/USBController_AVR8.h ****   this software.
  29:../../protocol/lufa/LUFA-120730/LUFA/Drivers/USB/Core/AVR8/../AVR8/../AVR8/USBController_AVR8.h **** */
  30:../../protocol/lufa/LUFA-120730/LUFA/Drivers/USB/Core/AVR8/../AVR8/../AVR8/USBController_AVR8.h **** 
  31:../../protocol/lufa/LUFA-120730/LUFA/Drivers/USB/Core/AVR8/../AVR8/../AVR8/USBController_AVR8.h **** /** \file
  32:../../protocol/lufa/LUFA-120730/LUFA/Drivers/USB/Core/AVR8/../AVR8/../AVR8/USBController_AVR8.h ****  *  \brief USB Controller definitions for the AVR8 microcontrollers.
  33:../../protocol/lufa/LUFA-120730/LUFA/Drivers/USB/Core/AVR8/../AVR8/../AVR8/USBController_AVR8.h ****  *  \copydetails Group_USBManagement_AVR8
  34:../../protocol/lufa/LUFA-120730/LUFA/Drivers/USB/Core/AVR8/../AVR8/../AVR8/USBController_AVR8.h ****  *
  35:../../protocol/lufa/LUFA-120730/LUFA/Drivers/USB/Core/AVR8/../AVR8/../AVR8/USBController_AVR8.h ****  *  \note This file should not be included directly. It is automatically included as needed by the 
  36:../../protocol/lufa/LUFA-120730/LUFA/Drivers/USB/Core/AVR8/../AVR8/../AVR8/USBController_AVR8.h ****  *        dispatch header located in LUFA/Drivers/USB/USB.h.
  37:../../protocol/lufa/LUFA-120730/LUFA/Drivers/USB/Core/AVR8/../AVR8/../AVR8/USBController_AVR8.h ****  */
  38:../../protocol/lufa/LUFA-120730/LUFA/Drivers/USB/Core/AVR8/../AVR8/../AVR8/USBController_AVR8.h **** 
  39:../../protocol/lufa/LUFA-120730/LUFA/Drivers/USB/Core/AVR8/../AVR8/../AVR8/USBController_AVR8.h **** /** \ingroup Group_USBManagement
  40:../../protocol/lufa/LUFA-120730/LUFA/Drivers/USB/Core/AVR8/../AVR8/../AVR8/USBController_AVR8.h ****  *  \defgroup Group_USBManagement_AVR8 USB Interface Management (AVR8)
  41:../../protocol/lufa/LUFA-120730/LUFA/Drivers/USB/Core/AVR8/../AVR8/../AVR8/USBController_AVR8.h ****  *  \brief USB Controller definitions for the AVR8 microcontrollers.
  42:../../protocol/lufa/LUFA-120730/LUFA/Drivers/USB/Core/AVR8/../AVR8/../AVR8/USBController_AVR8.h ****  *
  43:../../protocol/lufa/LUFA-120730/LUFA/Drivers/USB/Core/AVR8/../AVR8/../AVR8/USBController_AVR8.h ****  *  Functions, macros, variables, enums and types related to the setup and management of the USB in
  44:../../protocol/lufa/LUFA-120730/LUFA/Drivers/USB/Core/AVR8/../AVR8/../AVR8/USBController_AVR8.h ****  *
  45:../../protocol/lufa/LUFA-120730/LUFA/Drivers/USB/Core/AVR8/../AVR8/../AVR8/USBController_AVR8.h ****  *  @{
  46:../../protocol/lufa/LUFA-120730/LUFA/Drivers/USB/Core/AVR8/../AVR8/../AVR8/USBController_AVR8.h ****  */
  47:../../protocol/lufa/LUFA-120730/LUFA/Drivers/USB/Core/AVR8/../AVR8/../AVR8/USBController_AVR8.h **** 
  48:../../protocol/lufa/LUFA-120730/LUFA/Drivers/USB/Core/AVR8/../AVR8/../AVR8/USBController_AVR8.h **** #ifndef __USBCONTROLLER_AVR8_H__
  49:../../protocol/lufa/LUFA-120730/LUFA/Drivers/USB/Core/AVR8/../AVR8/../AVR8/USBController_AVR8.h **** #define __USBCONTROLLER_AVR8_H__
  50:../../protocol/lufa/LUFA-120730/LUFA/Drivers/USB/Core/AVR8/../AVR8/../AVR8/USBController_AVR8.h **** 
  51:../../protocol/lufa/LUFA-120730/LUFA/Drivers/USB/Core/AVR8/../AVR8/../AVR8/USBController_AVR8.h **** 	/* Includes: */
  52:../../protocol/lufa/LUFA-120730/LUFA/Drivers/USB/Core/AVR8/../AVR8/../AVR8/USBController_AVR8.h **** 		#include "../../../../Common/Common.h"
  53:../../protocol/lufa/LUFA-120730/LUFA/Drivers/USB/Core/AVR8/../AVR8/../AVR8/USBController_AVR8.h **** 		#include "../USBMode.h"
  54:../../protocol/lufa/LUFA-120730/LUFA/Drivers/USB/Core/AVR8/../AVR8/../AVR8/USBController_AVR8.h **** 		#include "../Events.h"
  55:../../protocol/lufa/LUFA-120730/LUFA/Drivers/USB/Core/AVR8/../AVR8/../AVR8/USBController_AVR8.h **** 		#include "../USBTask.h"
  56:../../protocol/lufa/LUFA-120730/LUFA/Drivers/USB/Core/AVR8/../AVR8/../AVR8/USBController_AVR8.h **** 		#include "../USBInterrupt.h"
  57:../../protocol/lufa/LUFA-120730/LUFA/Drivers/USB/Core/AVR8/../AVR8/../AVR8/USBController_AVR8.h **** 
  58:../../protocol/lufa/LUFA-120730/LUFA/Drivers/USB/Core/AVR8/../AVR8/../AVR8/USBController_AVR8.h **** 		#if defined(USB_CAN_BE_HOST) || defined(__DOXYGEN__)
  59:../../protocol/lufa/LUFA-120730/LUFA/Drivers/USB/Core/AVR8/../AVR8/../AVR8/USBController_AVR8.h **** 			#include "../Host.h"
  60:../../protocol/lufa/LUFA-120730/LUFA/Drivers/USB/Core/AVR8/../AVR8/../AVR8/USBController_AVR8.h **** 			#include "../OTG.h"
  61:../../protocol/lufa/LUFA-120730/LUFA/Drivers/USB/Core/AVR8/../AVR8/../AVR8/USBController_AVR8.h **** 			#include "../Pipe.h"
  62:../../protocol/lufa/LUFA-120730/LUFA/Drivers/USB/Core/AVR8/../AVR8/../AVR8/USBController_AVR8.h **** 			#include "../HostStandardReq.h"
  63:../../protocol/lufa/LUFA-120730/LUFA/Drivers/USB/Core/AVR8/../AVR8/../AVR8/USBController_AVR8.h **** 			#include "../PipeStream.h"
  64:../../protocol/lufa/LUFA-120730/LUFA/Drivers/USB/Core/AVR8/../AVR8/../AVR8/USBController_AVR8.h **** 		#endif
  65:../../protocol/lufa/LUFA-120730/LUFA/Drivers/USB/Core/AVR8/../AVR8/../AVR8/USBController_AVR8.h **** 
  66:../../protocol/lufa/LUFA-120730/LUFA/Drivers/USB/Core/AVR8/../AVR8/../AVR8/USBController_AVR8.h **** 		#if defined(USB_CAN_BE_DEVICE) || defined(__DOXYGEN__)
  67:../../protocol/lufa/LUFA-120730/LUFA/Drivers/USB/Core/AVR8/../AVR8/../AVR8/USBController_AVR8.h **** 			#include "../Device.h"
  68:../../protocol/lufa/LUFA-120730/LUFA/Drivers/USB/Core/AVR8/../AVR8/../AVR8/USBController_AVR8.h **** 			#include "../Endpoint.h"
  69:../../protocol/lufa/LUFA-120730/LUFA/Drivers/USB/Core/AVR8/../AVR8/../AVR8/USBController_AVR8.h **** 			#include "../DeviceStandardReq.h"
  70:../../protocol/lufa/LUFA-120730/LUFA/Drivers/USB/Core/AVR8/../AVR8/../AVR8/USBController_AVR8.h **** 			#include "../EndpointStream.h"
  71:../../protocol/lufa/LUFA-120730/LUFA/Drivers/USB/Core/AVR8/../AVR8/../AVR8/USBController_AVR8.h **** 		#endif
  72:../../protocol/lufa/LUFA-120730/LUFA/Drivers/USB/Core/AVR8/../AVR8/../AVR8/USBController_AVR8.h **** 
  73:../../protocol/lufa/LUFA-120730/LUFA/Drivers/USB/Core/AVR8/../AVR8/../AVR8/USBController_AVR8.h **** 	/* Enable C linkage for C++ Compilers: */
  74:../../protocol/lufa/LUFA-120730/LUFA/Drivers/USB/Core/AVR8/../AVR8/../AVR8/USBController_AVR8.h **** 		#if defined(__cplusplus)
  75:../../protocol/lufa/LUFA-120730/LUFA/Drivers/USB/Core/AVR8/../AVR8/../AVR8/USBController_AVR8.h **** 			extern "C" {
  76:../../protocol/lufa/LUFA-120730/LUFA/Drivers/USB/Core/AVR8/../AVR8/../AVR8/USBController_AVR8.h **** 		#endif
  77:../../protocol/lufa/LUFA-120730/LUFA/Drivers/USB/Core/AVR8/../AVR8/../AVR8/USBController_AVR8.h **** 
  78:../../protocol/lufa/LUFA-120730/LUFA/Drivers/USB/Core/AVR8/../AVR8/../AVR8/USBController_AVR8.h **** 	/* Preprocessor Checks and Defines: */
  79:../../protocol/lufa/LUFA-120730/LUFA/Drivers/USB/Core/AVR8/../AVR8/../AVR8/USBController_AVR8.h **** 		#if !defined(__INCLUDE_FROM_USB_DRIVER)
  80:../../protocol/lufa/LUFA-120730/LUFA/Drivers/USB/Core/AVR8/../AVR8/../AVR8/USBController_AVR8.h **** 			#error Do not include this file directly. Include LUFA/Drivers/USB/USB.h instead.
  81:../../protocol/lufa/LUFA-120730/LUFA/Drivers/USB/Core/AVR8/../AVR8/../AVR8/USBController_AVR8.h **** 		#endif
  82:../../protocol/lufa/LUFA-120730/LUFA/Drivers/USB/Core/AVR8/../AVR8/../AVR8/USBController_AVR8.h **** 
  83:../../protocol/lufa/LUFA-120730/LUFA/Drivers/USB/Core/AVR8/../AVR8/../AVR8/USBController_AVR8.h **** 		#if !defined(F_USB)
  84:../../protocol/lufa/LUFA-120730/LUFA/Drivers/USB/Core/AVR8/../AVR8/../AVR8/USBController_AVR8.h **** 			#error F_USB is not defined. You must define F_USB to the frequency of the unprescaled USB contr
  85:../../protocol/lufa/LUFA-120730/LUFA/Drivers/USB/Core/AVR8/../AVR8/../AVR8/USBController_AVR8.h **** 		#endif
  86:../../protocol/lufa/LUFA-120730/LUFA/Drivers/USB/Core/AVR8/../AVR8/../AVR8/USBController_AVR8.h **** 
  87:../../protocol/lufa/LUFA-120730/LUFA/Drivers/USB/Core/AVR8/../AVR8/../AVR8/USBController_AVR8.h **** 		#if (F_USB == 8000000)
  88:../../protocol/lufa/LUFA-120730/LUFA/Drivers/USB/Core/AVR8/../AVR8/../AVR8/USBController_AVR8.h **** 			#if (defined(__AVR_AT90USB82__) || defined(__AVR_AT90USB162__) || \
  89:../../protocol/lufa/LUFA-120730/LUFA/Drivers/USB/Core/AVR8/../AVR8/../AVR8/USBController_AVR8.h **** 			     defined(__AVR_ATmega8U2__) || defined(__AVR_ATmega16U2__) || \
  90:../../protocol/lufa/LUFA-120730/LUFA/Drivers/USB/Core/AVR8/../AVR8/../AVR8/USBController_AVR8.h **** 			     defined(__AVR_ATmega32U2__))
  91:../../protocol/lufa/LUFA-120730/LUFA/Drivers/USB/Core/AVR8/../AVR8/../AVR8/USBController_AVR8.h **** 				#define USB_PLL_PSC                0
  92:../../protocol/lufa/LUFA-120730/LUFA/Drivers/USB/Core/AVR8/../AVR8/../AVR8/USBController_AVR8.h **** 			#elif (defined(__AVR_ATmega16U4__) || defined(__AVR_ATmega32U4__))
  93:../../protocol/lufa/LUFA-120730/LUFA/Drivers/USB/Core/AVR8/../AVR8/../AVR8/USBController_AVR8.h **** 				#define USB_PLL_PSC                0
  94:../../protocol/lufa/LUFA-120730/LUFA/Drivers/USB/Core/AVR8/../AVR8/../AVR8/USBController_AVR8.h **** 			#elif (defined(__AVR_AT90USB646__)  || defined(__AVR_AT90USB1286__) || defined(__AVR_ATmega32U6_
  95:../../protocol/lufa/LUFA-120730/LUFA/Drivers/USB/Core/AVR8/../AVR8/../AVR8/USBController_AVR8.h **** 				#define USB_PLL_PSC                ((1 << PLLP1) | (1 << PLLP0))
  96:../../protocol/lufa/LUFA-120730/LUFA/Drivers/USB/Core/AVR8/../AVR8/../AVR8/USBController_AVR8.h **** 			#elif (defined(__AVR_AT90USB647__)  || defined(__AVR_AT90USB1287__))
  97:../../protocol/lufa/LUFA-120730/LUFA/Drivers/USB/Core/AVR8/../AVR8/../AVR8/USBController_AVR8.h **** 				#define USB_PLL_PSC                ((1 << PLLP1) | (1 << PLLP0))
  98:../../protocol/lufa/LUFA-120730/LUFA/Drivers/USB/Core/AVR8/../AVR8/../AVR8/USBController_AVR8.h **** 			#endif
  99:../../protocol/lufa/LUFA-120730/LUFA/Drivers/USB/Core/AVR8/../AVR8/../AVR8/USBController_AVR8.h **** 		#elif (F_USB == 16000000)
 100:../../protocol/lufa/LUFA-120730/LUFA/Drivers/USB/Core/AVR8/../AVR8/../AVR8/USBController_AVR8.h **** 			#if (defined(__AVR_AT90USB82__) || defined(__AVR_AT90USB162__) || \
 101:../../protocol/lufa/LUFA-120730/LUFA/Drivers/USB/Core/AVR8/../AVR8/../AVR8/USBController_AVR8.h **** 			     defined(__AVR_ATmega8U2__) || defined(__AVR_ATmega16U2__) || \
 102:../../protocol/lufa/LUFA-120730/LUFA/Drivers/USB/Core/AVR8/../AVR8/../AVR8/USBController_AVR8.h **** 			     defined(__AVR_ATmega32U2__))
 103:../../protocol/lufa/LUFA-120730/LUFA/Drivers/USB/Core/AVR8/../AVR8/../AVR8/USBController_AVR8.h **** 				#define USB_PLL_PSC                (1 << PLLP0)
 104:../../protocol/lufa/LUFA-120730/LUFA/Drivers/USB/Core/AVR8/../AVR8/../AVR8/USBController_AVR8.h **** 			#elif (defined(__AVR_ATmega16U4__) || defined(__AVR_ATmega32U4__))
 105:../../protocol/lufa/LUFA-120730/LUFA/Drivers/USB/Core/AVR8/../AVR8/../AVR8/USBController_AVR8.h **** 				#define USB_PLL_PSC                (1 << PINDIV)
 106:../../protocol/lufa/LUFA-120730/LUFA/Drivers/USB/Core/AVR8/../AVR8/../AVR8/USBController_AVR8.h **** 			#elif (defined(__AVR_AT90USB646__) || defined(__AVR_AT90USB647__) || defined(__AVR_ATmega32U6__)
 107:../../protocol/lufa/LUFA-120730/LUFA/Drivers/USB/Core/AVR8/../AVR8/../AVR8/USBController_AVR8.h **** 				#define USB_PLL_PSC                ((1 << PLLP2) | (1 << PLLP1))
 108:../../protocol/lufa/LUFA-120730/LUFA/Drivers/USB/Core/AVR8/../AVR8/../AVR8/USBController_AVR8.h **** 			#elif (defined(__AVR_AT90USB1286__) || defined(__AVR_AT90USB1287__))
 109:../../protocol/lufa/LUFA-120730/LUFA/Drivers/USB/Core/AVR8/../AVR8/../AVR8/USBController_AVR8.h **** 				#define USB_PLL_PSC                ((1 << PLLP2) | (1 << PLLP0))
 110:../../protocol/lufa/LUFA-120730/LUFA/Drivers/USB/Core/AVR8/../AVR8/../AVR8/USBController_AVR8.h **** 			#endif
 111:../../protocol/lufa/LUFA-120730/LUFA/Drivers/USB/Core/AVR8/../AVR8/../AVR8/USBController_AVR8.h **** 		#endif
 112:../../protocol/lufa/LUFA-120730/LUFA/Drivers/USB/Core/AVR8/../AVR8/../AVR8/USBController_AVR8.h **** 
 113:../../protocol/lufa/LUFA-120730/LUFA/Drivers/USB/Core/AVR8/../AVR8/../AVR8/USBController_AVR8.h **** 		#if !defined(USB_PLL_PSC)
 114:../../protocol/lufa/LUFA-120730/LUFA/Drivers/USB/Core/AVR8/../AVR8/../AVR8/USBController_AVR8.h **** 			#error No PLL prescale value available for chosen F_USB value and AVR model.
 115:../../protocol/lufa/LUFA-120730/LUFA/Drivers/USB/Core/AVR8/../AVR8/../AVR8/USBController_AVR8.h **** 		#endif
 116:../../protocol/lufa/LUFA-120730/LUFA/Drivers/USB/Core/AVR8/../AVR8/../AVR8/USBController_AVR8.h **** 
 117:../../protocol/lufa/LUFA-120730/LUFA/Drivers/USB/Core/AVR8/../AVR8/../AVR8/USBController_AVR8.h **** 	/* Public Interface - May be used in end-application: */
 118:../../protocol/lufa/LUFA-120730/LUFA/Drivers/USB/Core/AVR8/../AVR8/../AVR8/USBController_AVR8.h **** 		/* Macros: */
 119:../../protocol/lufa/LUFA-120730/LUFA/Drivers/USB/Core/AVR8/../AVR8/../AVR8/USBController_AVR8.h **** 			/** \name USB Controller Option Masks */
 120:../../protocol/lufa/LUFA-120730/LUFA/Drivers/USB/Core/AVR8/../AVR8/../AVR8/USBController_AVR8.h **** 			//@{
 121:../../protocol/lufa/LUFA-120730/LUFA/Drivers/USB/Core/AVR8/../AVR8/../AVR8/USBController_AVR8.h **** 			/** Regulator disable option mask for \ref USB_Init(). This indicates that the internal 3.3V USB
 122:../../protocol/lufa/LUFA-120730/LUFA/Drivers/USB/Core/AVR8/../AVR8/../AVR8/USBController_AVR8.h **** 			 *  regulator should be disabled and the AVR's VCC level used for the data pads.
 123:../../protocol/lufa/LUFA-120730/LUFA/Drivers/USB/Core/AVR8/../AVR8/../AVR8/USBController_AVR8.h **** 			 *
 124:../../protocol/lufa/LUFA-120730/LUFA/Drivers/USB/Core/AVR8/../AVR8/../AVR8/USBController_AVR8.h **** 			 *  \note See USB AVR data sheet for more information on the internal pad regulator.
 125:../../protocol/lufa/LUFA-120730/LUFA/Drivers/USB/Core/AVR8/../AVR8/../AVR8/USBController_AVR8.h **** 			 */
 126:../../protocol/lufa/LUFA-120730/LUFA/Drivers/USB/Core/AVR8/../AVR8/../AVR8/USBController_AVR8.h **** 			#define USB_OPT_REG_DISABLED               (1 << 1)
 127:../../protocol/lufa/LUFA-120730/LUFA/Drivers/USB/Core/AVR8/../AVR8/../AVR8/USBController_AVR8.h **** 
 128:../../protocol/lufa/LUFA-120730/LUFA/Drivers/USB/Core/AVR8/../AVR8/../AVR8/USBController_AVR8.h **** 			/** Regulator enable option mask for \ref USB_Init(). This indicates that the internal 3.3V USB 
 129:../../protocol/lufa/LUFA-120730/LUFA/Drivers/USB/Core/AVR8/../AVR8/../AVR8/USBController_AVR8.h **** 			 *  regulator should be enabled to regulate the data pin voltages from the VBUS level down to a 
 130:../../protocol/lufa/LUFA-120730/LUFA/Drivers/USB/Core/AVR8/../AVR8/../AVR8/USBController_AVR8.h **** 			 *  the range allowable by the USB standard.
 131:../../protocol/lufa/LUFA-120730/LUFA/Drivers/USB/Core/AVR8/../AVR8/../AVR8/USBController_AVR8.h **** 			 *
 132:../../protocol/lufa/LUFA-120730/LUFA/Drivers/USB/Core/AVR8/../AVR8/../AVR8/USBController_AVR8.h **** 			 *  \note See USB AVR data sheet for more information on the internal pad regulator.
 133:../../protocol/lufa/LUFA-120730/LUFA/Drivers/USB/Core/AVR8/../AVR8/../AVR8/USBController_AVR8.h **** 			 */
 134:../../protocol/lufa/LUFA-120730/LUFA/Drivers/USB/Core/AVR8/../AVR8/../AVR8/USBController_AVR8.h **** 			#define USB_OPT_REG_ENABLED                (0 << 1)
 135:../../protocol/lufa/LUFA-120730/LUFA/Drivers/USB/Core/AVR8/../AVR8/../AVR8/USBController_AVR8.h **** 
 136:../../protocol/lufa/LUFA-120730/LUFA/Drivers/USB/Core/AVR8/../AVR8/../AVR8/USBController_AVR8.h **** 			/** Manual PLL control option mask for \ref USB_Init(). This indicates to the library that the u
 137:../../protocol/lufa/LUFA-120730/LUFA/Drivers/USB/Core/AVR8/../AVR8/../AVR8/USBController_AVR8.h **** 			 *  will take full responsibility for controlling the AVR's PLL (used to generate the high frequ
 138:../../protocol/lufa/LUFA-120730/LUFA/Drivers/USB/Core/AVR8/../AVR8/../AVR8/USBController_AVR8.h **** 			 *  that the USB controller requires) and ensuring that it is locked at the correct frequency fo
 139:../../protocol/lufa/LUFA-120730/LUFA/Drivers/USB/Core/AVR8/../AVR8/../AVR8/USBController_AVR8.h **** 			 */
 140:../../protocol/lufa/LUFA-120730/LUFA/Drivers/USB/Core/AVR8/../AVR8/../AVR8/USBController_AVR8.h **** 			#define USB_OPT_MANUAL_PLL                 (1 << 2)
 141:../../protocol/lufa/LUFA-120730/LUFA/Drivers/USB/Core/AVR8/../AVR8/../AVR8/USBController_AVR8.h **** 
 142:../../protocol/lufa/LUFA-120730/LUFA/Drivers/USB/Core/AVR8/../AVR8/../AVR8/USBController_AVR8.h **** 			/** Automatic PLL control option mask for \ref USB_Init(). This indicates to the library that th
 143:../../protocol/lufa/LUFA-120730/LUFA/Drivers/USB/Core/AVR8/../AVR8/../AVR8/USBController_AVR8.h **** 			 *  take full responsibility for controlling the AVR's PLL (used to generate the high frequency 
 144:../../protocol/lufa/LUFA-120730/LUFA/Drivers/USB/Core/AVR8/../AVR8/../AVR8/USBController_AVR8.h **** 			 *  that the USB controller requires) and ensuring that it is locked at the correct frequency fo
 145:../../protocol/lufa/LUFA-120730/LUFA/Drivers/USB/Core/AVR8/../AVR8/../AVR8/USBController_AVR8.h **** 			 */
 146:../../protocol/lufa/LUFA-120730/LUFA/Drivers/USB/Core/AVR8/../AVR8/../AVR8/USBController_AVR8.h **** 			#define USB_OPT_AUTO_PLL                   (0 << 2)
 147:../../protocol/lufa/LUFA-120730/LUFA/Drivers/USB/Core/AVR8/../AVR8/../AVR8/USBController_AVR8.h **** 			//@}
 148:../../protocol/lufa/LUFA-120730/LUFA/Drivers/USB/Core/AVR8/../AVR8/../AVR8/USBController_AVR8.h **** 
 149:../../protocol/lufa/LUFA-120730/LUFA/Drivers/USB/Core/AVR8/../AVR8/../AVR8/USBController_AVR8.h **** 			#if !defined(USB_STREAM_TIMEOUT_MS) || defined(__DOXYGEN__)
 150:../../protocol/lufa/LUFA-120730/LUFA/Drivers/USB/Core/AVR8/../AVR8/../AVR8/USBController_AVR8.h **** 				/** Constant for the maximum software timeout period of the USB data stream transfer functions
 151:../../protocol/lufa/LUFA-120730/LUFA/Drivers/USB/Core/AVR8/../AVR8/../AVR8/USBController_AVR8.h **** 				 *  (both control and standard) when in either device or host mode. If the next packet of a str
 152:../../protocol/lufa/LUFA-120730/LUFA/Drivers/USB/Core/AVR8/../AVR8/../AVR8/USBController_AVR8.h **** 				 *  is not received or acknowledged within this time period, the stream function will fail.
 153:../../protocol/lufa/LUFA-120730/LUFA/Drivers/USB/Core/AVR8/../AVR8/../AVR8/USBController_AVR8.h **** 				 *
 154:../../protocol/lufa/LUFA-120730/LUFA/Drivers/USB/Core/AVR8/../AVR8/../AVR8/USBController_AVR8.h **** 				 *  This value may be overridden in the user project makefile as the value of the
 155:../../protocol/lufa/LUFA-120730/LUFA/Drivers/USB/Core/AVR8/../AVR8/../AVR8/USBController_AVR8.h **** 				 *  \ref USB_STREAM_TIMEOUT_MS token, and passed to the compiler using the -D switch.
 156:../../protocol/lufa/LUFA-120730/LUFA/Drivers/USB/Core/AVR8/../AVR8/../AVR8/USBController_AVR8.h **** 				 */
 157:../../protocol/lufa/LUFA-120730/LUFA/Drivers/USB/Core/AVR8/../AVR8/../AVR8/USBController_AVR8.h **** 				#define USB_STREAM_TIMEOUT_MS       100
 158:../../protocol/lufa/LUFA-120730/LUFA/Drivers/USB/Core/AVR8/../AVR8/../AVR8/USBController_AVR8.h **** 			#endif
 159:../../protocol/lufa/LUFA-120730/LUFA/Drivers/USB/Core/AVR8/../AVR8/../AVR8/USBController_AVR8.h **** 
 160:../../protocol/lufa/LUFA-120730/LUFA/Drivers/USB/Core/AVR8/../AVR8/../AVR8/USBController_AVR8.h **** 		/* Inline Functions: */
 161:../../protocol/lufa/LUFA-120730/LUFA/Drivers/USB/Core/AVR8/../AVR8/../AVR8/USBController_AVR8.h **** 			#if defined(USB_SERIES_4_AVR) || defined(USB_SERIES_6_AVR) || defined(USB_SERIES_7_AVR) || defin
 162:../../protocol/lufa/LUFA-120730/LUFA/Drivers/USB/Core/AVR8/../AVR8/../AVR8/USBController_AVR8.h **** 				/** Determines if the VBUS line is currently high (i.e. the USB host is supplying power).
 163:../../protocol/lufa/LUFA-120730/LUFA/Drivers/USB/Core/AVR8/../AVR8/../AVR8/USBController_AVR8.h **** 				 *
 164:../../protocol/lufa/LUFA-120730/LUFA/Drivers/USB/Core/AVR8/../AVR8/../AVR8/USBController_AVR8.h **** 				 *  \note This function is not available on some AVR models which do not support hardware VBUS 
 165:../../protocol/lufa/LUFA-120730/LUFA/Drivers/USB/Core/AVR8/../AVR8/../AVR8/USBController_AVR8.h **** 				 *
 166:../../protocol/lufa/LUFA-120730/LUFA/Drivers/USB/Core/AVR8/../AVR8/../AVR8/USBController_AVR8.h **** 				 *  \return Boolean \c true if the VBUS line is currently detecting power from a host, \c false
 167:../../protocol/lufa/LUFA-120730/LUFA/Drivers/USB/Core/AVR8/../AVR8/../AVR8/USBController_AVR8.h **** 				 */
 168:../../protocol/lufa/LUFA-120730/LUFA/Drivers/USB/Core/AVR8/../AVR8/../AVR8/USBController_AVR8.h **** 				static inline bool USB_VBUS_GetStatus(void) ATTR_WARN_UNUSED_RESULT ATTR_ALWAYS_INLINE;
 169:../../protocol/lufa/LUFA-120730/LUFA/Drivers/USB/Core/AVR8/../AVR8/../AVR8/USBController_AVR8.h **** 				static inline bool USB_VBUS_GetStatus(void)
 170:../../protocol/lufa/LUFA-120730/LUFA/Drivers/USB/Core/AVR8/../AVR8/../AVR8/USBController_AVR8.h **** 				{
 171:../../protocol/lufa/LUFA-120730/LUFA/Drivers/USB/Core/AVR8/../AVR8/../AVR8/USBController_AVR8.h **** 					return ((USBSTA & (1 << VBUS)) ? true : false);
 188               		.loc 3 171 0
 189 005a 8091 D900 		lds r24,217
 190               	.LBE103:
 191               	.LBE102:
  91:../../protocol/lufa/LUFA-120730/LUFA/Drivers/USB/Core/AVR8/USBInterrupt_AVR8.c **** 	{
  92:../../protocol/lufa/LUFA-120730/LUFA/Drivers/USB/Core/AVR8/USBInterrupt_AVR8.c **** 		USB_INT_Clear(USB_INT_VBUSTI);
  93:../../protocol/lufa/LUFA-120730/LUFA/Drivers/USB/Core/AVR8/USBInterrupt_AVR8.c **** 
  94:../../protocol/lufa/LUFA-120730/LUFA/Drivers/USB/Core/AVR8/USBInterrupt_AVR8.c **** 		if (USB_VBUS_GetStatus())
 192               		.loc 1 94 0
 193 005e 80FF      		sbrs r24,0
 194 0060 00C0      		rjmp .L6
 195               	.LBB104:
 196               	.LBB105:
 172:../../protocol/lufa/LUFA-120730/LUFA/Drivers/USB/Core/AVR8/../AVR8/../AVR8/USBController_AVR8.h **** 				}
 173:../../protocol/lufa/LUFA-120730/LUFA/Drivers/USB/Core/AVR8/../AVR8/../AVR8/USBController_AVR8.h **** 			#endif
 174:../../protocol/lufa/LUFA-120730/LUFA/Drivers/USB/Core/AVR8/../AVR8/../AVR8/USBController_AVR8.h **** 
 175:../../protocol/lufa/LUFA-120730/LUFA/Drivers/USB/Core/AVR8/../AVR8/../AVR8/USBController_AVR8.h **** 			/** Detaches the device from the USB bus. This has the effect of removing the device from any
 176:../../protocol/lufa/LUFA-120730/LUFA/Drivers/USB/Core/AVR8/../AVR8/../AVR8/USBController_AVR8.h **** 			 *  attached host, ceasing USB communications. If no host is present, this prevents any host fro
 177:../../protocol/lufa/LUFA-120730/LUFA/Drivers/USB/Core/AVR8/../AVR8/../AVR8/USBController_AVR8.h **** 			 *  enumerating the device once attached until \ref USB_Attach() is called.
 178:../../protocol/lufa/LUFA-120730/LUFA/Drivers/USB/Core/AVR8/../AVR8/../AVR8/USBController_AVR8.h **** 			 */
 179:../../protocol/lufa/LUFA-120730/LUFA/Drivers/USB/Core/AVR8/../AVR8/../AVR8/USBController_AVR8.h **** 			static inline void USB_Detach(void) ATTR_ALWAYS_INLINE;
 180:../../protocol/lufa/LUFA-120730/LUFA/Drivers/USB/Core/AVR8/../AVR8/../AVR8/USBController_AVR8.h **** 			static inline void USB_Detach(void)
 181:../../protocol/lufa/LUFA-120730/LUFA/Drivers/USB/Core/AVR8/../AVR8/../AVR8/USBController_AVR8.h **** 			{
 182:../../protocol/lufa/LUFA-120730/LUFA/Drivers/USB/Core/AVR8/../AVR8/../AVR8/USBController_AVR8.h **** 				UDCON  |=  (1 << DETACH);
 183:../../protocol/lufa/LUFA-120730/LUFA/Drivers/USB/Core/AVR8/../AVR8/../AVR8/USBController_AVR8.h **** 			}
 184:../../protocol/lufa/LUFA-120730/LUFA/Drivers/USB/Core/AVR8/../AVR8/../AVR8/USBController_AVR8.h **** 
 185:../../protocol/lufa/LUFA-120730/LUFA/Drivers/USB/Core/AVR8/../AVR8/../AVR8/USBController_AVR8.h **** 			/** Attaches the device to the USB bus. This announces the device's presence to any attached
 186:../../protocol/lufa/LUFA-120730/LUFA/Drivers/USB/Core/AVR8/../AVR8/../AVR8/USBController_AVR8.h **** 			 *  USB host, starting the enumeration process. If no host is present, attaching the device
 187:../../protocol/lufa/LUFA-120730/LUFA/Drivers/USB/Core/AVR8/../AVR8/../AVR8/USBController_AVR8.h **** 			 *  will allow for enumeration once a host is connected to the device.
 188:../../protocol/lufa/LUFA-120730/LUFA/Drivers/USB/Core/AVR8/../AVR8/../AVR8/USBController_AVR8.h **** 			 *
 189:../../protocol/lufa/LUFA-120730/LUFA/Drivers/USB/Core/AVR8/../AVR8/../AVR8/USBController_AVR8.h **** 			 *  This is inexplicably also required for proper operation while in host mode, to enable the
 190:../../protocol/lufa/LUFA-120730/LUFA/Drivers/USB/Core/AVR8/../AVR8/../AVR8/USBController_AVR8.h **** 			 *  attachment of a device to the host. This is despite the bit being located in the device-mode
 191:../../protocol/lufa/LUFA-120730/LUFA/Drivers/USB/Core/AVR8/../AVR8/../AVR8/USBController_AVR8.h **** 			 *  register and despite the datasheet making no mention of its requirement in host mode.
 192:../../protocol/lufa/LUFA-120730/LUFA/Drivers/USB/Core/AVR8/../AVR8/../AVR8/USBController_AVR8.h **** 			 */
 193:../../protocol/lufa/LUFA-120730/LUFA/Drivers/USB/Core/AVR8/../AVR8/../AVR8/USBController_AVR8.h **** 			static inline void USB_Attach(void) ATTR_ALWAYS_INLINE;
 194:../../protocol/lufa/LUFA-120730/LUFA/Drivers/USB/Core/AVR8/../AVR8/../AVR8/USBController_AVR8.h **** 			static inline void USB_Attach(void)
 195:../../protocol/lufa/LUFA-120730/LUFA/Drivers/USB/Core/AVR8/../AVR8/../AVR8/USBController_AVR8.h **** 			{
 196:../../protocol/lufa/LUFA-120730/LUFA/Drivers/USB/Core/AVR8/../AVR8/../AVR8/USBController_AVR8.h **** 				UDCON  &= ~(1 << DETACH);
 197:../../protocol/lufa/LUFA-120730/LUFA/Drivers/USB/Core/AVR8/../AVR8/../AVR8/USBController_AVR8.h **** 			}
 198:../../protocol/lufa/LUFA-120730/LUFA/Drivers/USB/Core/AVR8/../AVR8/../AVR8/USBController_AVR8.h **** 
 199:../../protocol/lufa/LUFA-120730/LUFA/Drivers/USB/Core/AVR8/../AVR8/../AVR8/USBController_AVR8.h **** 		/* Function Prototypes: */
 200:../../protocol/lufa/LUFA-120730/LUFA/Drivers/USB/Core/AVR8/../AVR8/../AVR8/USBController_AVR8.h **** 			/** Main function to initialize and start the USB interface. Once active, the USB interface will
 201:../../protocol/lufa/LUFA-120730/LUFA/Drivers/USB/Core/AVR8/../AVR8/../AVR8/USBController_AVR8.h **** 			 *  allow for device connection to a host when in device mode, or for device enumeration while i
 202:../../protocol/lufa/LUFA-120730/LUFA/Drivers/USB/Core/AVR8/../AVR8/../AVR8/USBController_AVR8.h **** 			 *  host mode.
 203:../../protocol/lufa/LUFA-120730/LUFA/Drivers/USB/Core/AVR8/../AVR8/../AVR8/USBController_AVR8.h **** 			 *
 204:../../protocol/lufa/LUFA-120730/LUFA/Drivers/USB/Core/AVR8/../AVR8/../AVR8/USBController_AVR8.h **** 			 *  As the USB library relies on interrupts for the device and host mode enumeration processes,
 205:../../protocol/lufa/LUFA-120730/LUFA/Drivers/USB/Core/AVR8/../AVR8/../AVR8/USBController_AVR8.h **** 			 *  the user must enable global interrupts before or shortly after this function is called. In
 206:../../protocol/lufa/LUFA-120730/LUFA/Drivers/USB/Core/AVR8/../AVR8/../AVR8/USBController_AVR8.h **** 			 *  device mode, interrupts must be enabled within 500ms of this function being called to ensure
 207:../../protocol/lufa/LUFA-120730/LUFA/Drivers/USB/Core/AVR8/../AVR8/../AVR8/USBController_AVR8.h **** 			 *  that the host does not time out whilst enumerating the device. In host mode, interrupts may 
 208:../../protocol/lufa/LUFA-120730/LUFA/Drivers/USB/Core/AVR8/../AVR8/../AVR8/USBController_AVR8.h **** 			 *  enabled at the application's leisure however enumeration will not begin of an attached devic
 209:../../protocol/lufa/LUFA-120730/LUFA/Drivers/USB/Core/AVR8/../AVR8/../AVR8/USBController_AVR8.h **** 			 *  until after this has occurred.
 210:../../protocol/lufa/LUFA-120730/LUFA/Drivers/USB/Core/AVR8/../AVR8/../AVR8/USBController_AVR8.h **** 			 *
 211:../../protocol/lufa/LUFA-120730/LUFA/Drivers/USB/Core/AVR8/../AVR8/../AVR8/USBController_AVR8.h **** 			 *  Calling this function when the USB interface is already initialized will cause a complete US
 212:../../protocol/lufa/LUFA-120730/LUFA/Drivers/USB/Core/AVR8/../AVR8/../AVR8/USBController_AVR8.h **** 			 *  interface reset and re-enumeration.
 213:../../protocol/lufa/LUFA-120730/LUFA/Drivers/USB/Core/AVR8/../AVR8/../AVR8/USBController_AVR8.h **** 			 *
 214:../../protocol/lufa/LUFA-120730/LUFA/Drivers/USB/Core/AVR8/../AVR8/../AVR8/USBController_AVR8.h **** 			 *  \param[in] Mode     This is a mask indicating what mode the USB interface is to be initializ
 215:../../protocol/lufa/LUFA-120730/LUFA/Drivers/USB/Core/AVR8/../AVR8/../AVR8/USBController_AVR8.h **** 			 *                      from the \ref USB_Modes_t enum.
 216:../../protocol/lufa/LUFA-120730/LUFA/Drivers/USB/Core/AVR8/../AVR8/../AVR8/USBController_AVR8.h **** 			 *
 217:../../protocol/lufa/LUFA-120730/LUFA/Drivers/USB/Core/AVR8/../AVR8/../AVR8/USBController_AVR8.h **** 			 *  \param[in] Options  Mask indicating the options which should be used when initializing the U
 218:../../protocol/lufa/LUFA-120730/LUFA/Drivers/USB/Core/AVR8/../AVR8/../AVR8/USBController_AVR8.h **** 			 *                      interface to control the USB interface's behavior. This should be compri
 219:../../protocol/lufa/LUFA-120730/LUFA/Drivers/USB/Core/AVR8/../AVR8/../AVR8/USBController_AVR8.h **** 			 *                      a \c USB_OPT_REG_* mask to control the regulator, a \c USB_OPT_*_PLL mas
 220:../../protocol/lufa/LUFA-120730/LUFA/Drivers/USB/Core/AVR8/../AVR8/../AVR8/USBController_AVR8.h **** 			 *                      PLL, and a \c USB_DEVICE_OPT_* mask (when the device mode is enabled) to
 221:../../protocol/lufa/LUFA-120730/LUFA/Drivers/USB/Core/AVR8/../AVR8/../AVR8/USBController_AVR8.h **** 			 *                      mode speed.
 222:../../protocol/lufa/LUFA-120730/LUFA/Drivers/USB/Core/AVR8/../AVR8/../AVR8/USBController_AVR8.h **** 			 *
 223:../../protocol/lufa/LUFA-120730/LUFA/Drivers/USB/Core/AVR8/../AVR8/../AVR8/USBController_AVR8.h **** 			 *  \note To reduce the FLASH requirements of the library if only device or host mode is require
 224:../../protocol/lufa/LUFA-120730/LUFA/Drivers/USB/Core/AVR8/../AVR8/../AVR8/USBController_AVR8.h **** 			 *        the mode can be statically set in the project makefile by defining the token \c USB_DE
 225:../../protocol/lufa/LUFA-120730/LUFA/Drivers/USB/Core/AVR8/../AVR8/../AVR8/USBController_AVR8.h **** 			 *        (for device mode) or \c USB_HOST_ONLY (for host mode), passing the token to the compil
 226:../../protocol/lufa/LUFA-120730/LUFA/Drivers/USB/Core/AVR8/../AVR8/../AVR8/USBController_AVR8.h **** 			 *        via the -D switch. If the mode is statically set, this parameter does not exist in the
 227:../../protocol/lufa/LUFA-120730/LUFA/Drivers/USB/Core/AVR8/../AVR8/../AVR8/USBController_AVR8.h **** 			 *        function prototype.
 228:../../protocol/lufa/LUFA-120730/LUFA/Drivers/USB/Core/AVR8/../AVR8/../AVR8/USBController_AVR8.h **** 			 *        \n\n
 229:../../protocol/lufa/LUFA-120730/LUFA/Drivers/USB/Core/AVR8/../AVR8/../AVR8/USBController_AVR8.h **** 			 *
 230:../../protocol/lufa/LUFA-120730/LUFA/Drivers/USB/Core/AVR8/../AVR8/../AVR8/USBController_AVR8.h **** 			 *  \note To reduce the FLASH requirements of the library if only fixed settings are required,
 231:../../protocol/lufa/LUFA-120730/LUFA/Drivers/USB/Core/AVR8/../AVR8/../AVR8/USBController_AVR8.h **** 			 *        the options may be set statically in the same manner as the mode (see the Mode paramet
 232:../../protocol/lufa/LUFA-120730/LUFA/Drivers/USB/Core/AVR8/../AVR8/../AVR8/USBController_AVR8.h **** 			 *        this function). To statically set the USB options, pass in the \c USE_STATIC_OPTIONS t
 233:../../protocol/lufa/LUFA-120730/LUFA/Drivers/USB/Core/AVR8/../AVR8/../AVR8/USBController_AVR8.h **** 			 *        defined to the appropriate options masks. When the options are statically set, this
 234:../../protocol/lufa/LUFA-120730/LUFA/Drivers/USB/Core/AVR8/../AVR8/../AVR8/USBController_AVR8.h **** 			 *        parameter does not exist in the function prototype.
 235:../../protocol/lufa/LUFA-120730/LUFA/Drivers/USB/Core/AVR8/../AVR8/../AVR8/USBController_AVR8.h **** 			 *        \n\n
 236:../../protocol/lufa/LUFA-120730/LUFA/Drivers/USB/Core/AVR8/../AVR8/../AVR8/USBController_AVR8.h **** 			 *
 237:../../protocol/lufa/LUFA-120730/LUFA/Drivers/USB/Core/AVR8/../AVR8/../AVR8/USBController_AVR8.h **** 			 *  \note The mode parameter does not exist on devices where only one mode is possible, such as 
 238:../../protocol/lufa/LUFA-120730/LUFA/Drivers/USB/Core/AVR8/../AVR8/../AVR8/USBController_AVR8.h **** 			 *        AVR models which only implement the USB device mode in hardware.
 239:../../protocol/lufa/LUFA-120730/LUFA/Drivers/USB/Core/AVR8/../AVR8/../AVR8/USBController_AVR8.h **** 			 *
 240:../../protocol/lufa/LUFA-120730/LUFA/Drivers/USB/Core/AVR8/../AVR8/../AVR8/USBController_AVR8.h **** 			 *  \see \ref Group_Device for the \c USB_DEVICE_OPT_* masks.
 241:../../protocol/lufa/LUFA-120730/LUFA/Drivers/USB/Core/AVR8/../AVR8/../AVR8/USBController_AVR8.h **** 			 */
 242:../../protocol/lufa/LUFA-120730/LUFA/Drivers/USB/Core/AVR8/../AVR8/../AVR8/USBController_AVR8.h **** 			void USB_Init(
 243:../../protocol/lufa/LUFA-120730/LUFA/Drivers/USB/Core/AVR8/../AVR8/../AVR8/USBController_AVR8.h **** 			               #if defined(USB_CAN_BE_BOTH) || defined(__DOXYGEN__)
 244:../../protocol/lufa/LUFA-120730/LUFA/Drivers/USB/Core/AVR8/../AVR8/../AVR8/USBController_AVR8.h **** 			               const uint8_t Mode
 245:../../protocol/lufa/LUFA-120730/LUFA/Drivers/USB/Core/AVR8/../AVR8/../AVR8/USBController_AVR8.h **** 			               #endif
 246:../../protocol/lufa/LUFA-120730/LUFA/Drivers/USB/Core/AVR8/../AVR8/../AVR8/USBController_AVR8.h **** 
 247:../../protocol/lufa/LUFA-120730/LUFA/Drivers/USB/Core/AVR8/../AVR8/../AVR8/USBController_AVR8.h **** 			               #if (defined(USB_CAN_BE_BOTH) && !defined(USE_STATIC_OPTIONS)) || defined(__DOXYG
 248:../../protocol/lufa/LUFA-120730/LUFA/Drivers/USB/Core/AVR8/../AVR8/../AVR8/USBController_AVR8.h **** 			               ,
 249:../../protocol/lufa/LUFA-120730/LUFA/Drivers/USB/Core/AVR8/../AVR8/../AVR8/USBController_AVR8.h **** 			               #elif (!defined(USB_CAN_BE_BOTH) && defined(USE_STATIC_OPTIONS))
 250:../../protocol/lufa/LUFA-120730/LUFA/Drivers/USB/Core/AVR8/../AVR8/../AVR8/USBController_AVR8.h **** 			               void
 251:../../protocol/lufa/LUFA-120730/LUFA/Drivers/USB/Core/AVR8/../AVR8/../AVR8/USBController_AVR8.h **** 			               #endif
 252:../../protocol/lufa/LUFA-120730/LUFA/Drivers/USB/Core/AVR8/../AVR8/../AVR8/USBController_AVR8.h **** 
 253:../../protocol/lufa/LUFA-120730/LUFA/Drivers/USB/Core/AVR8/../AVR8/../AVR8/USBController_AVR8.h **** 			               #if !defined(USE_STATIC_OPTIONS) || defined(__DOXYGEN__)
 254:../../protocol/lufa/LUFA-120730/LUFA/Drivers/USB/Core/AVR8/../AVR8/../AVR8/USBController_AVR8.h **** 			               const uint8_t Options
 255:../../protocol/lufa/LUFA-120730/LUFA/Drivers/USB/Core/AVR8/../AVR8/../AVR8/USBController_AVR8.h **** 			               #endif
 256:../../protocol/lufa/LUFA-120730/LUFA/Drivers/USB/Core/AVR8/../AVR8/../AVR8/USBController_AVR8.h **** 			               );
 257:../../protocol/lufa/LUFA-120730/LUFA/Drivers/USB/Core/AVR8/../AVR8/../AVR8/USBController_AVR8.h **** 
 258:../../protocol/lufa/LUFA-120730/LUFA/Drivers/USB/Core/AVR8/../AVR8/../AVR8/USBController_AVR8.h **** 			/** Shuts down the USB interface. This turns off the USB interface after deallocating all USB FI
 259:../../protocol/lufa/LUFA-120730/LUFA/Drivers/USB/Core/AVR8/../AVR8/../AVR8/USBController_AVR8.h **** 			 *  memory, endpoints and pipes. When turned off, no USB functionality can be used until the int
 260:../../protocol/lufa/LUFA-120730/LUFA/Drivers/USB/Core/AVR8/../AVR8/../AVR8/USBController_AVR8.h **** 			 *  is restarted with the \ref USB_Init() function.
 261:../../protocol/lufa/LUFA-120730/LUFA/Drivers/USB/Core/AVR8/../AVR8/../AVR8/USBController_AVR8.h **** 			 */
 262:../../protocol/lufa/LUFA-120730/LUFA/Drivers/USB/Core/AVR8/../AVR8/../AVR8/USBController_AVR8.h **** 			void USB_Disable(void);
 263:../../protocol/lufa/LUFA-120730/LUFA/Drivers/USB/Core/AVR8/../AVR8/../AVR8/USBController_AVR8.h **** 
 264:../../protocol/lufa/LUFA-120730/LUFA/Drivers/USB/Core/AVR8/../AVR8/../AVR8/USBController_AVR8.h **** 			/** Resets the interface, when already initialized. This will re-enumerate the device if already
 265:../../protocol/lufa/LUFA-120730/LUFA/Drivers/USB/Core/AVR8/../AVR8/../AVR8/USBController_AVR8.h **** 			 *  to a host, or re-enumerate an already attached device when in host mode.
 266:../../protocol/lufa/LUFA-120730/LUFA/Drivers/USB/Core/AVR8/../AVR8/../AVR8/USBController_AVR8.h **** 			 */
 267:../../protocol/lufa/LUFA-120730/LUFA/Drivers/USB/Core/AVR8/../AVR8/../AVR8/USBController_AVR8.h **** 			void USB_ResetInterface(void);
 268:../../protocol/lufa/LUFA-120730/LUFA/Drivers/USB/Core/AVR8/../AVR8/../AVR8/USBController_AVR8.h **** 
 269:../../protocol/lufa/LUFA-120730/LUFA/Drivers/USB/Core/AVR8/../AVR8/../AVR8/USBController_AVR8.h **** 		/* Global Variables: */
 270:../../protocol/lufa/LUFA-120730/LUFA/Drivers/USB/Core/AVR8/../AVR8/../AVR8/USBController_AVR8.h **** 			#if (!defined(USB_HOST_ONLY) && !defined(USB_DEVICE_ONLY)) || defined(__DOXYGEN__)
 271:../../protocol/lufa/LUFA-120730/LUFA/Drivers/USB/Core/AVR8/../AVR8/../AVR8/USBController_AVR8.h **** 				/** Indicates the mode that the USB interface is currently initialized to, a value from the
 272:../../protocol/lufa/LUFA-120730/LUFA/Drivers/USB/Core/AVR8/../AVR8/../AVR8/USBController_AVR8.h **** 				 *  \ref USB_Modes_t enum.
 273:../../protocol/lufa/LUFA-120730/LUFA/Drivers/USB/Core/AVR8/../AVR8/../AVR8/USBController_AVR8.h **** 				 *
 274:../../protocol/lufa/LUFA-120730/LUFA/Drivers/USB/Core/AVR8/../AVR8/../AVR8/USBController_AVR8.h **** 				 *  \attention This variable should be treated as read-only in the user application, and never 
 275:../../protocol/lufa/LUFA-120730/LUFA/Drivers/USB/Core/AVR8/../AVR8/../AVR8/USBController_AVR8.h **** 				 *             changed in value.
 276:../../protocol/lufa/LUFA-120730/LUFA/Drivers/USB/Core/AVR8/../AVR8/../AVR8/USBController_AVR8.h **** 				 *
 277:../../protocol/lufa/LUFA-120730/LUFA/Drivers/USB/Core/AVR8/../AVR8/../AVR8/USBController_AVR8.h **** 				 *  \note When the controller is initialized into UID auto-detection mode, this variable will h
 278:../../protocol/lufa/LUFA-120730/LUFA/Drivers/USB/Core/AVR8/../AVR8/../AVR8/USBController_AVR8.h **** 				 *        currently selected USB mode (i.e. \ref USB_MODE_Device or \ref USB_MODE_Host). If the
 279:../../protocol/lufa/LUFA-120730/LUFA/Drivers/USB/Core/AVR8/../AVR8/../AVR8/USBController_AVR8.h **** 				 *        is fixed into a specific mode (either through the \c USB_DEVICE_ONLY or \c USB_HOST_O
 280:../../protocol/lufa/LUFA-120730/LUFA/Drivers/USB/Core/AVR8/../AVR8/../AVR8/USBController_AVR8.h **** 				 *        options, or a limitation of the USB controller in the chosen device model) this will 
 281:../../protocol/lufa/LUFA-120730/LUFA/Drivers/USB/Core/AVR8/../AVR8/../AVR8/USBController_AVR8.h **** 				 *        a constant of the appropriate value and will never evaluate to \ref USB_MODE_None eve
 282:../../protocol/lufa/LUFA-120730/LUFA/Drivers/USB/Core/AVR8/../AVR8/../AVR8/USBController_AVR8.h **** 				 *        USB interface is not initialized.
 283:../../protocol/lufa/LUFA-120730/LUFA/Drivers/USB/Core/AVR8/../AVR8/../AVR8/USBController_AVR8.h **** 				 */
 284:../../protocol/lufa/LUFA-120730/LUFA/Drivers/USB/Core/AVR8/../AVR8/../AVR8/USBController_AVR8.h **** 				extern volatile uint8_t USB_CurrentMode;
 285:../../protocol/lufa/LUFA-120730/LUFA/Drivers/USB/Core/AVR8/../AVR8/../AVR8/USBController_AVR8.h **** 			#elif defined(USB_HOST_ONLY)
 286:../../protocol/lufa/LUFA-120730/LUFA/Drivers/USB/Core/AVR8/../AVR8/../AVR8/USBController_AVR8.h **** 				#define USB_CurrentMode USB_MODE_Host
 287:../../protocol/lufa/LUFA-120730/LUFA/Drivers/USB/Core/AVR8/../AVR8/../AVR8/USBController_AVR8.h **** 			#elif defined(USB_DEVICE_ONLY)
 288:../../protocol/lufa/LUFA-120730/LUFA/Drivers/USB/Core/AVR8/../AVR8/../AVR8/USBController_AVR8.h **** 				#define USB_CurrentMode USB_MODE_Device
 289:../../protocol/lufa/LUFA-120730/LUFA/Drivers/USB/Core/AVR8/../AVR8/../AVR8/USBController_AVR8.h **** 			#endif
 290:../../protocol/lufa/LUFA-120730/LUFA/Drivers/USB/Core/AVR8/../AVR8/../AVR8/USBController_AVR8.h **** 
 291:../../protocol/lufa/LUFA-120730/LUFA/Drivers/USB/Core/AVR8/../AVR8/../AVR8/USBController_AVR8.h **** 			#if !defined(USE_STATIC_OPTIONS) || defined(__DOXYGEN__)
 292:../../protocol/lufa/LUFA-120730/LUFA/Drivers/USB/Core/AVR8/../AVR8/../AVR8/USBController_AVR8.h **** 				/** Indicates the current USB options that the USB interface was initialized with when \ref USB
 293:../../protocol/lufa/LUFA-120730/LUFA/Drivers/USB/Core/AVR8/../AVR8/../AVR8/USBController_AVR8.h **** 				 *  was called. This value will be one of the \c USB_MODE_* masks defined elsewhere in this mod
 294:../../protocol/lufa/LUFA-120730/LUFA/Drivers/USB/Core/AVR8/../AVR8/../AVR8/USBController_AVR8.h **** 				 *
 295:../../protocol/lufa/LUFA-120730/LUFA/Drivers/USB/Core/AVR8/../AVR8/../AVR8/USBController_AVR8.h **** 				 *  \attention This variable should be treated as read-only in the user application, and never 
 296:../../protocol/lufa/LUFA-120730/LUFA/Drivers/USB/Core/AVR8/../AVR8/../AVR8/USBController_AVR8.h **** 				 *             changed in value.
 297:../../protocol/lufa/LUFA-120730/LUFA/Drivers/USB/Core/AVR8/../AVR8/../AVR8/USBController_AVR8.h **** 				 */
 298:../../protocol/lufa/LUFA-120730/LUFA/Drivers/USB/Core/AVR8/../AVR8/../AVR8/USBController_AVR8.h **** 				extern volatile uint8_t USB_Options;
 299:../../protocol/lufa/LUFA-120730/LUFA/Drivers/USB/Core/AVR8/../AVR8/../AVR8/USBController_AVR8.h **** 			#elif defined(USE_STATIC_OPTIONS)
 300:../../protocol/lufa/LUFA-120730/LUFA/Drivers/USB/Core/AVR8/../AVR8/../AVR8/USBController_AVR8.h **** 				#define USB_Options USE_STATIC_OPTIONS
 301:../../protocol/lufa/LUFA-120730/LUFA/Drivers/USB/Core/AVR8/../AVR8/../AVR8/USBController_AVR8.h **** 			#endif
 302:../../protocol/lufa/LUFA-120730/LUFA/Drivers/USB/Core/AVR8/../AVR8/../AVR8/USBController_AVR8.h **** 
 303:../../protocol/lufa/LUFA-120730/LUFA/Drivers/USB/Core/AVR8/../AVR8/../AVR8/USBController_AVR8.h **** 		/* Enums: */
 304:../../protocol/lufa/LUFA-120730/LUFA/Drivers/USB/Core/AVR8/../AVR8/../AVR8/USBController_AVR8.h **** 			/** Enum for the possible USB controller modes, for initialization via \ref USB_Init() and indic
 305:../../protocol/lufa/LUFA-120730/LUFA/Drivers/USB/Core/AVR8/../AVR8/../AVR8/USBController_AVR8.h **** 			 *  user application via \ref USB_CurrentMode.
 306:../../protocol/lufa/LUFA-120730/LUFA/Drivers/USB/Core/AVR8/../AVR8/../AVR8/USBController_AVR8.h **** 			 */
 307:../../protocol/lufa/LUFA-120730/LUFA/Drivers/USB/Core/AVR8/../AVR8/../AVR8/USBController_AVR8.h **** 			enum USB_Modes_t
 308:../../protocol/lufa/LUFA-120730/LUFA/Drivers/USB/Core/AVR8/../AVR8/../AVR8/USBController_AVR8.h **** 			{
 309:../../protocol/lufa/LUFA-120730/LUFA/Drivers/USB/Core/AVR8/../AVR8/../AVR8/USBController_AVR8.h **** 				USB_MODE_None   = 0, /**< Indicates that the controller is currently not initialized in any spe
 310:../../protocol/lufa/LUFA-120730/LUFA/Drivers/USB/Core/AVR8/../AVR8/../AVR8/USBController_AVR8.h **** 				USB_MODE_Device = 1, /**< Indicates that the controller is currently initialized in USB Device 
 311:../../protocol/lufa/LUFA-120730/LUFA/Drivers/USB/Core/AVR8/../AVR8/../AVR8/USBController_AVR8.h **** 				USB_MODE_Host   = 2, /**< Indicates that the controller is currently initialized in USB Host mo
 312:../../protocol/lufa/LUFA-120730/LUFA/Drivers/USB/Core/AVR8/../AVR8/../AVR8/USBController_AVR8.h **** 				USB_MODE_UID    = 3, /**< Indicates that the controller should determine the USB mode from the 
 313:../../protocol/lufa/LUFA-120730/LUFA/Drivers/USB/Core/AVR8/../AVR8/../AVR8/USBController_AVR8.h **** 				                      *   USB connector.
 314:../../protocol/lufa/LUFA-120730/LUFA/Drivers/USB/Core/AVR8/../AVR8/../AVR8/USBController_AVR8.h **** 				                      */
 315:../../protocol/lufa/LUFA-120730/LUFA/Drivers/USB/Core/AVR8/../AVR8/../AVR8/USBController_AVR8.h **** 			};
 316:../../protocol/lufa/LUFA-120730/LUFA/Drivers/USB/Core/AVR8/../AVR8/../AVR8/USBController_AVR8.h **** 
 317:../../protocol/lufa/LUFA-120730/LUFA/Drivers/USB/Core/AVR8/../AVR8/../AVR8/USBController_AVR8.h **** 	/* Private Interface - For use in library only: */
 318:../../protocol/lufa/LUFA-120730/LUFA/Drivers/USB/Core/AVR8/../AVR8/../AVR8/USBController_AVR8.h **** 	#if !defined(__DOXYGEN__)
 319:../../protocol/lufa/LUFA-120730/LUFA/Drivers/USB/Core/AVR8/../AVR8/../AVR8/USBController_AVR8.h **** 		/* Function Prototypes: */
 320:../../protocol/lufa/LUFA-120730/LUFA/Drivers/USB/Core/AVR8/../AVR8/../AVR8/USBController_AVR8.h **** 			#if defined(__INCLUDE_FROM_USB_CONTROLLER_C)
 321:../../protocol/lufa/LUFA-120730/LUFA/Drivers/USB/Core/AVR8/../AVR8/../AVR8/USBController_AVR8.h **** 				#if defined(USB_CAN_BE_DEVICE)
 322:../../protocol/lufa/LUFA-120730/LUFA/Drivers/USB/Core/AVR8/../AVR8/../AVR8/USBController_AVR8.h **** 				static void USB_Init_Device(void);
 323:../../protocol/lufa/LUFA-120730/LUFA/Drivers/USB/Core/AVR8/../AVR8/../AVR8/USBController_AVR8.h **** 				#endif
 324:../../protocol/lufa/LUFA-120730/LUFA/Drivers/USB/Core/AVR8/../AVR8/../AVR8/USBController_AVR8.h **** 
 325:../../protocol/lufa/LUFA-120730/LUFA/Drivers/USB/Core/AVR8/../AVR8/../AVR8/USBController_AVR8.h **** 				#if defined(USB_CAN_BE_HOST)
 326:../../protocol/lufa/LUFA-120730/LUFA/Drivers/USB/Core/AVR8/../AVR8/../AVR8/USBController_AVR8.h **** 				static void USB_Init_Host(void);
 327:../../protocol/lufa/LUFA-120730/LUFA/Drivers/USB/Core/AVR8/../AVR8/../AVR8/USBController_AVR8.h **** 				#endif
 328:../../protocol/lufa/LUFA-120730/LUFA/Drivers/USB/Core/AVR8/../AVR8/../AVR8/USBController_AVR8.h **** 			#endif
 329:../../protocol/lufa/LUFA-120730/LUFA/Drivers/USB/Core/AVR8/../AVR8/../AVR8/USBController_AVR8.h **** 
 330:../../protocol/lufa/LUFA-120730/LUFA/Drivers/USB/Core/AVR8/../AVR8/../AVR8/USBController_AVR8.h **** 		/* Inline Functions: */
 331:../../protocol/lufa/LUFA-120730/LUFA/Drivers/USB/Core/AVR8/../AVR8/../AVR8/USBController_AVR8.h **** 			static inline void USB_PLL_On(void) ATTR_ALWAYS_INLINE;
 332:../../protocol/lufa/LUFA-120730/LUFA/Drivers/USB/Core/AVR8/../AVR8/../AVR8/USBController_AVR8.h **** 			static inline void USB_PLL_On(void)
 333:../../protocol/lufa/LUFA-120730/LUFA/Drivers/USB/Core/AVR8/../AVR8/../AVR8/USBController_AVR8.h **** 			{
 334:../../protocol/lufa/LUFA-120730/LUFA/Drivers/USB/Core/AVR8/../AVR8/../AVR8/USBController_AVR8.h **** 				PLLCSR = USB_PLL_PSC;
 197               		.loc 3 334 0
 198 0062 80E1      		ldi r24,lo8(16)
 199 0064 89BD      		out 0x29,r24
 335:../../protocol/lufa/LUFA-120730/LUFA/Drivers/USB/Core/AVR8/../AVR8/../AVR8/USBController_AVR8.h **** 				PLLCSR = (USB_PLL_PSC | (1 << PLLE));
 200               		.loc 3 335 0
 201 0066 82E1      		ldi r24,lo8(18)
 202 0068 89BD      		out 0x29,r24
 203               	.L8:
 204               	.LBE105:
 205               	.LBE104:
  95:../../protocol/lufa/LUFA-120730/LUFA/Drivers/USB/Core/AVR8/USBInterrupt_AVR8.c **** 		{
  96:../../protocol/lufa/LUFA-120730/LUFA/Drivers/USB/Core/AVR8/USBInterrupt_AVR8.c **** 			if (!(USB_Options & USB_OPT_MANUAL_PLL))
  97:../../protocol/lufa/LUFA-120730/LUFA/Drivers/USB/Core/AVR8/USBInterrupt_AVR8.c **** 			{
  98:../../protocol/lufa/LUFA-120730/LUFA/Drivers/USB/Core/AVR8/USBInterrupt_AVR8.c **** 				USB_PLL_On();
  99:../../protocol/lufa/LUFA-120730/LUFA/Drivers/USB/Core/AVR8/USBInterrupt_AVR8.c **** 				while (!(USB_PLL_IsReady()));
 206               		.loc 1 99 0 discriminator 1
 207 006a 09B4      		in __tmp_reg__,0x29
 208 006c 00FE      		sbrs __tmp_reg__,0
 209 006e 00C0      		rjmp .L8
 100:../../protocol/lufa/LUFA-120730/LUFA/Drivers/USB/Core/AVR8/USBInterrupt_AVR8.c **** 			}
 101:../../protocol/lufa/LUFA-120730/LUFA/Drivers/USB/Core/AVR8/USBInterrupt_AVR8.c **** 
 102:../../protocol/lufa/LUFA-120730/LUFA/Drivers/USB/Core/AVR8/USBInterrupt_AVR8.c **** 			USB_DeviceState = DEVICE_STATE_Powered;
 210               		.loc 1 102 0
 211 0070 81E0      		ldi r24,lo8(1)
 212 0072 8093 0000 		sts USB_DeviceState,r24
 103:../../protocol/lufa/LUFA-120730/LUFA/Drivers/USB/Core/AVR8/USBInterrupt_AVR8.c **** 			EVENT_USB_Device_Connect();
 213               		.loc 1 103 0
 214 0076 0E94 0000 		call EVENT_USB_Device_Connect
 215               	.LVL6:
 216 007a 00C0      		rjmp .L5
 217               	.L6:
 218               	.LBB106:
 219               	.LBB107:
 336:../../protocol/lufa/LUFA-120730/LUFA/Drivers/USB/Core/AVR8/../AVR8/../AVR8/USBController_AVR8.h **** 			}
 337:../../protocol/lufa/LUFA-120730/LUFA/Drivers/USB/Core/AVR8/../AVR8/../AVR8/USBController_AVR8.h **** 
 338:../../protocol/lufa/LUFA-120730/LUFA/Drivers/USB/Core/AVR8/../AVR8/../AVR8/USBController_AVR8.h **** 			static inline void USB_PLL_Off(void) ATTR_ALWAYS_INLINE;
 339:../../protocol/lufa/LUFA-120730/LUFA/Drivers/USB/Core/AVR8/../AVR8/../AVR8/USBController_AVR8.h **** 			static inline void USB_PLL_Off(void)
 340:../../protocol/lufa/LUFA-120730/LUFA/Drivers/USB/Core/AVR8/../AVR8/../AVR8/USBController_AVR8.h **** 			{
 341:../../protocol/lufa/LUFA-120730/LUFA/Drivers/USB/Core/AVR8/../AVR8/../AVR8/USBController_AVR8.h **** 				PLLCSR = 0;
 220               		.loc 3 341 0
 221 007c 19BC      		out 0x29,__zero_reg__
 222               	.LBE107:
 223               	.LBE106:
 104:../../protocol/lufa/LUFA-120730/LUFA/Drivers/USB/Core/AVR8/USBInterrupt_AVR8.c **** 		}
 105:../../protocol/lufa/LUFA-120730/LUFA/Drivers/USB/Core/AVR8/USBInterrupt_AVR8.c **** 		else
 106:../../protocol/lufa/LUFA-120730/LUFA/Drivers/USB/Core/AVR8/USBInterrupt_AVR8.c **** 		{
 107:../../protocol/lufa/LUFA-120730/LUFA/Drivers/USB/Core/AVR8/USBInterrupt_AVR8.c **** 			if (!(USB_Options & USB_OPT_MANUAL_PLL))
 108:../../protocol/lufa/LUFA-120730/LUFA/Drivers/USB/Core/AVR8/USBInterrupt_AVR8.c **** 			  USB_PLL_Off();
 109:../../protocol/lufa/LUFA-120730/LUFA/Drivers/USB/Core/AVR8/USBInterrupt_AVR8.c **** 
 110:../../protocol/lufa/LUFA-120730/LUFA/Drivers/USB/Core/AVR8/USBInterrupt_AVR8.c **** 			USB_DeviceState = DEVICE_STATE_Unattached;
 224               		.loc 1 110 0
 225 007e 1092 0000 		sts USB_DeviceState,__zero_reg__
 111:../../protocol/lufa/LUFA-120730/LUFA/Drivers/USB/Core/AVR8/USBInterrupt_AVR8.c **** 			EVENT_USB_Device_Disconnect();
 226               		.loc 1 111 0
 227 0082 0E94 0000 		call EVENT_USB_Device_Disconnect
 228               	.LVL7:
 229               	.L5:
 230               	.LBB108:
 231               	.LBB109:
 324:../../protocol/lufa/LUFA-120730/LUFA/Drivers/USB/Core/AVR8/../AVR8/USBInterrupt_AVR8.h **** 						return (UDINT  & (1 << SUSPI));
 232               		.loc 2 324 0
 233 0086 8091 E100 		lds r24,225
 234               	.LBE109:
 235               	.LBE108:
 112:../../protocol/lufa/LUFA-120730/LUFA/Drivers/USB/Core/AVR8/USBInterrupt_AVR8.c **** 		}
 113:../../protocol/lufa/LUFA-120730/LUFA/Drivers/USB/Core/AVR8/USBInterrupt_AVR8.c **** 	}
 114:../../protocol/lufa/LUFA-120730/LUFA/Drivers/USB/Core/AVR8/USBInterrupt_AVR8.c **** 	#endif
 115:../../protocol/lufa/LUFA-120730/LUFA/Drivers/USB/Core/AVR8/USBInterrupt_AVR8.c **** 
 116:../../protocol/lufa/LUFA-120730/LUFA/Drivers/USB/Core/AVR8/USBInterrupt_AVR8.c **** 	if (USB_INT_HasOccurred(USB_INT_SUSPI) && USB_INT_IsEnabled(USB_INT_SUSPI))
 236               		.loc 1 116 0
 237 008a 80FF      		sbrs r24,0
 238 008c 00C0      		rjmp .L9
 239               	.LVL8:
 240               	.LBB110:
 241               	.LBB111:
 278:../../protocol/lufa/LUFA-120730/LUFA/Drivers/USB/Core/AVR8/../AVR8/USBInterrupt_AVR8.h **** 						return (UDIEN  & (1 << SUSPE));
 242               		.loc 2 278 0
 243 008e 8091 E200 		lds r24,226
 244               	.LBE111:
 245               	.LBE110:
 246               		.loc 1 116 0
 247 0092 80FF      		sbrs r24,0
 248 0094 00C0      		rjmp .L9
 249               	.LVL9:
 250               	.LBB112:
 251               	.LBB113:
 165:../../protocol/lufa/LUFA-120730/LUFA/Drivers/USB/Core/AVR8/../AVR8/USBInterrupt_AVR8.h **** 						UDIEN  &= ~(1 << SUSPE);
 252               		.loc 2 165 0
 253 0096 8091 E200 		lds r24,226
 254 009a 8E7F      		andi r24,lo8(-2)
 255 009c 8093 E200 		sts 226,r24
 256               	.LVL10:
 257               	.LBE113:
 258               	.LBE112:
 259               	.LBB114:
 260               	.LBB115:
 104:../../protocol/lufa/LUFA-120730/LUFA/Drivers/USB/Core/AVR8/../AVR8/USBInterrupt_AVR8.h **** 						UDIEN  |= (1 << WAKEUPE);
 261               		.loc 2 104 0
 262 00a0 8091 E200 		lds r24,226
 263 00a4 8061      		ori r24,lo8(16)
 264 00a6 8093 E200 		sts 226,r24
 265               	.LBE115:
 266               	.LBE114:
 267               	.LBB116:
 268               	.LBB117:
 342:../../protocol/lufa/LUFA-120730/LUFA/Drivers/USB/Core/AVR8/../AVR8/../AVR8/USBController_AVR8.h **** 			}
 343:../../protocol/lufa/LUFA-120730/LUFA/Drivers/USB/Core/AVR8/../AVR8/../AVR8/USBController_AVR8.h **** 
 344:../../protocol/lufa/LUFA-120730/LUFA/Drivers/USB/Core/AVR8/../AVR8/../AVR8/USBController_AVR8.h **** 			static inline bool USB_PLL_IsReady(void) ATTR_WARN_UNUSED_RESULT ATTR_ALWAYS_INLINE;
 345:../../protocol/lufa/LUFA-120730/LUFA/Drivers/USB/Core/AVR8/../AVR8/../AVR8/USBController_AVR8.h **** 			static inline bool USB_PLL_IsReady(void)
 346:../../protocol/lufa/LUFA-120730/LUFA/Drivers/USB/Core/AVR8/../AVR8/../AVR8/USBController_AVR8.h **** 			{
 347:../../protocol/lufa/LUFA-120730/LUFA/Drivers/USB/Core/AVR8/../AVR8/../AVR8/USBController_AVR8.h **** 				return ((PLLCSR & (1 << PLOCK)) ? true : false);
 348:../../protocol/lufa/LUFA-120730/LUFA/Drivers/USB/Core/AVR8/../AVR8/../AVR8/USBController_AVR8.h **** 			}
 349:../../protocol/lufa/LUFA-120730/LUFA/Drivers/USB/Core/AVR8/../AVR8/../AVR8/USBController_AVR8.h **** 
 350:../../protocol/lufa/LUFA-120730/LUFA/Drivers/USB/Core/AVR8/../AVR8/../AVR8/USBController_AVR8.h **** 			static inline void USB_REG_On(void) ATTR_ALWAYS_INLINE;
 351:../../protocol/lufa/LUFA-120730/LUFA/Drivers/USB/Core/AVR8/../AVR8/../AVR8/USBController_AVR8.h **** 			static inline void USB_REG_On(void)
 352:../../protocol/lufa/LUFA-120730/LUFA/Drivers/USB/Core/AVR8/../AVR8/../AVR8/USBController_AVR8.h **** 			{
 353:../../protocol/lufa/LUFA-120730/LUFA/Drivers/USB/Core/AVR8/../AVR8/../AVR8/USBController_AVR8.h **** 			#if defined(USB_SERIES_4_AVR) || defined(USB_SERIES_6_AVR) || defined(USB_SERIES_7_AVR)
 354:../../protocol/lufa/LUFA-120730/LUFA/Drivers/USB/Core/AVR8/../AVR8/../AVR8/USBController_AVR8.h **** 				UHWCON |=  (1 << UVREGE);
 355:../../protocol/lufa/LUFA-120730/LUFA/Drivers/USB/Core/AVR8/../AVR8/../AVR8/USBController_AVR8.h **** 			#else
 356:../../protocol/lufa/LUFA-120730/LUFA/Drivers/USB/Core/AVR8/../AVR8/../AVR8/USBController_AVR8.h **** 				REGCR  &= ~(1 << REGDIS);
 357:../../protocol/lufa/LUFA-120730/LUFA/Drivers/USB/Core/AVR8/../AVR8/../AVR8/USBController_AVR8.h **** 			#endif
 358:../../protocol/lufa/LUFA-120730/LUFA/Drivers/USB/Core/AVR8/../AVR8/../AVR8/USBController_AVR8.h **** 			}
 359:../../protocol/lufa/LUFA-120730/LUFA/Drivers/USB/Core/AVR8/../AVR8/../AVR8/USBController_AVR8.h **** 
 360:../../protocol/lufa/LUFA-120730/LUFA/Drivers/USB/Core/AVR8/../AVR8/../AVR8/USBController_AVR8.h **** 			static inline void USB_REG_Off(void) ATTR_ALWAYS_INLINE;
 361:../../protocol/lufa/LUFA-120730/LUFA/Drivers/USB/Core/AVR8/../AVR8/../AVR8/USBController_AVR8.h **** 			static inline void USB_REG_Off(void)
 362:../../protocol/lufa/LUFA-120730/LUFA/Drivers/USB/Core/AVR8/../AVR8/../AVR8/USBController_AVR8.h **** 			{
 363:../../protocol/lufa/LUFA-120730/LUFA/Drivers/USB/Core/AVR8/../AVR8/../AVR8/USBController_AVR8.h **** 			#if defined(USB_SERIES_4_AVR) || defined(USB_SERIES_6_AVR) || defined(USB_SERIES_7_AVR)
 364:../../protocol/lufa/LUFA-120730/LUFA/Drivers/USB/Core/AVR8/../AVR8/../AVR8/USBController_AVR8.h **** 				UHWCON &= ~(1 << UVREGE);
 365:../../protocol/lufa/LUFA-120730/LUFA/Drivers/USB/Core/AVR8/../AVR8/../AVR8/USBController_AVR8.h **** 			#else
 366:../../protocol/lufa/LUFA-120730/LUFA/Drivers/USB/Core/AVR8/../AVR8/../AVR8/USBController_AVR8.h **** 				REGCR  |=  (1 << REGDIS);
 367:../../protocol/lufa/LUFA-120730/LUFA/Drivers/USB/Core/AVR8/../AVR8/../AVR8/USBController_AVR8.h **** 			#endif
 368:../../protocol/lufa/LUFA-120730/LUFA/Drivers/USB/Core/AVR8/../AVR8/../AVR8/USBController_AVR8.h **** 			}
 369:../../protocol/lufa/LUFA-120730/LUFA/Drivers/USB/Core/AVR8/../AVR8/../AVR8/USBController_AVR8.h **** 
 370:../../protocol/lufa/LUFA-120730/LUFA/Drivers/USB/Core/AVR8/../AVR8/../AVR8/USBController_AVR8.h **** 			#if defined(USB_SERIES_4_AVR) || defined(USB_SERIES_6_AVR) || defined(USB_SERIES_7_AVR)
 371:../../protocol/lufa/LUFA-120730/LUFA/Drivers/USB/Core/AVR8/../AVR8/../AVR8/USBController_AVR8.h **** 			static inline void USB_OTGPAD_On(void) ATTR_ALWAYS_INLINE;
 372:../../protocol/lufa/LUFA-120730/LUFA/Drivers/USB/Core/AVR8/../AVR8/../AVR8/USBController_AVR8.h **** 			static inline void USB_OTGPAD_On(void)
 373:../../protocol/lufa/LUFA-120730/LUFA/Drivers/USB/Core/AVR8/../AVR8/../AVR8/USBController_AVR8.h **** 			{
 374:../../protocol/lufa/LUFA-120730/LUFA/Drivers/USB/Core/AVR8/../AVR8/../AVR8/USBController_AVR8.h **** 				USBCON |=  (1 << OTGPADE);
 375:../../protocol/lufa/LUFA-120730/LUFA/Drivers/USB/Core/AVR8/../AVR8/../AVR8/USBController_AVR8.h **** 			}
 376:../../protocol/lufa/LUFA-120730/LUFA/Drivers/USB/Core/AVR8/../AVR8/../AVR8/USBController_AVR8.h **** 
 377:../../protocol/lufa/LUFA-120730/LUFA/Drivers/USB/Core/AVR8/../AVR8/../AVR8/USBController_AVR8.h **** 			static inline void USB_OTGPAD_Off(void) ATTR_ALWAYS_INLINE;
 378:../../protocol/lufa/LUFA-120730/LUFA/Drivers/USB/Core/AVR8/../AVR8/../AVR8/USBController_AVR8.h **** 			static inline void USB_OTGPAD_Off(void)
 379:../../protocol/lufa/LUFA-120730/LUFA/Drivers/USB/Core/AVR8/../AVR8/../AVR8/USBController_AVR8.h **** 			{
 380:../../protocol/lufa/LUFA-120730/LUFA/Drivers/USB/Core/AVR8/../AVR8/../AVR8/USBController_AVR8.h **** 				USBCON &= ~(1 << OTGPADE);
 381:../../protocol/lufa/LUFA-120730/LUFA/Drivers/USB/Core/AVR8/../AVR8/../AVR8/USBController_AVR8.h **** 			}
 382:../../protocol/lufa/LUFA-120730/LUFA/Drivers/USB/Core/AVR8/../AVR8/../AVR8/USBController_AVR8.h **** 			#endif
 383:../../protocol/lufa/LUFA-120730/LUFA/Drivers/USB/Core/AVR8/../AVR8/../AVR8/USBController_AVR8.h **** 
 384:../../protocol/lufa/LUFA-120730/LUFA/Drivers/USB/Core/AVR8/../AVR8/../AVR8/USBController_AVR8.h **** 			static inline void USB_CLK_Freeze(void) ATTR_ALWAYS_INLINE;
 385:../../protocol/lufa/LUFA-120730/LUFA/Drivers/USB/Core/AVR8/../AVR8/../AVR8/USBController_AVR8.h **** 			static inline void USB_CLK_Freeze(void)
 386:../../protocol/lufa/LUFA-120730/LUFA/Drivers/USB/Core/AVR8/../AVR8/../AVR8/USBController_AVR8.h **** 			{
 387:../../protocol/lufa/LUFA-120730/LUFA/Drivers/USB/Core/AVR8/../AVR8/../AVR8/USBController_AVR8.h **** 				USBCON |=  (1 << FRZCLK);
 269               		.loc 3 387 0
 270 00aa 8091 D800 		lds r24,216
 271 00ae 8062      		ori r24,lo8(32)
 272 00b0 8093 D800 		sts 216,r24
 273               	.LBE117:
 274               	.LBE116:
 275               	.LBB118:
 276               	.LBB119:
 341:../../protocol/lufa/LUFA-120730/LUFA/Drivers/USB/Core/AVR8/../AVR8/../AVR8/USBController_AVR8.h **** 				PLLCSR = 0;
 277               		.loc 3 341 0
 278 00b4 19BC      		out 0x29,__zero_reg__
 279               	.LBE119:
 280               	.LBE118:
 117:../../protocol/lufa/LUFA-120730/LUFA/Drivers/USB/Core/AVR8/USBInterrupt_AVR8.c **** 	{
 118:../../protocol/lufa/LUFA-120730/LUFA/Drivers/USB/Core/AVR8/USBInterrupt_AVR8.c **** 		USB_INT_Disable(USB_INT_SUSPI);
 119:../../protocol/lufa/LUFA-120730/LUFA/Drivers/USB/Core/AVR8/USBInterrupt_AVR8.c **** 		USB_INT_Enable(USB_INT_WAKEUPI);
 120:../../protocol/lufa/LUFA-120730/LUFA/Drivers/USB/Core/AVR8/USBInterrupt_AVR8.c **** 
 121:../../protocol/lufa/LUFA-120730/LUFA/Drivers/USB/Core/AVR8/USBInterrupt_AVR8.c **** 		USB_CLK_Freeze();
 122:../../protocol/lufa/LUFA-120730/LUFA/Drivers/USB/Core/AVR8/USBInterrupt_AVR8.c **** 
 123:../../protocol/lufa/LUFA-120730/LUFA/Drivers/USB/Core/AVR8/USBInterrupt_AVR8.c **** 		if (!(USB_Options & USB_OPT_MANUAL_PLL))
 124:../../protocol/lufa/LUFA-120730/LUFA/Drivers/USB/Core/AVR8/USBInterrupt_AVR8.c **** 		  USB_PLL_Off();
 125:../../protocol/lufa/LUFA-120730/LUFA/Drivers/USB/Core/AVR8/USBInterrupt_AVR8.c **** 
 126:../../protocol/lufa/LUFA-120730/LUFA/Drivers/USB/Core/AVR8/USBInterrupt_AVR8.c **** 		#if defined(USB_SERIES_2_AVR) && !defined(NO_LIMITED_CONTROLLER_CONNECT)
 127:../../protocol/lufa/LUFA-120730/LUFA/Drivers/USB/Core/AVR8/USBInterrupt_AVR8.c **** 		USB_DeviceState = DEVICE_STATE_Unattached;
 128:../../protocol/lufa/LUFA-120730/LUFA/Drivers/USB/Core/AVR8/USBInterrupt_AVR8.c **** 		EVENT_USB_Device_Disconnect();
 129:../../protocol/lufa/LUFA-120730/LUFA/Drivers/USB/Core/AVR8/USBInterrupt_AVR8.c **** 		#else
 130:../../protocol/lufa/LUFA-120730/LUFA/Drivers/USB/Core/AVR8/USBInterrupt_AVR8.c **** 		USB_DeviceState = DEVICE_STATE_Suspended;
 281               		.loc 1 130 0
 282 00b6 85E0      		ldi r24,lo8(5)
 283 00b8 8093 0000 		sts USB_DeviceState,r24
 131:../../protocol/lufa/LUFA-120730/LUFA/Drivers/USB/Core/AVR8/USBInterrupt_AVR8.c **** 		EVENT_USB_Device_Suspend();
 284               		.loc 1 131 0
 285 00bc 0E94 0000 		call EVENT_USB_Device_Suspend
 286               	.LVL11:
 287               	.L9:
 288               	.LBB120:
 289               	.LBB121:
 322:../../protocol/lufa/LUFA-120730/LUFA/Drivers/USB/Core/AVR8/../AVR8/USBInterrupt_AVR8.h **** 						return (UDINT  & (1 << WAKEUPI));
 290               		.loc 2 322 0
 291 00c0 8091 E100 		lds r24,225
 292               	.LBE121:
 293               	.LBE120:
 132:../../protocol/lufa/LUFA-120730/LUFA/Drivers/USB/Core/AVR8/USBInterrupt_AVR8.c **** 		#endif
 133:../../protocol/lufa/LUFA-120730/LUFA/Drivers/USB/Core/AVR8/USBInterrupt_AVR8.c **** 	}
 134:../../protocol/lufa/LUFA-120730/LUFA/Drivers/USB/Core/AVR8/USBInterrupt_AVR8.c **** 
 135:../../protocol/lufa/LUFA-120730/LUFA/Drivers/USB/Core/AVR8/USBInterrupt_AVR8.c **** 	if (USB_INT_HasOccurred(USB_INT_WAKEUPI) && USB_INT_IsEnabled(USB_INT_WAKEUPI))
 294               		.loc 1 135 0
 295 00c4 84FF      		sbrs r24,4
 296 00c6 00C0      		rjmp .L10
 297               	.LVL12:
 298               	.LBB122:
 299               	.LBB123:
 276:../../protocol/lufa/LUFA-120730/LUFA/Drivers/USB/Core/AVR8/../AVR8/USBInterrupt_AVR8.h **** 						return (UDIEN  & (1 << WAKEUPE));
 300               		.loc 2 276 0
 301 00c8 8091 E200 		lds r24,226
 302               	.LBE123:
 303               	.LBE122:
 304               		.loc 1 135 0
 305 00cc 84FF      		sbrs r24,4
 306 00ce 00C0      		rjmp .L10
 307               	.LBB124:
 308               	.LBB125:
 334:../../protocol/lufa/LUFA-120730/LUFA/Drivers/USB/Core/AVR8/../AVR8/../AVR8/USBController_AVR8.h **** 				PLLCSR = USB_PLL_PSC;
 309               		.loc 3 334 0
 310 00d0 80E1      		ldi r24,lo8(16)
 311 00d2 89BD      		out 0x29,r24
 335:../../protocol/lufa/LUFA-120730/LUFA/Drivers/USB/Core/AVR8/../AVR8/../AVR8/USBController_AVR8.h **** 				PLLCSR = (USB_PLL_PSC | (1 << PLLE));
 312               		.loc 3 335 0
 313 00d4 82E1      		ldi r24,lo8(18)
 314 00d6 89BD      		out 0x29,r24
 315               	.L12:
 316               	.LBE125:
 317               	.LBE124:
 136:../../protocol/lufa/LUFA-120730/LUFA/Drivers/USB/Core/AVR8/USBInterrupt_AVR8.c **** 	{
 137:../../protocol/lufa/LUFA-120730/LUFA/Drivers/USB/Core/AVR8/USBInterrupt_AVR8.c **** 		if (!(USB_Options & USB_OPT_MANUAL_PLL))
 138:../../protocol/lufa/LUFA-120730/LUFA/Drivers/USB/Core/AVR8/USBInterrupt_AVR8.c **** 		{
 139:../../protocol/lufa/LUFA-120730/LUFA/Drivers/USB/Core/AVR8/USBInterrupt_AVR8.c **** 			USB_PLL_On();
 140:../../protocol/lufa/LUFA-120730/LUFA/Drivers/USB/Core/AVR8/USBInterrupt_AVR8.c **** 			while (!(USB_PLL_IsReady()));
 318               		.loc 1 140 0 discriminator 1
 319 00d8 09B4      		in __tmp_reg__,0x29
 320 00da 00FE      		sbrs __tmp_reg__,0
 321 00dc 00C0      		rjmp .L12
 322               	.LBB126:
 323               	.LBB127:
 388:../../protocol/lufa/LUFA-120730/LUFA/Drivers/USB/Core/AVR8/../AVR8/../AVR8/USBController_AVR8.h **** 			}
 389:../../protocol/lufa/LUFA-120730/LUFA/Drivers/USB/Core/AVR8/../AVR8/../AVR8/USBController_AVR8.h **** 
 390:../../protocol/lufa/LUFA-120730/LUFA/Drivers/USB/Core/AVR8/../AVR8/../AVR8/USBController_AVR8.h **** 			static inline void USB_CLK_Unfreeze(void) ATTR_ALWAYS_INLINE;
 391:../../protocol/lufa/LUFA-120730/LUFA/Drivers/USB/Core/AVR8/../AVR8/../AVR8/USBController_AVR8.h **** 			static inline void USB_CLK_Unfreeze(void)
 392:../../protocol/lufa/LUFA-120730/LUFA/Drivers/USB/Core/AVR8/../AVR8/../AVR8/USBController_AVR8.h **** 			{
 393:../../protocol/lufa/LUFA-120730/LUFA/Drivers/USB/Core/AVR8/../AVR8/../AVR8/USBController_AVR8.h **** 				USBCON &= ~(1 << FRZCLK);
 324               		.loc 3 393 0
 325 00de 8091 D800 		lds r24,216
 326 00e2 8F7D      		andi r24,lo8(-33)
 327 00e4 8093 D800 		sts 216,r24
 328               	.LVL13:
 329               	.LBE127:
 330               	.LBE126:
 331               	.LBB128:
 332               	.LBB129:
 220:../../protocol/lufa/LUFA-120730/LUFA/Drivers/USB/Core/AVR8/../AVR8/USBInterrupt_AVR8.h **** 						UDINT  &= ~(1 << WAKEUPI);
 333               		.loc 2 220 0
 334 00e8 8091 E100 		lds r24,225
 335 00ec 8F7E      		andi r24,lo8(-17)
 336 00ee 8093 E100 		sts 225,r24
 337               	.LVL14:
 338               	.LBE129:
 339               	.LBE128:
 340               	.LBB130:
 341               	.LBB131:
 162:../../protocol/lufa/LUFA-120730/LUFA/Drivers/USB/Core/AVR8/../AVR8/USBInterrupt_AVR8.h **** 						UDIEN  &= ~(1 << WAKEUPE);
 342               		.loc 2 162 0
 343 00f2 8091 E200 		lds r24,226
 344 00f6 8F7E      		andi r24,lo8(-17)
 345 00f8 8093 E200 		sts 226,r24
 346               	.LVL15:
 347               	.LBE131:
 348               	.LBE130:
 349               	.LBB132:
 350               	.LBB133:
 107:../../protocol/lufa/LUFA-120730/LUFA/Drivers/USB/Core/AVR8/../AVR8/USBInterrupt_AVR8.h **** 						UDIEN  |= (1 << SUSPE);
 351               		.loc 2 107 0
 352 00fc 8091 E200 		lds r24,226
 353 0100 8160      		ori r24,lo8(1)
 354 0102 8093 E200 		sts 226,r24
 355               	.LBE133:
 356               	.LBE132:
 141:../../protocol/lufa/LUFA-120730/LUFA/Drivers/USB/Core/AVR8/USBInterrupt_AVR8.c **** 		}
 142:../../protocol/lufa/LUFA-120730/LUFA/Drivers/USB/Core/AVR8/USBInterrupt_AVR8.c **** 
 143:../../protocol/lufa/LUFA-120730/LUFA/Drivers/USB/Core/AVR8/USBInterrupt_AVR8.c **** 		USB_CLK_Unfreeze();
 144:../../protocol/lufa/LUFA-120730/LUFA/Drivers/USB/Core/AVR8/USBInterrupt_AVR8.c **** 
 145:../../protocol/lufa/LUFA-120730/LUFA/Drivers/USB/Core/AVR8/USBInterrupt_AVR8.c **** 		USB_INT_Clear(USB_INT_WAKEUPI);
 146:../../protocol/lufa/LUFA-120730/LUFA/Drivers/USB/Core/AVR8/USBInterrupt_AVR8.c **** 
 147:../../protocol/lufa/LUFA-120730/LUFA/Drivers/USB/Core/AVR8/USBInterrupt_AVR8.c **** 		USB_INT_Disable(USB_INT_WAKEUPI);
 148:../../protocol/lufa/LUFA-120730/LUFA/Drivers/USB/Core/AVR8/USBInterrupt_AVR8.c **** 		USB_INT_Enable(USB_INT_SUSPI);
 149:../../protocol/lufa/LUFA-120730/LUFA/Drivers/USB/Core/AVR8/USBInterrupt_AVR8.c **** 
 150:../../protocol/lufa/LUFA-120730/LUFA/Drivers/USB/Core/AVR8/USBInterrupt_AVR8.c **** 		if (USB_Device_ConfigurationNumber)
 357               		.loc 1 150 0
 358 0106 8091 0000 		lds r24,USB_Device_ConfigurationNumber
 359 010a 8111      		cpse r24,__zero_reg__
 360 010c 00C0      		rjmp .L48
 361               	.LBB134:
 362               	.LBB135:
 363               		.file 4 "../../protocol/lufa/LUFA-120730/LUFA/Drivers/USB/Core/AVR8/../AVR8/../AVR8/../AVR8/Device
   1:../../protocol/lufa/LUFA-120730/LUFA/Drivers/USB/Core/AVR8/../AVR8/../AVR8/../AVR8/Device_AVR8.h **** /*
   2:../../protocol/lufa/LUFA-120730/LUFA/Drivers/USB/Core/AVR8/../AVR8/../AVR8/../AVR8/Device_AVR8.h ****              LUFA Library
   3:../../protocol/lufa/LUFA-120730/LUFA/Drivers/USB/Core/AVR8/../AVR8/../AVR8/../AVR8/Device_AVR8.h ****      Copyright (C) Dean Camera, 2012.
   4:../../protocol/lufa/LUFA-120730/LUFA/Drivers/USB/Core/AVR8/../AVR8/../AVR8/../AVR8/Device_AVR8.h **** 
   5:../../protocol/lufa/LUFA-120730/LUFA/Drivers/USB/Core/AVR8/../AVR8/../AVR8/../AVR8/Device_AVR8.h ****   dean [at] fourwalledcubicle [dot] com
   6:../../protocol/lufa/LUFA-120730/LUFA/Drivers/USB/Core/AVR8/../AVR8/../AVR8/../AVR8/Device_AVR8.h ****            www.lufa-lib.org
   7:../../protocol/lufa/LUFA-120730/LUFA/Drivers/USB/Core/AVR8/../AVR8/../AVR8/../AVR8/Device_AVR8.h **** */
   8:../../protocol/lufa/LUFA-120730/LUFA/Drivers/USB/Core/AVR8/../AVR8/../AVR8/../AVR8/Device_AVR8.h **** 
   9:../../protocol/lufa/LUFA-120730/LUFA/Drivers/USB/Core/AVR8/../AVR8/../AVR8/../AVR8/Device_AVR8.h **** /*
  10:../../protocol/lufa/LUFA-120730/LUFA/Drivers/USB/Core/AVR8/../AVR8/../AVR8/../AVR8/Device_AVR8.h ****   Copyright 2012  Dean Camera (dean [at] fourwalledcubicle [dot] com)
  11:../../protocol/lufa/LUFA-120730/LUFA/Drivers/USB/Core/AVR8/../AVR8/../AVR8/../AVR8/Device_AVR8.h **** 
  12:../../protocol/lufa/LUFA-120730/LUFA/Drivers/USB/Core/AVR8/../AVR8/../AVR8/../AVR8/Device_AVR8.h ****   Permission to use, copy, modify, distribute, and sell this
  13:../../protocol/lufa/LUFA-120730/LUFA/Drivers/USB/Core/AVR8/../AVR8/../AVR8/../AVR8/Device_AVR8.h ****   software and its documentation for any purpose is hereby granted
  14:../../protocol/lufa/LUFA-120730/LUFA/Drivers/USB/Core/AVR8/../AVR8/../AVR8/../AVR8/Device_AVR8.h ****   without fee, provided that the above copyright notice appear in
  15:../../protocol/lufa/LUFA-120730/LUFA/Drivers/USB/Core/AVR8/../AVR8/../AVR8/../AVR8/Device_AVR8.h ****   all copies and that both that the copyright notice and this
  16:../../protocol/lufa/LUFA-120730/LUFA/Drivers/USB/Core/AVR8/../AVR8/../AVR8/../AVR8/Device_AVR8.h ****   permission notice and warranty disclaimer appear in supporting
  17:../../protocol/lufa/LUFA-120730/LUFA/Drivers/USB/Core/AVR8/../AVR8/../AVR8/../AVR8/Device_AVR8.h ****   documentation, and that the name of the author not be used in
  18:../../protocol/lufa/LUFA-120730/LUFA/Drivers/USB/Core/AVR8/../AVR8/../AVR8/../AVR8/Device_AVR8.h ****   advertising or publicity pertaining to distribution of the
  19:../../protocol/lufa/LUFA-120730/LUFA/Drivers/USB/Core/AVR8/../AVR8/../AVR8/../AVR8/Device_AVR8.h ****   software without specific, written prior permission.
  20:../../protocol/lufa/LUFA-120730/LUFA/Drivers/USB/Core/AVR8/../AVR8/../AVR8/../AVR8/Device_AVR8.h **** 
  21:../../protocol/lufa/LUFA-120730/LUFA/Drivers/USB/Core/AVR8/../AVR8/../AVR8/../AVR8/Device_AVR8.h ****   The author disclaim all warranties with regard to this
  22:../../protocol/lufa/LUFA-120730/LUFA/Drivers/USB/Core/AVR8/../AVR8/../AVR8/../AVR8/Device_AVR8.h ****   software, including all implied warranties of merchantability
  23:../../protocol/lufa/LUFA-120730/LUFA/Drivers/USB/Core/AVR8/../AVR8/../AVR8/../AVR8/Device_AVR8.h ****   and fitness.  In no event shall the author be liable for any
  24:../../protocol/lufa/LUFA-120730/LUFA/Drivers/USB/Core/AVR8/../AVR8/../AVR8/../AVR8/Device_AVR8.h ****   special, indirect or consequential damages or any damages
  25:../../protocol/lufa/LUFA-120730/LUFA/Drivers/USB/Core/AVR8/../AVR8/../AVR8/../AVR8/Device_AVR8.h ****   whatsoever resulting from loss of use, data or profits, whether
  26:../../protocol/lufa/LUFA-120730/LUFA/Drivers/USB/Core/AVR8/../AVR8/../AVR8/../AVR8/Device_AVR8.h ****   in an action of contract, negligence or other tortious action,
  27:../../protocol/lufa/LUFA-120730/LUFA/Drivers/USB/Core/AVR8/../AVR8/../AVR8/../AVR8/Device_AVR8.h ****   arising out of or in connection with the use or performance of
  28:../../protocol/lufa/LUFA-120730/LUFA/Drivers/USB/Core/AVR8/../AVR8/../AVR8/../AVR8/Device_AVR8.h ****   this software.
  29:../../protocol/lufa/LUFA-120730/LUFA/Drivers/USB/Core/AVR8/../AVR8/../AVR8/../AVR8/Device_AVR8.h **** */
  30:../../protocol/lufa/LUFA-120730/LUFA/Drivers/USB/Core/AVR8/../AVR8/../AVR8/../AVR8/Device_AVR8.h **** 
  31:../../protocol/lufa/LUFA-120730/LUFA/Drivers/USB/Core/AVR8/../AVR8/../AVR8/../AVR8/Device_AVR8.h **** /** \file
  32:../../protocol/lufa/LUFA-120730/LUFA/Drivers/USB/Core/AVR8/../AVR8/../AVR8/../AVR8/Device_AVR8.h ****  *  \brief USB Device definitions for the AVR8 microcontrollers.
  33:../../protocol/lufa/LUFA-120730/LUFA/Drivers/USB/Core/AVR8/../AVR8/../AVR8/../AVR8/Device_AVR8.h ****  *  \copydetails Group_Device_AVR8
  34:../../protocol/lufa/LUFA-120730/LUFA/Drivers/USB/Core/AVR8/../AVR8/../AVR8/../AVR8/Device_AVR8.h ****  *
  35:../../protocol/lufa/LUFA-120730/LUFA/Drivers/USB/Core/AVR8/../AVR8/../AVR8/../AVR8/Device_AVR8.h ****  *  \note This file should not be included directly. It is automatically included as needed by the 
  36:../../protocol/lufa/LUFA-120730/LUFA/Drivers/USB/Core/AVR8/../AVR8/../AVR8/../AVR8/Device_AVR8.h ****  *        dispatch header located in LUFA/Drivers/USB/USB.h.
  37:../../protocol/lufa/LUFA-120730/LUFA/Drivers/USB/Core/AVR8/../AVR8/../AVR8/../AVR8/Device_AVR8.h ****  */
  38:../../protocol/lufa/LUFA-120730/LUFA/Drivers/USB/Core/AVR8/../AVR8/../AVR8/../AVR8/Device_AVR8.h **** 
  39:../../protocol/lufa/LUFA-120730/LUFA/Drivers/USB/Core/AVR8/../AVR8/../AVR8/../AVR8/Device_AVR8.h **** /** \ingroup Group_Device
  40:../../protocol/lufa/LUFA-120730/LUFA/Drivers/USB/Core/AVR8/../AVR8/../AVR8/../AVR8/Device_AVR8.h ****  *  \defgroup Group_Device_AVR8 Device Management (AVR8)
  41:../../protocol/lufa/LUFA-120730/LUFA/Drivers/USB/Core/AVR8/../AVR8/../AVR8/../AVR8/Device_AVR8.h ****  *  \brief USB Device definitions for the AVR8 microcontrollers.
  42:../../protocol/lufa/LUFA-120730/LUFA/Drivers/USB/Core/AVR8/../AVR8/../AVR8/../AVR8/Device_AVR8.h ****  *
  43:../../protocol/lufa/LUFA-120730/LUFA/Drivers/USB/Core/AVR8/../AVR8/../AVR8/../AVR8/Device_AVR8.h ****  *  Architecture specific USB Device definitions for the Atmel 8-bit AVR microcontrollers.
  44:../../protocol/lufa/LUFA-120730/LUFA/Drivers/USB/Core/AVR8/../AVR8/../AVR8/../AVR8/Device_AVR8.h ****  *
  45:../../protocol/lufa/LUFA-120730/LUFA/Drivers/USB/Core/AVR8/../AVR8/../AVR8/../AVR8/Device_AVR8.h ****  *  @{
  46:../../protocol/lufa/LUFA-120730/LUFA/Drivers/USB/Core/AVR8/../AVR8/../AVR8/../AVR8/Device_AVR8.h ****  */
  47:../../protocol/lufa/LUFA-120730/LUFA/Drivers/USB/Core/AVR8/../AVR8/../AVR8/../AVR8/Device_AVR8.h **** 
  48:../../protocol/lufa/LUFA-120730/LUFA/Drivers/USB/Core/AVR8/../AVR8/../AVR8/../AVR8/Device_AVR8.h **** #ifndef __USBDEVICE_AVR8_H__
  49:../../protocol/lufa/LUFA-120730/LUFA/Drivers/USB/Core/AVR8/../AVR8/../AVR8/../AVR8/Device_AVR8.h **** #define __USBDEVICE_AVR8_H__
  50:../../protocol/lufa/LUFA-120730/LUFA/Drivers/USB/Core/AVR8/../AVR8/../AVR8/../AVR8/Device_AVR8.h **** 
  51:../../protocol/lufa/LUFA-120730/LUFA/Drivers/USB/Core/AVR8/../AVR8/../AVR8/../AVR8/Device_AVR8.h **** 	/* Includes: */
  52:../../protocol/lufa/LUFA-120730/LUFA/Drivers/USB/Core/AVR8/../AVR8/../AVR8/../AVR8/Device_AVR8.h **** 		#include "../../../../Common/Common.h"
  53:../../protocol/lufa/LUFA-120730/LUFA/Drivers/USB/Core/AVR8/../AVR8/../AVR8/../AVR8/Device_AVR8.h **** 		#include "../USBController.h"
  54:../../protocol/lufa/LUFA-120730/LUFA/Drivers/USB/Core/AVR8/../AVR8/../AVR8/../AVR8/Device_AVR8.h **** 		#include "../StdDescriptors.h"
  55:../../protocol/lufa/LUFA-120730/LUFA/Drivers/USB/Core/AVR8/../AVR8/../AVR8/../AVR8/Device_AVR8.h **** 		#include "../USBInterrupt.h"
  56:../../protocol/lufa/LUFA-120730/LUFA/Drivers/USB/Core/AVR8/../AVR8/../AVR8/../AVR8/Device_AVR8.h **** 		#include "../Endpoint.h"
  57:../../protocol/lufa/LUFA-120730/LUFA/Drivers/USB/Core/AVR8/../AVR8/../AVR8/../AVR8/Device_AVR8.h **** 
  58:../../protocol/lufa/LUFA-120730/LUFA/Drivers/USB/Core/AVR8/../AVR8/../AVR8/../AVR8/Device_AVR8.h **** 	/* Enable C linkage for C++ Compilers: */
  59:../../protocol/lufa/LUFA-120730/LUFA/Drivers/USB/Core/AVR8/../AVR8/../AVR8/../AVR8/Device_AVR8.h **** 		#if defined(__cplusplus)
  60:../../protocol/lufa/LUFA-120730/LUFA/Drivers/USB/Core/AVR8/../AVR8/../AVR8/../AVR8/Device_AVR8.h **** 			extern "C" {
  61:../../protocol/lufa/LUFA-120730/LUFA/Drivers/USB/Core/AVR8/../AVR8/../AVR8/../AVR8/Device_AVR8.h **** 		#endif
  62:../../protocol/lufa/LUFA-120730/LUFA/Drivers/USB/Core/AVR8/../AVR8/../AVR8/../AVR8/Device_AVR8.h **** 
  63:../../protocol/lufa/LUFA-120730/LUFA/Drivers/USB/Core/AVR8/../AVR8/../AVR8/../AVR8/Device_AVR8.h **** 	/* Preprocessor Checks: */
  64:../../protocol/lufa/LUFA-120730/LUFA/Drivers/USB/Core/AVR8/../AVR8/../AVR8/../AVR8/Device_AVR8.h **** 		#if !defined(__INCLUDE_FROM_USB_DRIVER)
  65:../../protocol/lufa/LUFA-120730/LUFA/Drivers/USB/Core/AVR8/../AVR8/../AVR8/../AVR8/Device_AVR8.h **** 			#error Do not include this file directly. Include LUFA/Drivers/USB/USB.h instead.
  66:../../protocol/lufa/LUFA-120730/LUFA/Drivers/USB/Core/AVR8/../AVR8/../AVR8/../AVR8/Device_AVR8.h **** 		#endif
  67:../../protocol/lufa/LUFA-120730/LUFA/Drivers/USB/Core/AVR8/../AVR8/../AVR8/../AVR8/Device_AVR8.h **** 
  68:../../protocol/lufa/LUFA-120730/LUFA/Drivers/USB/Core/AVR8/../AVR8/../AVR8/../AVR8/Device_AVR8.h **** 		#if (defined(USE_RAM_DESCRIPTORS) && defined(USE_EEPROM_DESCRIPTORS))
  69:../../protocol/lufa/LUFA-120730/LUFA/Drivers/USB/Core/AVR8/../AVR8/../AVR8/../AVR8/Device_AVR8.h **** 			#error USE_RAM_DESCRIPTORS and USE_EEPROM_DESCRIPTORS are mutually exclusive.
  70:../../protocol/lufa/LUFA-120730/LUFA/Drivers/USB/Core/AVR8/../AVR8/../AVR8/../AVR8/Device_AVR8.h **** 		#endif
  71:../../protocol/lufa/LUFA-120730/LUFA/Drivers/USB/Core/AVR8/../AVR8/../AVR8/../AVR8/Device_AVR8.h **** 
  72:../../protocol/lufa/LUFA-120730/LUFA/Drivers/USB/Core/AVR8/../AVR8/../AVR8/../AVR8/Device_AVR8.h **** 		#if (defined(USE_FLASH_DESCRIPTORS) && defined(USE_EEPROM_DESCRIPTORS))
  73:../../protocol/lufa/LUFA-120730/LUFA/Drivers/USB/Core/AVR8/../AVR8/../AVR8/../AVR8/Device_AVR8.h **** 			#error USE_FLASH_DESCRIPTORS and USE_EEPROM_DESCRIPTORS are mutually exclusive.
  74:../../protocol/lufa/LUFA-120730/LUFA/Drivers/USB/Core/AVR8/../AVR8/../AVR8/../AVR8/Device_AVR8.h **** 		#endif
  75:../../protocol/lufa/LUFA-120730/LUFA/Drivers/USB/Core/AVR8/../AVR8/../AVR8/../AVR8/Device_AVR8.h **** 
  76:../../protocol/lufa/LUFA-120730/LUFA/Drivers/USB/Core/AVR8/../AVR8/../AVR8/../AVR8/Device_AVR8.h **** 		#if (defined(USE_FLASH_DESCRIPTORS) && defined(USE_RAM_DESCRIPTORS))
  77:../../protocol/lufa/LUFA-120730/LUFA/Drivers/USB/Core/AVR8/../AVR8/../AVR8/../AVR8/Device_AVR8.h **** 			#error USE_FLASH_DESCRIPTORS and USE_RAM_DESCRIPTORS are mutually exclusive.
  78:../../protocol/lufa/LUFA-120730/LUFA/Drivers/USB/Core/AVR8/../AVR8/../AVR8/../AVR8/Device_AVR8.h **** 		#endif
  79:../../protocol/lufa/LUFA-120730/LUFA/Drivers/USB/Core/AVR8/../AVR8/../AVR8/../AVR8/Device_AVR8.h **** 
  80:../../protocol/lufa/LUFA-120730/LUFA/Drivers/USB/Core/AVR8/../AVR8/../AVR8/../AVR8/Device_AVR8.h **** 	/* Public Interface - May be used in end-application: */
  81:../../protocol/lufa/LUFA-120730/LUFA/Drivers/USB/Core/AVR8/../AVR8/../AVR8/../AVR8/Device_AVR8.h **** 		/* Macros: */
  82:../../protocol/lufa/LUFA-120730/LUFA/Drivers/USB/Core/AVR8/../AVR8/../AVR8/../AVR8/Device_AVR8.h **** 			/** \name USB Device Mode Option Masks */
  83:../../protocol/lufa/LUFA-120730/LUFA/Drivers/USB/Core/AVR8/../AVR8/../AVR8/../AVR8/Device_AVR8.h **** 			//@{
  84:../../protocol/lufa/LUFA-120730/LUFA/Drivers/USB/Core/AVR8/../AVR8/../AVR8/../AVR8/Device_AVR8.h **** 			#if defined(USB_SERIES_4_AVR) || defined(USB_SERIES_6_AVR) || defined(USB_SERIES_7_AVR) || defin
  85:../../protocol/lufa/LUFA-120730/LUFA/Drivers/USB/Core/AVR8/../AVR8/../AVR8/../AVR8/Device_AVR8.h **** 				/** Mask for the Options parameter of the \ref USB_Init() function. This indicates that the
  86:../../protocol/lufa/LUFA-120730/LUFA/Drivers/USB/Core/AVR8/../AVR8/../AVR8/../AVR8/Device_AVR8.h **** 				 *  USB interface should be initialized in low speed (1.5Mb/s) mode.
  87:../../protocol/lufa/LUFA-120730/LUFA/Drivers/USB/Core/AVR8/../AVR8/../AVR8/../AVR8/Device_AVR8.h **** 				 *
  88:../../protocol/lufa/LUFA-120730/LUFA/Drivers/USB/Core/AVR8/../AVR8/../AVR8/../AVR8/Device_AVR8.h **** 				 *  \note Low Speed mode is not available on all USB AVR models.
  89:../../protocol/lufa/LUFA-120730/LUFA/Drivers/USB/Core/AVR8/../AVR8/../AVR8/../AVR8/Device_AVR8.h **** 				 *        \n
  90:../../protocol/lufa/LUFA-120730/LUFA/Drivers/USB/Core/AVR8/../AVR8/../AVR8/../AVR8/Device_AVR8.h **** 				 *
  91:../../protocol/lufa/LUFA-120730/LUFA/Drivers/USB/Core/AVR8/../AVR8/../AVR8/../AVR8/Device_AVR8.h **** 				 *  \note Restrictions apply on the number, size and type of endpoints which can be used
  92:../../protocol/lufa/LUFA-120730/LUFA/Drivers/USB/Core/AVR8/../AVR8/../AVR8/../AVR8/Device_AVR8.h **** 				 *        when running in low speed mode - please refer to the USB 2.0 specification.
  93:../../protocol/lufa/LUFA-120730/LUFA/Drivers/USB/Core/AVR8/../AVR8/../AVR8/../AVR8/Device_AVR8.h **** 				 */
  94:../../protocol/lufa/LUFA-120730/LUFA/Drivers/USB/Core/AVR8/../AVR8/../AVR8/../AVR8/Device_AVR8.h **** 				#define USB_DEVICE_OPT_LOWSPEED            (1 << 0)
  95:../../protocol/lufa/LUFA-120730/LUFA/Drivers/USB/Core/AVR8/../AVR8/../AVR8/../AVR8/Device_AVR8.h **** 			#endif
  96:../../protocol/lufa/LUFA-120730/LUFA/Drivers/USB/Core/AVR8/../AVR8/../AVR8/../AVR8/Device_AVR8.h **** 
  97:../../protocol/lufa/LUFA-120730/LUFA/Drivers/USB/Core/AVR8/../AVR8/../AVR8/../AVR8/Device_AVR8.h **** 			/** Mask for the Options parameter of the \ref USB_Init() function. This indicates that the
  98:../../protocol/lufa/LUFA-120730/LUFA/Drivers/USB/Core/AVR8/../AVR8/../AVR8/../AVR8/Device_AVR8.h **** 			 *  USB interface should be initialized in full speed (12Mb/s) mode.
  99:../../protocol/lufa/LUFA-120730/LUFA/Drivers/USB/Core/AVR8/../AVR8/../AVR8/../AVR8/Device_AVR8.h **** 			 */
 100:../../protocol/lufa/LUFA-120730/LUFA/Drivers/USB/Core/AVR8/../AVR8/../AVR8/../AVR8/Device_AVR8.h **** 			#define USB_DEVICE_OPT_FULLSPEED               (0 << 0)
 101:../../protocol/lufa/LUFA-120730/LUFA/Drivers/USB/Core/AVR8/../AVR8/../AVR8/../AVR8/Device_AVR8.h **** 			//@}
 102:../../protocol/lufa/LUFA-120730/LUFA/Drivers/USB/Core/AVR8/../AVR8/../AVR8/../AVR8/Device_AVR8.h **** 
 103:../../protocol/lufa/LUFA-120730/LUFA/Drivers/USB/Core/AVR8/../AVR8/../AVR8/../AVR8/Device_AVR8.h **** 			#if (!defined(NO_INTERNAL_SERIAL) && \
 104:../../protocol/lufa/LUFA-120730/LUFA/Drivers/USB/Core/AVR8/../AVR8/../AVR8/../AVR8/Device_AVR8.h **** 			     (defined(USB_SERIES_7_AVR) || defined(USB_SERIES_6_AVR) || \
 105:../../protocol/lufa/LUFA-120730/LUFA/Drivers/USB/Core/AVR8/../AVR8/../AVR8/../AVR8/Device_AVR8.h **** 			      defined(USB_SERIES_4_AVR) || defined(USB_SERIES_2_AVR) || \
 106:../../protocol/lufa/LUFA-120730/LUFA/Drivers/USB/Core/AVR8/../AVR8/../AVR8/../AVR8/Device_AVR8.h **** 				  defined(__DOXYGEN__)))
 107:../../protocol/lufa/LUFA-120730/LUFA/Drivers/USB/Core/AVR8/../AVR8/../AVR8/../AVR8/Device_AVR8.h **** 				/** String descriptor index for the device's unique serial number string descriptor within the 
 108:../../protocol/lufa/LUFA-120730/LUFA/Drivers/USB/Core/AVR8/../AVR8/../AVR8/../AVR8/Device_AVR8.h **** 				 *  This unique serial number is used by the host to associate resources to the device (such as
 109:../../protocol/lufa/LUFA-120730/LUFA/Drivers/USB/Core/AVR8/../AVR8/../AVR8/../AVR8/Device_AVR8.h **** 				 *  number allocations) to a device regardless of the port it is plugged in to on the host. Som
 110:../../protocol/lufa/LUFA-120730/LUFA/Drivers/USB/Core/AVR8/../AVR8/../AVR8/../AVR8/Device_AVR8.h **** 				 *  a unique serial number internally, and setting the device descriptors serial number string 
 111:../../protocol/lufa/LUFA-120730/LUFA/Drivers/USB/Core/AVR8/../AVR8/../AVR8/../AVR8/Device_AVR8.h **** 				 *  will cause it to use the internal serial number.
 112:../../protocol/lufa/LUFA-120730/LUFA/Drivers/USB/Core/AVR8/../AVR8/../AVR8/../AVR8/Device_AVR8.h **** 				 *
 113:../../protocol/lufa/LUFA-120730/LUFA/Drivers/USB/Core/AVR8/../AVR8/../AVR8/../AVR8/Device_AVR8.h **** 				 *  On unsupported devices, this will evaluate to \ref NO_DESCRIPTOR and so will force the host
 114:../../protocol/lufa/LUFA-120730/LUFA/Drivers/USB/Core/AVR8/../AVR8/../AVR8/../AVR8/Device_AVR8.h **** 				 *  number for the device.
 115:../../protocol/lufa/LUFA-120730/LUFA/Drivers/USB/Core/AVR8/../AVR8/../AVR8/../AVR8/Device_AVR8.h **** 				 */
 116:../../protocol/lufa/LUFA-120730/LUFA/Drivers/USB/Core/AVR8/../AVR8/../AVR8/../AVR8/Device_AVR8.h **** 				#define USE_INTERNAL_SERIAL            0xDC
 117:../../protocol/lufa/LUFA-120730/LUFA/Drivers/USB/Core/AVR8/../AVR8/../AVR8/../AVR8/Device_AVR8.h **** 
 118:../../protocol/lufa/LUFA-120730/LUFA/Drivers/USB/Core/AVR8/../AVR8/../AVR8/../AVR8/Device_AVR8.h **** 				/** Length of the device's unique internal serial number, in bits, if present on the selected m
 119:../../protocol/lufa/LUFA-120730/LUFA/Drivers/USB/Core/AVR8/../AVR8/../AVR8/../AVR8/Device_AVR8.h **** 				 *  model.
 120:../../protocol/lufa/LUFA-120730/LUFA/Drivers/USB/Core/AVR8/../AVR8/../AVR8/../AVR8/Device_AVR8.h **** 				 */
 121:../../protocol/lufa/LUFA-120730/LUFA/Drivers/USB/Core/AVR8/../AVR8/../AVR8/../AVR8/Device_AVR8.h **** 				#define INTERNAL_SERIAL_LENGTH_BITS    80
 122:../../protocol/lufa/LUFA-120730/LUFA/Drivers/USB/Core/AVR8/../AVR8/../AVR8/../AVR8/Device_AVR8.h **** 
 123:../../protocol/lufa/LUFA-120730/LUFA/Drivers/USB/Core/AVR8/../AVR8/../AVR8/../AVR8/Device_AVR8.h **** 				/** Start address of the internal serial number, in the appropriate address space, if present o
 124:../../protocol/lufa/LUFA-120730/LUFA/Drivers/USB/Core/AVR8/../AVR8/../AVR8/../AVR8/Device_AVR8.h **** 				 *  model.
 125:../../protocol/lufa/LUFA-120730/LUFA/Drivers/USB/Core/AVR8/../AVR8/../AVR8/../AVR8/Device_AVR8.h **** 				 */
 126:../../protocol/lufa/LUFA-120730/LUFA/Drivers/USB/Core/AVR8/../AVR8/../AVR8/../AVR8/Device_AVR8.h **** 				#define INTERNAL_SERIAL_START_ADDRESS  0x0E
 127:../../protocol/lufa/LUFA-120730/LUFA/Drivers/USB/Core/AVR8/../AVR8/../AVR8/../AVR8/Device_AVR8.h **** 			#else
 128:../../protocol/lufa/LUFA-120730/LUFA/Drivers/USB/Core/AVR8/../AVR8/../AVR8/../AVR8/Device_AVR8.h **** 				#define USE_INTERNAL_SERIAL            NO_DESCRIPTOR
 129:../../protocol/lufa/LUFA-120730/LUFA/Drivers/USB/Core/AVR8/../AVR8/../AVR8/../AVR8/Device_AVR8.h **** 
 130:../../protocol/lufa/LUFA-120730/LUFA/Drivers/USB/Core/AVR8/../AVR8/../AVR8/../AVR8/Device_AVR8.h **** 				#define INTERNAL_SERIAL_LENGTH_BITS    0
 131:../../protocol/lufa/LUFA-120730/LUFA/Drivers/USB/Core/AVR8/../AVR8/../AVR8/../AVR8/Device_AVR8.h **** 				#define INTERNAL_SERIAL_START_ADDRESS  0
 132:../../protocol/lufa/LUFA-120730/LUFA/Drivers/USB/Core/AVR8/../AVR8/../AVR8/../AVR8/Device_AVR8.h **** 			#endif
 133:../../protocol/lufa/LUFA-120730/LUFA/Drivers/USB/Core/AVR8/../AVR8/../AVR8/../AVR8/Device_AVR8.h **** 
 134:../../protocol/lufa/LUFA-120730/LUFA/Drivers/USB/Core/AVR8/../AVR8/../AVR8/../AVR8/Device_AVR8.h **** 		/* Function Prototypes: */
 135:../../protocol/lufa/LUFA-120730/LUFA/Drivers/USB/Core/AVR8/../AVR8/../AVR8/../AVR8/Device_AVR8.h **** 			/** Sends a Remote Wakeup request to the host. This signals to the host that the device should
 136:../../protocol/lufa/LUFA-120730/LUFA/Drivers/USB/Core/AVR8/../AVR8/../AVR8/../AVR8/Device_AVR8.h **** 			 *  be taken out of suspended mode, and communications should resume.
 137:../../protocol/lufa/LUFA-120730/LUFA/Drivers/USB/Core/AVR8/../AVR8/../AVR8/../AVR8/Device_AVR8.h **** 			 *
 138:../../protocol/lufa/LUFA-120730/LUFA/Drivers/USB/Core/AVR8/../AVR8/../AVR8/../AVR8/Device_AVR8.h **** 			 *  Typically, this is implemented so that HID devices (mice, keyboards, etc.) can wake up the
 139:../../protocol/lufa/LUFA-120730/LUFA/Drivers/USB/Core/AVR8/../AVR8/../AVR8/../AVR8/Device_AVR8.h **** 			 *  host computer when the host has suspended all USB devices to enter a low power state.
 140:../../protocol/lufa/LUFA-120730/LUFA/Drivers/USB/Core/AVR8/../AVR8/../AVR8/../AVR8/Device_AVR8.h **** 			 *
 141:../../protocol/lufa/LUFA-120730/LUFA/Drivers/USB/Core/AVR8/../AVR8/../AVR8/../AVR8/Device_AVR8.h **** 			 *  \attention This function should only be used if the device has indicated to the host that it
 142:../../protocol/lufa/LUFA-120730/LUFA/Drivers/USB/Core/AVR8/../AVR8/../AVR8/../AVR8/Device_AVR8.h **** 			 *             supports the Remote Wakeup feature in the device descriptors, and should only be
 143:../../protocol/lufa/LUFA-120730/LUFA/Drivers/USB/Core/AVR8/../AVR8/../AVR8/../AVR8/Device_AVR8.h **** 			 *             issued if the host is currently allowing remote wakeup events from the device (i.
 144:../../protocol/lufa/LUFA-120730/LUFA/Drivers/USB/Core/AVR8/../AVR8/../AVR8/../AVR8/Device_AVR8.h **** 			 *             the \ref USB_Device_RemoteWakeupEnabled flag is set). When the \c NO_DEVICE_REMOT
 145:../../protocol/lufa/LUFA-120730/LUFA/Drivers/USB/Core/AVR8/../AVR8/../AVR8/../AVR8/Device_AVR8.h **** 			 *             compile time option is used, this function is unavailable.
 146:../../protocol/lufa/LUFA-120730/LUFA/Drivers/USB/Core/AVR8/../AVR8/../AVR8/../AVR8/Device_AVR8.h **** 			 *             \n\n
 147:../../protocol/lufa/LUFA-120730/LUFA/Drivers/USB/Core/AVR8/../AVR8/../AVR8/../AVR8/Device_AVR8.h **** 			 *
 148:../../protocol/lufa/LUFA-120730/LUFA/Drivers/USB/Core/AVR8/../AVR8/../AVR8/../AVR8/Device_AVR8.h **** 			 *  \attention The USB clock must be running for this function to operate. If the stack is initi
 149:../../protocol/lufa/LUFA-120730/LUFA/Drivers/USB/Core/AVR8/../AVR8/../AVR8/../AVR8/Device_AVR8.h **** 			 *             the \ref USB_OPT_MANUAL_PLL option enabled, the user must ensure that the PLL is 
 150:../../protocol/lufa/LUFA-120730/LUFA/Drivers/USB/Core/AVR8/../AVR8/../AVR8/../AVR8/Device_AVR8.h **** 			 *             before attempting to call this function.
 151:../../protocol/lufa/LUFA-120730/LUFA/Drivers/USB/Core/AVR8/../AVR8/../AVR8/../AVR8/Device_AVR8.h **** 			 *
 152:../../protocol/lufa/LUFA-120730/LUFA/Drivers/USB/Core/AVR8/../AVR8/../AVR8/../AVR8/Device_AVR8.h **** 			 *  \see \ref Group_StdDescriptors for more information on the RMWAKEUP feature and device descr
 153:../../protocol/lufa/LUFA-120730/LUFA/Drivers/USB/Core/AVR8/../AVR8/../AVR8/../AVR8/Device_AVR8.h **** 			 */
 154:../../protocol/lufa/LUFA-120730/LUFA/Drivers/USB/Core/AVR8/../AVR8/../AVR8/../AVR8/Device_AVR8.h **** 			void USB_Device_SendRemoteWakeup(void);
 155:../../protocol/lufa/LUFA-120730/LUFA/Drivers/USB/Core/AVR8/../AVR8/../AVR8/../AVR8/Device_AVR8.h **** 
 156:../../protocol/lufa/LUFA-120730/LUFA/Drivers/USB/Core/AVR8/../AVR8/../AVR8/../AVR8/Device_AVR8.h **** 		/* Inline Functions: */
 157:../../protocol/lufa/LUFA-120730/LUFA/Drivers/USB/Core/AVR8/../AVR8/../AVR8/../AVR8/Device_AVR8.h **** 			/** Returns the current USB frame number, when in device mode. Every millisecond the USB bus is 
 158:../../protocol/lufa/LUFA-120730/LUFA/Drivers/USB/Core/AVR8/../AVR8/../AVR8/../AVR8/Device_AVR8.h **** 			 *  the frame number is incremented by one.
 159:../../protocol/lufa/LUFA-120730/LUFA/Drivers/USB/Core/AVR8/../AVR8/../AVR8/../AVR8/Device_AVR8.h **** 			 *
 160:../../protocol/lufa/LUFA-120730/LUFA/Drivers/USB/Core/AVR8/../AVR8/../AVR8/../AVR8/Device_AVR8.h **** 			 *  \return Current USB frame number from the USB controller.
 161:../../protocol/lufa/LUFA-120730/LUFA/Drivers/USB/Core/AVR8/../AVR8/../AVR8/../AVR8/Device_AVR8.h **** 			 */
 162:../../protocol/lufa/LUFA-120730/LUFA/Drivers/USB/Core/AVR8/../AVR8/../AVR8/../AVR8/Device_AVR8.h **** 			static inline uint16_t USB_Device_GetFrameNumber(void) ATTR_ALWAYS_INLINE ATTR_WARN_UNUSED_RESUL
 163:../../protocol/lufa/LUFA-120730/LUFA/Drivers/USB/Core/AVR8/../AVR8/../AVR8/../AVR8/Device_AVR8.h **** 			static inline uint16_t USB_Device_GetFrameNumber(void)
 164:../../protocol/lufa/LUFA-120730/LUFA/Drivers/USB/Core/AVR8/../AVR8/../AVR8/../AVR8/Device_AVR8.h **** 			{
 165:../../protocol/lufa/LUFA-120730/LUFA/Drivers/USB/Core/AVR8/../AVR8/../AVR8/../AVR8/Device_AVR8.h **** 				return UDFNUM;
 166:../../protocol/lufa/LUFA-120730/LUFA/Drivers/USB/Core/AVR8/../AVR8/../AVR8/../AVR8/Device_AVR8.h **** 			}
 167:../../protocol/lufa/LUFA-120730/LUFA/Drivers/USB/Core/AVR8/../AVR8/../AVR8/../AVR8/Device_AVR8.h **** 
 168:../../protocol/lufa/LUFA-120730/LUFA/Drivers/USB/Core/AVR8/../AVR8/../AVR8/../AVR8/Device_AVR8.h **** 			#if !defined(NO_SOF_EVENTS)
 169:../../protocol/lufa/LUFA-120730/LUFA/Drivers/USB/Core/AVR8/../AVR8/../AVR8/../AVR8/Device_AVR8.h **** 				/** Enables the device mode Start Of Frame events. When enabled, this causes the
 170:../../protocol/lufa/LUFA-120730/LUFA/Drivers/USB/Core/AVR8/../AVR8/../AVR8/../AVR8/Device_AVR8.h **** 				 *  \ref EVENT_USB_Device_StartOfFrame() event to fire once per millisecond, synchronized to th
 171:../../protocol/lufa/LUFA-120730/LUFA/Drivers/USB/Core/AVR8/../AVR8/../AVR8/../AVR8/Device_AVR8.h **** 				 *  at the start of each USB frame when enumerated in device mode.
 172:../../protocol/lufa/LUFA-120730/LUFA/Drivers/USB/Core/AVR8/../AVR8/../AVR8/../AVR8/Device_AVR8.h **** 				 *
 173:../../protocol/lufa/LUFA-120730/LUFA/Drivers/USB/Core/AVR8/../AVR8/../AVR8/../AVR8/Device_AVR8.h **** 				 *  \note This function is not available when the \c NO_SOF_EVENTS compile time token is define
 174:../../protocol/lufa/LUFA-120730/LUFA/Drivers/USB/Core/AVR8/../AVR8/../AVR8/../AVR8/Device_AVR8.h **** 				 */
 175:../../protocol/lufa/LUFA-120730/LUFA/Drivers/USB/Core/AVR8/../AVR8/../AVR8/../AVR8/Device_AVR8.h **** 				static inline void USB_Device_EnableSOFEvents(void) ATTR_ALWAYS_INLINE;
 176:../../protocol/lufa/LUFA-120730/LUFA/Drivers/USB/Core/AVR8/../AVR8/../AVR8/../AVR8/Device_AVR8.h **** 				static inline void USB_Device_EnableSOFEvents(void)
 177:../../protocol/lufa/LUFA-120730/LUFA/Drivers/USB/Core/AVR8/../AVR8/../AVR8/../AVR8/Device_AVR8.h **** 				{
 178:../../protocol/lufa/LUFA-120730/LUFA/Drivers/USB/Core/AVR8/../AVR8/../AVR8/../AVR8/Device_AVR8.h **** 					USB_INT_Enable(USB_INT_SOFI);
 179:../../protocol/lufa/LUFA-120730/LUFA/Drivers/USB/Core/AVR8/../AVR8/../AVR8/../AVR8/Device_AVR8.h **** 				}
 180:../../protocol/lufa/LUFA-120730/LUFA/Drivers/USB/Core/AVR8/../AVR8/../AVR8/../AVR8/Device_AVR8.h **** 
 181:../../protocol/lufa/LUFA-120730/LUFA/Drivers/USB/Core/AVR8/../AVR8/../AVR8/../AVR8/Device_AVR8.h **** 				/** Disables the device mode Start Of Frame events. When disabled, this stops the firing of the
 182:../../protocol/lufa/LUFA-120730/LUFA/Drivers/USB/Core/AVR8/../AVR8/../AVR8/../AVR8/Device_AVR8.h **** 				 *  \ref EVENT_USB_Device_StartOfFrame() event when enumerated in device mode.
 183:../../protocol/lufa/LUFA-120730/LUFA/Drivers/USB/Core/AVR8/../AVR8/../AVR8/../AVR8/Device_AVR8.h **** 				 *
 184:../../protocol/lufa/LUFA-120730/LUFA/Drivers/USB/Core/AVR8/../AVR8/../AVR8/../AVR8/Device_AVR8.h **** 				 *  \note This function is not available when the \c NO_SOF_EVENTS compile time token is define
 185:../../protocol/lufa/LUFA-120730/LUFA/Drivers/USB/Core/AVR8/../AVR8/../AVR8/../AVR8/Device_AVR8.h **** 				 */
 186:../../protocol/lufa/LUFA-120730/LUFA/Drivers/USB/Core/AVR8/../AVR8/../AVR8/../AVR8/Device_AVR8.h **** 				static inline void USB_Device_DisableSOFEvents(void) ATTR_ALWAYS_INLINE;
 187:../../protocol/lufa/LUFA-120730/LUFA/Drivers/USB/Core/AVR8/../AVR8/../AVR8/../AVR8/Device_AVR8.h **** 				static inline void USB_Device_DisableSOFEvents(void)
 188:../../protocol/lufa/LUFA-120730/LUFA/Drivers/USB/Core/AVR8/../AVR8/../AVR8/../AVR8/Device_AVR8.h **** 				{
 189:../../protocol/lufa/LUFA-120730/LUFA/Drivers/USB/Core/AVR8/../AVR8/../AVR8/../AVR8/Device_AVR8.h **** 					USB_INT_Disable(USB_INT_SOFI);
 190:../../protocol/lufa/LUFA-120730/LUFA/Drivers/USB/Core/AVR8/../AVR8/../AVR8/../AVR8/Device_AVR8.h **** 				}
 191:../../protocol/lufa/LUFA-120730/LUFA/Drivers/USB/Core/AVR8/../AVR8/../AVR8/../AVR8/Device_AVR8.h **** 			#endif
 192:../../protocol/lufa/LUFA-120730/LUFA/Drivers/USB/Core/AVR8/../AVR8/../AVR8/../AVR8/Device_AVR8.h **** 
 193:../../protocol/lufa/LUFA-120730/LUFA/Drivers/USB/Core/AVR8/../AVR8/../AVR8/../AVR8/Device_AVR8.h **** 	/* Private Interface - For use in library only: */
 194:../../protocol/lufa/LUFA-120730/LUFA/Drivers/USB/Core/AVR8/../AVR8/../AVR8/../AVR8/Device_AVR8.h **** 	#if !defined(__DOXYGEN__)
 195:../../protocol/lufa/LUFA-120730/LUFA/Drivers/USB/Core/AVR8/../AVR8/../AVR8/../AVR8/Device_AVR8.h **** 		/* Inline Functions: */
 196:../../protocol/lufa/LUFA-120730/LUFA/Drivers/USB/Core/AVR8/../AVR8/../AVR8/../AVR8/Device_AVR8.h **** 			#if defined(USB_DEVICE_OPT_LOWSPEED)
 197:../../protocol/lufa/LUFA-120730/LUFA/Drivers/USB/Core/AVR8/../AVR8/../AVR8/../AVR8/Device_AVR8.h **** 			static inline void USB_Device_SetLowSpeed(void) ATTR_ALWAYS_INLINE;
 198:../../protocol/lufa/LUFA-120730/LUFA/Drivers/USB/Core/AVR8/../AVR8/../AVR8/../AVR8/Device_AVR8.h **** 			static inline void USB_Device_SetLowSpeed(void)
 199:../../protocol/lufa/LUFA-120730/LUFA/Drivers/USB/Core/AVR8/../AVR8/../AVR8/../AVR8/Device_AVR8.h **** 			{
 200:../../protocol/lufa/LUFA-120730/LUFA/Drivers/USB/Core/AVR8/../AVR8/../AVR8/../AVR8/Device_AVR8.h **** 				UDCON |=  (1 << LSM);
 201:../../protocol/lufa/LUFA-120730/LUFA/Drivers/USB/Core/AVR8/../AVR8/../AVR8/../AVR8/Device_AVR8.h **** 			}
 202:../../protocol/lufa/LUFA-120730/LUFA/Drivers/USB/Core/AVR8/../AVR8/../AVR8/../AVR8/Device_AVR8.h **** 
 203:../../protocol/lufa/LUFA-120730/LUFA/Drivers/USB/Core/AVR8/../AVR8/../AVR8/../AVR8/Device_AVR8.h **** 			static inline void USB_Device_SetFullSpeed(void) ATTR_ALWAYS_INLINE;
 204:../../protocol/lufa/LUFA-120730/LUFA/Drivers/USB/Core/AVR8/../AVR8/../AVR8/../AVR8/Device_AVR8.h **** 			static inline void USB_Device_SetFullSpeed(void)
 205:../../protocol/lufa/LUFA-120730/LUFA/Drivers/USB/Core/AVR8/../AVR8/../AVR8/../AVR8/Device_AVR8.h **** 			{
 206:../../protocol/lufa/LUFA-120730/LUFA/Drivers/USB/Core/AVR8/../AVR8/../AVR8/../AVR8/Device_AVR8.h **** 				UDCON &= ~(1 << LSM);
 207:../../protocol/lufa/LUFA-120730/LUFA/Drivers/USB/Core/AVR8/../AVR8/../AVR8/../AVR8/Device_AVR8.h **** 			}
 208:../../protocol/lufa/LUFA-120730/LUFA/Drivers/USB/Core/AVR8/../AVR8/../AVR8/../AVR8/Device_AVR8.h **** 			#endif
 209:../../protocol/lufa/LUFA-120730/LUFA/Drivers/USB/Core/AVR8/../AVR8/../AVR8/../AVR8/Device_AVR8.h **** 
 210:../../protocol/lufa/LUFA-120730/LUFA/Drivers/USB/Core/AVR8/../AVR8/../AVR8/../AVR8/Device_AVR8.h **** 			static inline void USB_Device_SetDeviceAddress(const uint8_t Address) ATTR_ALWAYS_INLINE;
 211:../../protocol/lufa/LUFA-120730/LUFA/Drivers/USB/Core/AVR8/../AVR8/../AVR8/../AVR8/Device_AVR8.h **** 			static inline void USB_Device_SetDeviceAddress(const uint8_t Address)
 212:../../protocol/lufa/LUFA-120730/LUFA/Drivers/USB/Core/AVR8/../AVR8/../AVR8/../AVR8/Device_AVR8.h **** 			{
 213:../../protocol/lufa/LUFA-120730/LUFA/Drivers/USB/Core/AVR8/../AVR8/../AVR8/../AVR8/Device_AVR8.h **** 				uint8_t Temp = (UDADDR & (1 << ADDEN)) | (Address & 0x7F);
 214:../../protocol/lufa/LUFA-120730/LUFA/Drivers/USB/Core/AVR8/../AVR8/../AVR8/../AVR8/Device_AVR8.h **** 
 215:../../protocol/lufa/LUFA-120730/LUFA/Drivers/USB/Core/AVR8/../AVR8/../AVR8/../AVR8/Device_AVR8.h **** 				UDADDR = Temp;
 216:../../protocol/lufa/LUFA-120730/LUFA/Drivers/USB/Core/AVR8/../AVR8/../AVR8/../AVR8/Device_AVR8.h **** 				UDADDR = Temp | (1 << ADDEN);
 217:../../protocol/lufa/LUFA-120730/LUFA/Drivers/USB/Core/AVR8/../AVR8/../AVR8/../AVR8/Device_AVR8.h **** 			}
 218:../../protocol/lufa/LUFA-120730/LUFA/Drivers/USB/Core/AVR8/../AVR8/../AVR8/../AVR8/Device_AVR8.h **** 
 219:../../protocol/lufa/LUFA-120730/LUFA/Drivers/USB/Core/AVR8/../AVR8/../AVR8/../AVR8/Device_AVR8.h **** 			static inline bool USB_Device_IsAddressSet(void) ATTR_ALWAYS_INLINE ATTR_WARN_UNUSED_RESULT;
 220:../../protocol/lufa/LUFA-120730/LUFA/Drivers/USB/Core/AVR8/../AVR8/../AVR8/../AVR8/Device_AVR8.h **** 			static inline bool USB_Device_IsAddressSet(void)
 221:../../protocol/lufa/LUFA-120730/LUFA/Drivers/USB/Core/AVR8/../AVR8/../AVR8/../AVR8/Device_AVR8.h **** 			{
 222:../../protocol/lufa/LUFA-120730/LUFA/Drivers/USB/Core/AVR8/../AVR8/../AVR8/../AVR8/Device_AVR8.h **** 				return (UDADDR & (1 << ADDEN));
 364               		.loc 4 222 0
 365 010e 8091 E300 		lds r24,227
 366               	.LBE135:
 367               	.LBE134:
 151:../../protocol/lufa/LUFA-120730/LUFA/Drivers/USB/Core/AVR8/USBInterrupt_AVR8.c **** 		  USB_DeviceState = DEVICE_STATE_Configured;
 152:../../protocol/lufa/LUFA-120730/LUFA/Drivers/USB/Core/AVR8/USBInterrupt_AVR8.c **** 		else
 153:../../protocol/lufa/LUFA-120730/LUFA/Drivers/USB/Core/AVR8/USBInterrupt_AVR8.c **** 		  USB_DeviceState = (USB_Device_IsAddressSet()) ? DEVICE_STATE_Configured : DEVICE_STATE_Powered;
 368               		.loc 1 153 0
 369 0112 87FF      		sbrs r24,7
 370 0114 00C0      		rjmp .L17
 371               	.L48:
 372 0116 84E0      		ldi r24,lo8(4)
 373 0118 00C0      		rjmp .L15
 374               	.L17:
 375 011a 81E0      		ldi r24,lo8(1)
 376               	.L15:
 377               		.loc 1 153 0 is_stmt 0 discriminator 3
 378 011c 8093 0000 		sts USB_DeviceState,r24
 154:../../protocol/lufa/LUFA-120730/LUFA/Drivers/USB/Core/AVR8/USBInterrupt_AVR8.c **** 
 155:../../protocol/lufa/LUFA-120730/LUFA/Drivers/USB/Core/AVR8/USBInterrupt_AVR8.c **** 		#if defined(USB_SERIES_2_AVR) && !defined(NO_LIMITED_CONTROLLER_CONNECT)
 156:../../protocol/lufa/LUFA-120730/LUFA/Drivers/USB/Core/AVR8/USBInterrupt_AVR8.c **** 		EVENT_USB_Device_Connect();
 157:../../protocol/lufa/LUFA-120730/LUFA/Drivers/USB/Core/AVR8/USBInterrupt_AVR8.c **** 		#else
 158:../../protocol/lufa/LUFA-120730/LUFA/Drivers/USB/Core/AVR8/USBInterrupt_AVR8.c **** 		EVENT_USB_Device_WakeUp();
 379               		.loc 1 158 0 is_stmt 1 discriminator 3
 380 0120 0E94 0000 		call EVENT_USB_Device_WakeUp
 381               	.LVL16:
 382               	.L10:
 383               	.LBB136:
 384               	.LBB137:
 326:../../protocol/lufa/LUFA-120730/LUFA/Drivers/USB/Core/AVR8/../AVR8/USBInterrupt_AVR8.h **** 						return (UDINT  & (1 << EORSTI));
 385               		.loc 2 326 0
 386 0124 8091 E100 		lds r24,225
 387               	.LBE137:
 388               	.LBE136:
 159:../../protocol/lufa/LUFA-120730/LUFA/Drivers/USB/Core/AVR8/USBInterrupt_AVR8.c **** 		#endif
 160:../../protocol/lufa/LUFA-120730/LUFA/Drivers/USB/Core/AVR8/USBInterrupt_AVR8.c **** 	}
 161:../../protocol/lufa/LUFA-120730/LUFA/Drivers/USB/Core/AVR8/USBInterrupt_AVR8.c **** 
 162:../../protocol/lufa/LUFA-120730/LUFA/Drivers/USB/Core/AVR8/USBInterrupt_AVR8.c **** 	if (USB_INT_HasOccurred(USB_INT_EORSTI) && USB_INT_IsEnabled(USB_INT_EORSTI))
 389               		.loc 1 162 0
 390 0128 83FF      		sbrs r24,3
 391 012a 00C0      		rjmp .L3
 392               	.LVL17:
 393               	.LBB138:
 394               	.LBB139:
 280:../../protocol/lufa/LUFA-120730/LUFA/Drivers/USB/Core/AVR8/../AVR8/USBInterrupt_AVR8.h **** 						return (UDIEN  & (1 << EORSTE));
 395               		.loc 2 280 0
 396 012c 8091 E200 		lds r24,226
 397               	.LBE139:
 398               	.LBE138:
 399               		.loc 1 162 0
 400 0130 83FF      		sbrs r24,3
 401 0132 00C0      		rjmp .L3
 402               	.LVL18:
 403               	.LBB140:
 404               	.LBB141:
 226:../../protocol/lufa/LUFA-120730/LUFA/Drivers/USB/Core/AVR8/../AVR8/USBInterrupt_AVR8.h **** 						UDINT  &= ~(1 << EORSTI);
 405               		.loc 2 226 0
 406 0134 8091 E100 		lds r24,225
 407 0138 877F      		andi r24,lo8(-9)
 408 013a 8093 E100 		sts 225,r24
 409               	.LBE141:
 410               	.LBE140:
 163:../../protocol/lufa/LUFA-120730/LUFA/Drivers/USB/Core/AVR8/USBInterrupt_AVR8.c **** 	{
 164:../../protocol/lufa/LUFA-120730/LUFA/Drivers/USB/Core/AVR8/USBInterrupt_AVR8.c **** 		USB_INT_Clear(USB_INT_EORSTI);
 165:../../protocol/lufa/LUFA-120730/LUFA/Drivers/USB/Core/AVR8/USBInterrupt_AVR8.c **** 
 166:../../protocol/lufa/LUFA-120730/LUFA/Drivers/USB/Core/AVR8/USBInterrupt_AVR8.c **** 		USB_DeviceState                = DEVICE_STATE_Default;
 411               		.loc 1 166 0
 412 013e 82E0      		ldi r24,lo8(2)
 413 0140 8093 0000 		sts USB_DeviceState,r24
 167:../../protocol/lufa/LUFA-120730/LUFA/Drivers/USB/Core/AVR8/USBInterrupt_AVR8.c **** 		USB_Device_ConfigurationNumber = 0;
 414               		.loc 1 167 0
 415 0144 1092 0000 		sts USB_Device_ConfigurationNumber,__zero_reg__
 416               	.LVL19:
 417               	.LBB142:
 418               	.LBB143:
 223:../../protocol/lufa/LUFA-120730/LUFA/Drivers/USB/Core/AVR8/../AVR8/USBInterrupt_AVR8.h **** 						UDINT  &= ~(1 << SUSPI);
 419               		.loc 2 223 0
 420 0148 8091 E100 		lds r24,225
 421 014c 8E7F      		andi r24,lo8(-2)
 422 014e 8093 E100 		sts 225,r24
 423               	.LVL20:
 424               	.LBE143:
 425               	.LBE142:
 426               	.LBB144:
 427               	.LBB145:
 165:../../protocol/lufa/LUFA-120730/LUFA/Drivers/USB/Core/AVR8/../AVR8/USBInterrupt_AVR8.h **** 						UDIEN  &= ~(1 << SUSPE);
 428               		.loc 2 165 0
 429 0152 8091 E200 		lds r24,226
 430 0156 8E7F      		andi r24,lo8(-2)
 431 0158 8093 E200 		sts 226,r24
 432               	.LVL21:
 433               	.LBE145:
 434               	.LBE144:
 435               	.LBB146:
 436               	.LBB147:
 104:../../protocol/lufa/LUFA-120730/LUFA/Drivers/USB/Core/AVR8/../AVR8/USBInterrupt_AVR8.h **** 						UDIEN  |= (1 << WAKEUPE);
 437               		.loc 2 104 0
 438 015c 8091 E200 		lds r24,226
 439 0160 8061      		ori r24,lo8(16)
 440 0162 8093 E200 		sts 226,r24
 441               	.LVL22:
 442               	.LBE147:
 443               	.LBE146:
 444               	.LBB148:
 445               	.LBB149:
 446               		.file 5 "../../protocol/lufa/LUFA-120730/LUFA/Drivers/USB/Core/AVR8/../AVR8/../AVR8/../AVR8/Endpoi
   1:../../protocol/lufa/LUFA-120730/LUFA/Drivers/USB/Core/AVR8/../AVR8/../AVR8/../AVR8/Endpoint_AVR8.h **** /*
   2:../../protocol/lufa/LUFA-120730/LUFA/Drivers/USB/Core/AVR8/../AVR8/../AVR8/../AVR8/Endpoint_AVR8.h ****              LUFA Library
   3:../../protocol/lufa/LUFA-120730/LUFA/Drivers/USB/Core/AVR8/../AVR8/../AVR8/../AVR8/Endpoint_AVR8.h ****      Copyright (C) Dean Camera, 2012.
   4:../../protocol/lufa/LUFA-120730/LUFA/Drivers/USB/Core/AVR8/../AVR8/../AVR8/../AVR8/Endpoint_AVR8.h **** 
   5:../../protocol/lufa/LUFA-120730/LUFA/Drivers/USB/Core/AVR8/../AVR8/../AVR8/../AVR8/Endpoint_AVR8.h ****   dean [at] fourwalledcubicle [dot] com
   6:../../protocol/lufa/LUFA-120730/LUFA/Drivers/USB/Core/AVR8/../AVR8/../AVR8/../AVR8/Endpoint_AVR8.h ****            www.lufa-lib.org
   7:../../protocol/lufa/LUFA-120730/LUFA/Drivers/USB/Core/AVR8/../AVR8/../AVR8/../AVR8/Endpoint_AVR8.h **** */
   8:../../protocol/lufa/LUFA-120730/LUFA/Drivers/USB/Core/AVR8/../AVR8/../AVR8/../AVR8/Endpoint_AVR8.h **** 
   9:../../protocol/lufa/LUFA-120730/LUFA/Drivers/USB/Core/AVR8/../AVR8/../AVR8/../AVR8/Endpoint_AVR8.h **** /*
  10:../../protocol/lufa/LUFA-120730/LUFA/Drivers/USB/Core/AVR8/../AVR8/../AVR8/../AVR8/Endpoint_AVR8.h ****   Copyright 2012  Dean Camera (dean [at] fourwalledcubicle [dot] com)
  11:../../protocol/lufa/LUFA-120730/LUFA/Drivers/USB/Core/AVR8/../AVR8/../AVR8/../AVR8/Endpoint_AVR8.h **** 
  12:../../protocol/lufa/LUFA-120730/LUFA/Drivers/USB/Core/AVR8/../AVR8/../AVR8/../AVR8/Endpoint_AVR8.h ****   Permission to use, copy, modify, distribute, and sell this
  13:../../protocol/lufa/LUFA-120730/LUFA/Drivers/USB/Core/AVR8/../AVR8/../AVR8/../AVR8/Endpoint_AVR8.h ****   software and its documentation for any purpose is hereby granted
  14:../../protocol/lufa/LUFA-120730/LUFA/Drivers/USB/Core/AVR8/../AVR8/../AVR8/../AVR8/Endpoint_AVR8.h ****   without fee, provided that the above copyright notice appear in
  15:../../protocol/lufa/LUFA-120730/LUFA/Drivers/USB/Core/AVR8/../AVR8/../AVR8/../AVR8/Endpoint_AVR8.h ****   all copies and that both that the copyright notice and this
  16:../../protocol/lufa/LUFA-120730/LUFA/Drivers/USB/Core/AVR8/../AVR8/../AVR8/../AVR8/Endpoint_AVR8.h ****   permission notice and warranty disclaimer appear in supporting
  17:../../protocol/lufa/LUFA-120730/LUFA/Drivers/USB/Core/AVR8/../AVR8/../AVR8/../AVR8/Endpoint_AVR8.h ****   documentation, and that the name of the author not be used in
  18:../../protocol/lufa/LUFA-120730/LUFA/Drivers/USB/Core/AVR8/../AVR8/../AVR8/../AVR8/Endpoint_AVR8.h ****   advertising or publicity pertaining to distribution of the
  19:../../protocol/lufa/LUFA-120730/LUFA/Drivers/USB/Core/AVR8/../AVR8/../AVR8/../AVR8/Endpoint_AVR8.h ****   software without specific, written prior permission.
  20:../../protocol/lufa/LUFA-120730/LUFA/Drivers/USB/Core/AVR8/../AVR8/../AVR8/../AVR8/Endpoint_AVR8.h **** 
  21:../../protocol/lufa/LUFA-120730/LUFA/Drivers/USB/Core/AVR8/../AVR8/../AVR8/../AVR8/Endpoint_AVR8.h ****   The author disclaim all warranties with regard to this
  22:../../protocol/lufa/LUFA-120730/LUFA/Drivers/USB/Core/AVR8/../AVR8/../AVR8/../AVR8/Endpoint_AVR8.h ****   software, including all implied warranties of merchantability
  23:../../protocol/lufa/LUFA-120730/LUFA/Drivers/USB/Core/AVR8/../AVR8/../AVR8/../AVR8/Endpoint_AVR8.h ****   and fitness.  In no event shall the author be liable for any
  24:../../protocol/lufa/LUFA-120730/LUFA/Drivers/USB/Core/AVR8/../AVR8/../AVR8/../AVR8/Endpoint_AVR8.h ****   special, indirect or consequential damages or any damages
  25:../../protocol/lufa/LUFA-120730/LUFA/Drivers/USB/Core/AVR8/../AVR8/../AVR8/../AVR8/Endpoint_AVR8.h ****   whatsoever resulting from loss of use, data or profits, whether
  26:../../protocol/lufa/LUFA-120730/LUFA/Drivers/USB/Core/AVR8/../AVR8/../AVR8/../AVR8/Endpoint_AVR8.h ****   in an action of contract, negligence or other tortious action,
  27:../../protocol/lufa/LUFA-120730/LUFA/Drivers/USB/Core/AVR8/../AVR8/../AVR8/../AVR8/Endpoint_AVR8.h ****   arising out of or in connection with the use or performance of
  28:../../protocol/lufa/LUFA-120730/LUFA/Drivers/USB/Core/AVR8/../AVR8/../AVR8/../AVR8/Endpoint_AVR8.h ****   this software.
  29:../../protocol/lufa/LUFA-120730/LUFA/Drivers/USB/Core/AVR8/../AVR8/../AVR8/../AVR8/Endpoint_AVR8.h **** */
  30:../../protocol/lufa/LUFA-120730/LUFA/Drivers/USB/Core/AVR8/../AVR8/../AVR8/../AVR8/Endpoint_AVR8.h **** 
  31:../../protocol/lufa/LUFA-120730/LUFA/Drivers/USB/Core/AVR8/../AVR8/../AVR8/../AVR8/Endpoint_AVR8.h **** /** \file
  32:../../protocol/lufa/LUFA-120730/LUFA/Drivers/USB/Core/AVR8/../AVR8/../AVR8/../AVR8/Endpoint_AVR8.h ****  *  \brief USB Endpoint definitions for the AVR8 microcontrollers.
  33:../../protocol/lufa/LUFA-120730/LUFA/Drivers/USB/Core/AVR8/../AVR8/../AVR8/../AVR8/Endpoint_AVR8.h ****  *  \copydetails Group_EndpointManagement_AVR8
  34:../../protocol/lufa/LUFA-120730/LUFA/Drivers/USB/Core/AVR8/../AVR8/../AVR8/../AVR8/Endpoint_AVR8.h ****  *
  35:../../protocol/lufa/LUFA-120730/LUFA/Drivers/USB/Core/AVR8/../AVR8/../AVR8/../AVR8/Endpoint_AVR8.h ****  *  \note This file should not be included directly. It is automatically included as needed by the 
  36:../../protocol/lufa/LUFA-120730/LUFA/Drivers/USB/Core/AVR8/../AVR8/../AVR8/../AVR8/Endpoint_AVR8.h ****  *        dispatch header located in LUFA/Drivers/USB/USB.h.
  37:../../protocol/lufa/LUFA-120730/LUFA/Drivers/USB/Core/AVR8/../AVR8/../AVR8/../AVR8/Endpoint_AVR8.h ****  */
  38:../../protocol/lufa/LUFA-120730/LUFA/Drivers/USB/Core/AVR8/../AVR8/../AVR8/../AVR8/Endpoint_AVR8.h **** 
  39:../../protocol/lufa/LUFA-120730/LUFA/Drivers/USB/Core/AVR8/../AVR8/../AVR8/../AVR8/Endpoint_AVR8.h **** /** \ingroup Group_EndpointRW
  40:../../protocol/lufa/LUFA-120730/LUFA/Drivers/USB/Core/AVR8/../AVR8/../AVR8/../AVR8/Endpoint_AVR8.h ****  *  \defgroup Group_EndpointRW_AVR8 Endpoint Data Reading and Writing (AVR8)
  41:../../protocol/lufa/LUFA-120730/LUFA/Drivers/USB/Core/AVR8/../AVR8/../AVR8/../AVR8/Endpoint_AVR8.h ****  *  \brief Endpoint data read/write definitions for the Atmel AVR8 architecture.
  42:../../protocol/lufa/LUFA-120730/LUFA/Drivers/USB/Core/AVR8/../AVR8/../AVR8/../AVR8/Endpoint_AVR8.h ****  *
  43:../../protocol/lufa/LUFA-120730/LUFA/Drivers/USB/Core/AVR8/../AVR8/../AVR8/../AVR8/Endpoint_AVR8.h ****  *  Functions, macros, variables, enums and types related to data reading and writing from and to e
  44:../../protocol/lufa/LUFA-120730/LUFA/Drivers/USB/Core/AVR8/../AVR8/../AVR8/../AVR8/Endpoint_AVR8.h ****  */
  45:../../protocol/lufa/LUFA-120730/LUFA/Drivers/USB/Core/AVR8/../AVR8/../AVR8/../AVR8/Endpoint_AVR8.h **** 
  46:../../protocol/lufa/LUFA-120730/LUFA/Drivers/USB/Core/AVR8/../AVR8/../AVR8/../AVR8/Endpoint_AVR8.h **** /** \ingroup Group_EndpointPrimitiveRW
  47:../../protocol/lufa/LUFA-120730/LUFA/Drivers/USB/Core/AVR8/../AVR8/../AVR8/../AVR8/Endpoint_AVR8.h ****  *  \defgroup Group_EndpointPrimitiveRW_AVR8 Read/Write of Primitive Data Types (AVR8)
  48:../../protocol/lufa/LUFA-120730/LUFA/Drivers/USB/Core/AVR8/../AVR8/../AVR8/../AVR8/Endpoint_AVR8.h ****  *  \brief Endpoint primitive read/write definitions for the Atmel AVR8 architecture.
  49:../../protocol/lufa/LUFA-120730/LUFA/Drivers/USB/Core/AVR8/../AVR8/../AVR8/../AVR8/Endpoint_AVR8.h ****  *
  50:../../protocol/lufa/LUFA-120730/LUFA/Drivers/USB/Core/AVR8/../AVR8/../AVR8/../AVR8/Endpoint_AVR8.h ****  *  Functions, macros, variables, enums and types related to data reading and writing of primitive 
  51:../../protocol/lufa/LUFA-120730/LUFA/Drivers/USB/Core/AVR8/../AVR8/../AVR8/../AVR8/Endpoint_AVR8.h ****  *  from and to endpoints.
  52:../../protocol/lufa/LUFA-120730/LUFA/Drivers/USB/Core/AVR8/../AVR8/../AVR8/../AVR8/Endpoint_AVR8.h ****  */
  53:../../protocol/lufa/LUFA-120730/LUFA/Drivers/USB/Core/AVR8/../AVR8/../AVR8/../AVR8/Endpoint_AVR8.h **** 
  54:../../protocol/lufa/LUFA-120730/LUFA/Drivers/USB/Core/AVR8/../AVR8/../AVR8/../AVR8/Endpoint_AVR8.h **** /** \ingroup Group_EndpointPacketManagement
  55:../../protocol/lufa/LUFA-120730/LUFA/Drivers/USB/Core/AVR8/../AVR8/../AVR8/../AVR8/Endpoint_AVR8.h ****  *  \defgroup Group_EndpointPacketManagement_AVR8 Endpoint Packet Management (AVR8)
  56:../../protocol/lufa/LUFA-120730/LUFA/Drivers/USB/Core/AVR8/../AVR8/../AVR8/../AVR8/Endpoint_AVR8.h ****  *  \brief Endpoint packet management definitions for the Atmel AVR8 architecture.
  57:../../protocol/lufa/LUFA-120730/LUFA/Drivers/USB/Core/AVR8/../AVR8/../AVR8/../AVR8/Endpoint_AVR8.h ****  *
  58:../../protocol/lufa/LUFA-120730/LUFA/Drivers/USB/Core/AVR8/../AVR8/../AVR8/../AVR8/Endpoint_AVR8.h ****  *  Functions, macros, variables, enums and types related to packet management of endpoints.
  59:../../protocol/lufa/LUFA-120730/LUFA/Drivers/USB/Core/AVR8/../AVR8/../AVR8/../AVR8/Endpoint_AVR8.h ****  */
  60:../../protocol/lufa/LUFA-120730/LUFA/Drivers/USB/Core/AVR8/../AVR8/../AVR8/../AVR8/Endpoint_AVR8.h **** 
  61:../../protocol/lufa/LUFA-120730/LUFA/Drivers/USB/Core/AVR8/../AVR8/../AVR8/../AVR8/Endpoint_AVR8.h **** /** \ingroup Group_EndpointManagement
  62:../../protocol/lufa/LUFA-120730/LUFA/Drivers/USB/Core/AVR8/../AVR8/../AVR8/../AVR8/Endpoint_AVR8.h ****  *  \defgroup Group_EndpointManagement_AVR8 Endpoint Management (AVR8)
  63:../../protocol/lufa/LUFA-120730/LUFA/Drivers/USB/Core/AVR8/../AVR8/../AVR8/../AVR8/Endpoint_AVR8.h ****  *  \brief Endpoint management definitions for the Atmel AVR8 architecture.
  64:../../protocol/lufa/LUFA-120730/LUFA/Drivers/USB/Core/AVR8/../AVR8/../AVR8/../AVR8/Endpoint_AVR8.h ****  *
  65:../../protocol/lufa/LUFA-120730/LUFA/Drivers/USB/Core/AVR8/../AVR8/../AVR8/../AVR8/Endpoint_AVR8.h ****  *  Functions, macros and enums related to endpoint management when in USB Device mode. This
  66:../../protocol/lufa/LUFA-120730/LUFA/Drivers/USB/Core/AVR8/../AVR8/../AVR8/../AVR8/Endpoint_AVR8.h ****  *  module contains the endpoint management macros, as well as endpoint interrupt and data
  67:../../protocol/lufa/LUFA-120730/LUFA/Drivers/USB/Core/AVR8/../AVR8/../AVR8/../AVR8/Endpoint_AVR8.h ****  *  send/receive functions for various data types.
  68:../../protocol/lufa/LUFA-120730/LUFA/Drivers/USB/Core/AVR8/../AVR8/../AVR8/../AVR8/Endpoint_AVR8.h ****  *
  69:../../protocol/lufa/LUFA-120730/LUFA/Drivers/USB/Core/AVR8/../AVR8/../AVR8/../AVR8/Endpoint_AVR8.h ****  *  @{
  70:../../protocol/lufa/LUFA-120730/LUFA/Drivers/USB/Core/AVR8/../AVR8/../AVR8/../AVR8/Endpoint_AVR8.h ****  */
  71:../../protocol/lufa/LUFA-120730/LUFA/Drivers/USB/Core/AVR8/../AVR8/../AVR8/../AVR8/Endpoint_AVR8.h **** 
  72:../../protocol/lufa/LUFA-120730/LUFA/Drivers/USB/Core/AVR8/../AVR8/../AVR8/../AVR8/Endpoint_AVR8.h **** #ifndef __ENDPOINT_AVR8_H__
  73:../../protocol/lufa/LUFA-120730/LUFA/Drivers/USB/Core/AVR8/../AVR8/../AVR8/../AVR8/Endpoint_AVR8.h **** #define __ENDPOINT_AVR8_H__
  74:../../protocol/lufa/LUFA-120730/LUFA/Drivers/USB/Core/AVR8/../AVR8/../AVR8/../AVR8/Endpoint_AVR8.h **** 
  75:../../protocol/lufa/LUFA-120730/LUFA/Drivers/USB/Core/AVR8/../AVR8/../AVR8/../AVR8/Endpoint_AVR8.h **** 	/* Includes: */
  76:../../protocol/lufa/LUFA-120730/LUFA/Drivers/USB/Core/AVR8/../AVR8/../AVR8/../AVR8/Endpoint_AVR8.h **** 		#include "../../../../Common/Common.h"
  77:../../protocol/lufa/LUFA-120730/LUFA/Drivers/USB/Core/AVR8/../AVR8/../AVR8/../AVR8/Endpoint_AVR8.h **** 		#include "../USBTask.h"
  78:../../protocol/lufa/LUFA-120730/LUFA/Drivers/USB/Core/AVR8/../AVR8/../AVR8/../AVR8/Endpoint_AVR8.h **** 		#include "../USBInterrupt.h"
  79:../../protocol/lufa/LUFA-120730/LUFA/Drivers/USB/Core/AVR8/../AVR8/../AVR8/../AVR8/Endpoint_AVR8.h **** 
  80:../../protocol/lufa/LUFA-120730/LUFA/Drivers/USB/Core/AVR8/../AVR8/../AVR8/../AVR8/Endpoint_AVR8.h **** 	/* Enable C linkage for C++ Compilers: */
  81:../../protocol/lufa/LUFA-120730/LUFA/Drivers/USB/Core/AVR8/../AVR8/../AVR8/../AVR8/Endpoint_AVR8.h **** 		#if defined(__cplusplus)
  82:../../protocol/lufa/LUFA-120730/LUFA/Drivers/USB/Core/AVR8/../AVR8/../AVR8/../AVR8/Endpoint_AVR8.h **** 			extern "C" {
  83:../../protocol/lufa/LUFA-120730/LUFA/Drivers/USB/Core/AVR8/../AVR8/../AVR8/../AVR8/Endpoint_AVR8.h **** 		#endif
  84:../../protocol/lufa/LUFA-120730/LUFA/Drivers/USB/Core/AVR8/../AVR8/../AVR8/../AVR8/Endpoint_AVR8.h **** 
  85:../../protocol/lufa/LUFA-120730/LUFA/Drivers/USB/Core/AVR8/../AVR8/../AVR8/../AVR8/Endpoint_AVR8.h **** 	/* Preprocessor Checks: */
  86:../../protocol/lufa/LUFA-120730/LUFA/Drivers/USB/Core/AVR8/../AVR8/../AVR8/../AVR8/Endpoint_AVR8.h **** 		#if !defined(__INCLUDE_FROM_USB_DRIVER)
  87:../../protocol/lufa/LUFA-120730/LUFA/Drivers/USB/Core/AVR8/../AVR8/../AVR8/../AVR8/Endpoint_AVR8.h **** 			#error Do not include this file directly. Include LUFA/Drivers/USB/USB.h instead.
  88:../../protocol/lufa/LUFA-120730/LUFA/Drivers/USB/Core/AVR8/../AVR8/../AVR8/../AVR8/Endpoint_AVR8.h **** 		#endif
  89:../../protocol/lufa/LUFA-120730/LUFA/Drivers/USB/Core/AVR8/../AVR8/../AVR8/../AVR8/Endpoint_AVR8.h **** 
  90:../../protocol/lufa/LUFA-120730/LUFA/Drivers/USB/Core/AVR8/../AVR8/../AVR8/../AVR8/Endpoint_AVR8.h **** 	/* Private Interface - For use in library only: */
  91:../../protocol/lufa/LUFA-120730/LUFA/Drivers/USB/Core/AVR8/../AVR8/../AVR8/../AVR8/Endpoint_AVR8.h **** 	#if !defined(__DOXYGEN__)
  92:../../protocol/lufa/LUFA-120730/LUFA/Drivers/USB/Core/AVR8/../AVR8/../AVR8/../AVR8/Endpoint_AVR8.h **** 		/* Inline Functions: */
  93:../../protocol/lufa/LUFA-120730/LUFA/Drivers/USB/Core/AVR8/../AVR8/../AVR8/../AVR8/Endpoint_AVR8.h **** 			static inline uint8_t Endpoint_BytesToEPSizeMask(const uint16_t Bytes) ATTR_WARN_UNUSED_RESULT A
  94:../../protocol/lufa/LUFA-120730/LUFA/Drivers/USB/Core/AVR8/../AVR8/../AVR8/../AVR8/Endpoint_AVR8.h **** 			                                                                       ATTR_ALWAYS_INLINE;
  95:../../protocol/lufa/LUFA-120730/LUFA/Drivers/USB/Core/AVR8/../AVR8/../AVR8/../AVR8/Endpoint_AVR8.h **** 			static inline uint8_t Endpoint_BytesToEPSizeMask(const uint16_t Bytes)
  96:../../protocol/lufa/LUFA-120730/LUFA/Drivers/USB/Core/AVR8/../AVR8/../AVR8/../AVR8/Endpoint_AVR8.h **** 			{
  97:../../protocol/lufa/LUFA-120730/LUFA/Drivers/USB/Core/AVR8/../AVR8/../AVR8/../AVR8/Endpoint_AVR8.h **** 				uint8_t  MaskVal    = 0;
  98:../../protocol/lufa/LUFA-120730/LUFA/Drivers/USB/Core/AVR8/../AVR8/../AVR8/../AVR8/Endpoint_AVR8.h **** 				uint16_t CheckBytes = 8;
  99:../../protocol/lufa/LUFA-120730/LUFA/Drivers/USB/Core/AVR8/../AVR8/../AVR8/../AVR8/Endpoint_AVR8.h **** 
 100:../../protocol/lufa/LUFA-120730/LUFA/Drivers/USB/Core/AVR8/../AVR8/../AVR8/../AVR8/Endpoint_AVR8.h **** 				while (CheckBytes < Bytes)
 101:../../protocol/lufa/LUFA-120730/LUFA/Drivers/USB/Core/AVR8/../AVR8/../AVR8/../AVR8/Endpoint_AVR8.h **** 				{
 102:../../protocol/lufa/LUFA-120730/LUFA/Drivers/USB/Core/AVR8/../AVR8/../AVR8/../AVR8/Endpoint_AVR8.h **** 					MaskVal++;
 103:../../protocol/lufa/LUFA-120730/LUFA/Drivers/USB/Core/AVR8/../AVR8/../AVR8/../AVR8/Endpoint_AVR8.h **** 					CheckBytes <<= 1;
 104:../../protocol/lufa/LUFA-120730/LUFA/Drivers/USB/Core/AVR8/../AVR8/../AVR8/../AVR8/Endpoint_AVR8.h **** 				}
 105:../../protocol/lufa/LUFA-120730/LUFA/Drivers/USB/Core/AVR8/../AVR8/../AVR8/../AVR8/Endpoint_AVR8.h **** 
 106:../../protocol/lufa/LUFA-120730/LUFA/Drivers/USB/Core/AVR8/../AVR8/../AVR8/../AVR8/Endpoint_AVR8.h **** 				return (MaskVal << EPSIZE0);
 107:../../protocol/lufa/LUFA-120730/LUFA/Drivers/USB/Core/AVR8/../AVR8/../AVR8/../AVR8/Endpoint_AVR8.h **** 			}
 108:../../protocol/lufa/LUFA-120730/LUFA/Drivers/USB/Core/AVR8/../AVR8/../AVR8/../AVR8/Endpoint_AVR8.h **** 
 109:../../protocol/lufa/LUFA-120730/LUFA/Drivers/USB/Core/AVR8/../AVR8/../AVR8/../AVR8/Endpoint_AVR8.h **** 		/* Function Prototypes: */
 110:../../protocol/lufa/LUFA-120730/LUFA/Drivers/USB/Core/AVR8/../AVR8/../AVR8/../AVR8/Endpoint_AVR8.h **** 			void Endpoint_ClearEndpoints(void);
 111:../../protocol/lufa/LUFA-120730/LUFA/Drivers/USB/Core/AVR8/../AVR8/../AVR8/../AVR8/Endpoint_AVR8.h **** 			bool Endpoint_ConfigureEndpoint_Prv(const uint8_t Number,
 112:../../protocol/lufa/LUFA-120730/LUFA/Drivers/USB/Core/AVR8/../AVR8/../AVR8/../AVR8/Endpoint_AVR8.h **** 			                                    const uint8_t UECFG0XData,
 113:../../protocol/lufa/LUFA-120730/LUFA/Drivers/USB/Core/AVR8/../AVR8/../AVR8/../AVR8/Endpoint_AVR8.h **** 			                                    const uint8_t UECFG1XData);
 114:../../protocol/lufa/LUFA-120730/LUFA/Drivers/USB/Core/AVR8/../AVR8/../AVR8/../AVR8/Endpoint_AVR8.h **** 
 115:../../protocol/lufa/LUFA-120730/LUFA/Drivers/USB/Core/AVR8/../AVR8/../AVR8/../AVR8/Endpoint_AVR8.h **** 	#endif
 116:../../protocol/lufa/LUFA-120730/LUFA/Drivers/USB/Core/AVR8/../AVR8/../AVR8/../AVR8/Endpoint_AVR8.h **** 
 117:../../protocol/lufa/LUFA-120730/LUFA/Drivers/USB/Core/AVR8/../AVR8/../AVR8/../AVR8/Endpoint_AVR8.h **** 	/* Public Interface - May be used in end-application: */
 118:../../protocol/lufa/LUFA-120730/LUFA/Drivers/USB/Core/AVR8/../AVR8/../AVR8/../AVR8/Endpoint_AVR8.h **** 		/* Macros: */
 119:../../protocol/lufa/LUFA-120730/LUFA/Drivers/USB/Core/AVR8/../AVR8/../AVR8/../AVR8/Endpoint_AVR8.h **** 			#if (!defined(FIXED_CONTROL_ENDPOINT_SIZE) || defined(__DOXYGEN__))
 120:../../protocol/lufa/LUFA-120730/LUFA/Drivers/USB/Core/AVR8/../AVR8/../AVR8/../AVR8/Endpoint_AVR8.h **** 				/** Default size of the default control endpoint's bank, until altered by the control endpoint 
 121:../../protocol/lufa/LUFA-120730/LUFA/Drivers/USB/Core/AVR8/../AVR8/../AVR8/../AVR8/Endpoint_AVR8.h **** 				 *  value in the device descriptor. Not available if the \c FIXED_CONTROL_ENDPOINT_SIZE token i
 122:../../protocol/lufa/LUFA-120730/LUFA/Drivers/USB/Core/AVR8/../AVR8/../AVR8/../AVR8/Endpoint_AVR8.h **** 				 */
 123:../../protocol/lufa/LUFA-120730/LUFA/Drivers/USB/Core/AVR8/../AVR8/../AVR8/../AVR8/Endpoint_AVR8.h **** 				#define ENDPOINT_CONTROLEP_DEFAULT_SIZE     8
 124:../../protocol/lufa/LUFA-120730/LUFA/Drivers/USB/Core/AVR8/../AVR8/../AVR8/../AVR8/Endpoint_AVR8.h **** 			#endif
 125:../../protocol/lufa/LUFA-120730/LUFA/Drivers/USB/Core/AVR8/../AVR8/../AVR8/../AVR8/Endpoint_AVR8.h **** 
 126:../../protocol/lufa/LUFA-120730/LUFA/Drivers/USB/Core/AVR8/../AVR8/../AVR8/../AVR8/Endpoint_AVR8.h **** 			#if !defined(CONTROL_ONLY_DEVICE) || defined(__DOXYGEN__)
 127:../../protocol/lufa/LUFA-120730/LUFA/Drivers/USB/Core/AVR8/../AVR8/../AVR8/../AVR8/Endpoint_AVR8.h **** 				#if defined(USB_SERIES_4_AVR) || defined(USB_SERIES_6_AVR) || defined(USB_SERIES_7_AVR)
 128:../../protocol/lufa/LUFA-120730/LUFA/Drivers/USB/Core/AVR8/../AVR8/../AVR8/../AVR8/Endpoint_AVR8.h **** 					#define ENDPOINT_TOTAL_ENDPOINTS        7
 129:../../protocol/lufa/LUFA-120730/LUFA/Drivers/USB/Core/AVR8/../AVR8/../AVR8/../AVR8/Endpoint_AVR8.h **** 				#else
 130:../../protocol/lufa/LUFA-120730/LUFA/Drivers/USB/Core/AVR8/../AVR8/../AVR8/../AVR8/Endpoint_AVR8.h **** 					/** Total number of endpoints (including the default control endpoint at address 0) which may
 131:../../protocol/lufa/LUFA-120730/LUFA/Drivers/USB/Core/AVR8/../AVR8/../AVR8/../AVR8/Endpoint_AVR8.h **** 					 *  be used in the device. Different USB AVR models support different amounts of endpoints,
 132:../../protocol/lufa/LUFA-120730/LUFA/Drivers/USB/Core/AVR8/../AVR8/../AVR8/../AVR8/Endpoint_AVR8.h **** 					 *  this value reflects the maximum number of endpoints for the currently selected AVR model.
 133:../../protocol/lufa/LUFA-120730/LUFA/Drivers/USB/Core/AVR8/../AVR8/../AVR8/../AVR8/Endpoint_AVR8.h **** 					 */
 134:../../protocol/lufa/LUFA-120730/LUFA/Drivers/USB/Core/AVR8/../AVR8/../AVR8/../AVR8/Endpoint_AVR8.h **** 					#define ENDPOINT_TOTAL_ENDPOINTS        5
 135:../../protocol/lufa/LUFA-120730/LUFA/Drivers/USB/Core/AVR8/../AVR8/../AVR8/../AVR8/Endpoint_AVR8.h **** 				#endif
 136:../../protocol/lufa/LUFA-120730/LUFA/Drivers/USB/Core/AVR8/../AVR8/../AVR8/../AVR8/Endpoint_AVR8.h **** 			#else
 137:../../protocol/lufa/LUFA-120730/LUFA/Drivers/USB/Core/AVR8/../AVR8/../AVR8/../AVR8/Endpoint_AVR8.h **** 				#define ENDPOINT_TOTAL_ENDPOINTS            1
 138:../../protocol/lufa/LUFA-120730/LUFA/Drivers/USB/Core/AVR8/../AVR8/../AVR8/../AVR8/Endpoint_AVR8.h **** 			#endif
 139:../../protocol/lufa/LUFA-120730/LUFA/Drivers/USB/Core/AVR8/../AVR8/../AVR8/../AVR8/Endpoint_AVR8.h **** 
 140:../../protocol/lufa/LUFA-120730/LUFA/Drivers/USB/Core/AVR8/../AVR8/../AVR8/../AVR8/Endpoint_AVR8.h **** 		/* Enums: */
 141:../../protocol/lufa/LUFA-120730/LUFA/Drivers/USB/Core/AVR8/../AVR8/../AVR8/../AVR8/Endpoint_AVR8.h **** 			/** Enum for the possible error return codes of the \ref Endpoint_WaitUntilReady() function.
 142:../../protocol/lufa/LUFA-120730/LUFA/Drivers/USB/Core/AVR8/../AVR8/../AVR8/../AVR8/Endpoint_AVR8.h **** 			 *
 143:../../protocol/lufa/LUFA-120730/LUFA/Drivers/USB/Core/AVR8/../AVR8/../AVR8/../AVR8/Endpoint_AVR8.h **** 			 *  \ingroup Group_EndpointRW_AVR8
 144:../../protocol/lufa/LUFA-120730/LUFA/Drivers/USB/Core/AVR8/../AVR8/../AVR8/../AVR8/Endpoint_AVR8.h **** 			 */
 145:../../protocol/lufa/LUFA-120730/LUFA/Drivers/USB/Core/AVR8/../AVR8/../AVR8/../AVR8/Endpoint_AVR8.h **** 			enum Endpoint_WaitUntilReady_ErrorCodes_t
 146:../../protocol/lufa/LUFA-120730/LUFA/Drivers/USB/Core/AVR8/../AVR8/../AVR8/../AVR8/Endpoint_AVR8.h **** 			{
 147:../../protocol/lufa/LUFA-120730/LUFA/Drivers/USB/Core/AVR8/../AVR8/../AVR8/../AVR8/Endpoint_AVR8.h **** 				ENDPOINT_READYWAIT_NoError                 = 0, /**< Endpoint is ready for next packet, no erro
 148:../../protocol/lufa/LUFA-120730/LUFA/Drivers/USB/Core/AVR8/../AVR8/../AVR8/../AVR8/Endpoint_AVR8.h **** 				ENDPOINT_READYWAIT_EndpointStalled         = 1, /**< The endpoint was stalled during the stream
 149:../../protocol/lufa/LUFA-120730/LUFA/Drivers/USB/Core/AVR8/../AVR8/../AVR8/../AVR8/Endpoint_AVR8.h **** 				                                                 *   transfer by the host or device.
 150:../../protocol/lufa/LUFA-120730/LUFA/Drivers/USB/Core/AVR8/../AVR8/../AVR8/../AVR8/Endpoint_AVR8.h **** 				                                                 */
 151:../../protocol/lufa/LUFA-120730/LUFA/Drivers/USB/Core/AVR8/../AVR8/../AVR8/../AVR8/Endpoint_AVR8.h **** 				ENDPOINT_READYWAIT_DeviceDisconnected      = 2,	/**< Device was disconnected from the host whil
 152:../../protocol/lufa/LUFA-120730/LUFA/Drivers/USB/Core/AVR8/../AVR8/../AVR8/../AVR8/Endpoint_AVR8.h **** 				                                                 *   waiting for the endpoint to become ready.
 153:../../protocol/lufa/LUFA-120730/LUFA/Drivers/USB/Core/AVR8/../AVR8/../AVR8/../AVR8/Endpoint_AVR8.h **** 				                                                 */
 154:../../protocol/lufa/LUFA-120730/LUFA/Drivers/USB/Core/AVR8/../AVR8/../AVR8/../AVR8/Endpoint_AVR8.h **** 				ENDPOINT_READYWAIT_BusSuspended            = 3, /**< The USB bus has been suspended by the host
 155:../../protocol/lufa/LUFA-120730/LUFA/Drivers/USB/Core/AVR8/../AVR8/../AVR8/../AVR8/Endpoint_AVR8.h **** 				                                                 *   no USB endpoint traffic can occur until th
 156:../../protocol/lufa/LUFA-120730/LUFA/Drivers/USB/Core/AVR8/../AVR8/../AVR8/../AVR8/Endpoint_AVR8.h **** 				                                                 *   has resumed.
 157:../../protocol/lufa/LUFA-120730/LUFA/Drivers/USB/Core/AVR8/../AVR8/../AVR8/../AVR8/Endpoint_AVR8.h **** 				                                                 */
 158:../../protocol/lufa/LUFA-120730/LUFA/Drivers/USB/Core/AVR8/../AVR8/../AVR8/../AVR8/Endpoint_AVR8.h **** 				ENDPOINT_READYWAIT_Timeout                 = 4, /**< The host failed to accept or send the next
 159:../../protocol/lufa/LUFA-120730/LUFA/Drivers/USB/Core/AVR8/../AVR8/../AVR8/../AVR8/Endpoint_AVR8.h **** 				                                                 *   within the software timeout period set by 
 160:../../protocol/lufa/LUFA-120730/LUFA/Drivers/USB/Core/AVR8/../AVR8/../AVR8/../AVR8/Endpoint_AVR8.h **** 				                                                 *   \ref USB_STREAM_TIMEOUT_MS macro.
 161:../../protocol/lufa/LUFA-120730/LUFA/Drivers/USB/Core/AVR8/../AVR8/../AVR8/../AVR8/Endpoint_AVR8.h **** 				                                                 */
 162:../../protocol/lufa/LUFA-120730/LUFA/Drivers/USB/Core/AVR8/../AVR8/../AVR8/../AVR8/Endpoint_AVR8.h **** 			};
 163:../../protocol/lufa/LUFA-120730/LUFA/Drivers/USB/Core/AVR8/../AVR8/../AVR8/../AVR8/Endpoint_AVR8.h **** 
 164:../../protocol/lufa/LUFA-120730/LUFA/Drivers/USB/Core/AVR8/../AVR8/../AVR8/../AVR8/Endpoint_AVR8.h **** 		/* Inline Functions: */
 165:../../protocol/lufa/LUFA-120730/LUFA/Drivers/USB/Core/AVR8/../AVR8/../AVR8/../AVR8/Endpoint_AVR8.h **** 			/** Configures the specified endpoint address with the given endpoint type, bank size and number
 166:../../protocol/lufa/LUFA-120730/LUFA/Drivers/USB/Core/AVR8/../AVR8/../AVR8/../AVR8/Endpoint_AVR8.h **** 			 *  banks. Once configured, the endpoint may be read from or written to, depending on its direct
 167:../../protocol/lufa/LUFA-120730/LUFA/Drivers/USB/Core/AVR8/../AVR8/../AVR8/../AVR8/Endpoint_AVR8.h **** 			 *
 168:../../protocol/lufa/LUFA-120730/LUFA/Drivers/USB/Core/AVR8/../AVR8/../AVR8/../AVR8/Endpoint_AVR8.h **** 			 *  \param[in] Address    Endpoint address to configure.
 169:../../protocol/lufa/LUFA-120730/LUFA/Drivers/USB/Core/AVR8/../AVR8/../AVR8/../AVR8/Endpoint_AVR8.h **** 			 *
 170:../../protocol/lufa/LUFA-120730/LUFA/Drivers/USB/Core/AVR8/../AVR8/../AVR8/../AVR8/Endpoint_AVR8.h **** 			 *  \param[in] Type       Type of endpoint to configure, a \c EP_TYPE_* mask. Not all endpoint t
 171:../../protocol/lufa/LUFA-120730/LUFA/Drivers/USB/Core/AVR8/../AVR8/../AVR8/../AVR8/Endpoint_AVR8.h **** 			 *                        are available on Low Speed USB devices - refer to the USB 2.0 specific
 172:../../protocol/lufa/LUFA-120730/LUFA/Drivers/USB/Core/AVR8/../AVR8/../AVR8/../AVR8/Endpoint_AVR8.h **** 			 *
 173:../../protocol/lufa/LUFA-120730/LUFA/Drivers/USB/Core/AVR8/../AVR8/../AVR8/../AVR8/Endpoint_AVR8.h **** 			 *  \param[in] Size       Size of the endpoint's bank, where packets are stored before they are 
 174:../../protocol/lufa/LUFA-120730/LUFA/Drivers/USB/Core/AVR8/../AVR8/../AVR8/../AVR8/Endpoint_AVR8.h **** 			 *                        to the USB host, or after they have been received from the USB host (d
 175:../../protocol/lufa/LUFA-120730/LUFA/Drivers/USB/Core/AVR8/../AVR8/../AVR8/../AVR8/Endpoint_AVR8.h **** 			 *                        the endpoint's data direction). The bank size must indicate the maximu
 176:../../protocol/lufa/LUFA-120730/LUFA/Drivers/USB/Core/AVR8/../AVR8/../AVR8/../AVR8/Endpoint_AVR8.h **** 			 *                        that the endpoint can handle.
 177:../../protocol/lufa/LUFA-120730/LUFA/Drivers/USB/Core/AVR8/../AVR8/../AVR8/../AVR8/Endpoint_AVR8.h **** 			 *
 178:../../protocol/lufa/LUFA-120730/LUFA/Drivers/USB/Core/AVR8/../AVR8/../AVR8/../AVR8/Endpoint_AVR8.h **** 			 *  \param[in] Banks      Number of banks to use for the endpoint being configured.
 179:../../protocol/lufa/LUFA-120730/LUFA/Drivers/USB/Core/AVR8/../AVR8/../AVR8/../AVR8/Endpoint_AVR8.h **** 			 *
 180:../../protocol/lufa/LUFA-120730/LUFA/Drivers/USB/Core/AVR8/../AVR8/../AVR8/../AVR8/Endpoint_AVR8.h **** 			 *  \attention When the \c ORDERED_EP_CONFIG compile time option is used, Endpoints <b>must</b> 
 181:../../protocol/lufa/LUFA-120730/LUFA/Drivers/USB/Core/AVR8/../AVR8/../AVR8/../AVR8/Endpoint_AVR8.h **** 			 *             ascending order, or bank corruption will occur.
 182:../../protocol/lufa/LUFA-120730/LUFA/Drivers/USB/Core/AVR8/../AVR8/../AVR8/../AVR8/Endpoint_AVR8.h **** 			 *
 183:../../protocol/lufa/LUFA-120730/LUFA/Drivers/USB/Core/AVR8/../AVR8/../AVR8/../AVR8/Endpoint_AVR8.h **** 			 *  \note Different endpoints may have different maximum packet sizes based on the endpoint's in
 184:../../protocol/lufa/LUFA-120730/LUFA/Drivers/USB/Core/AVR8/../AVR8/../AVR8/../AVR8/Endpoint_AVR8.h **** 			 *        refer to the chosen microcontroller model's datasheet to determine the maximum bank si
 185:../../protocol/lufa/LUFA-120730/LUFA/Drivers/USB/Core/AVR8/../AVR8/../AVR8/../AVR8/Endpoint_AVR8.h **** 			 *        \n\n
 186:../../protocol/lufa/LUFA-120730/LUFA/Drivers/USB/Core/AVR8/../AVR8/../AVR8/../AVR8/Endpoint_AVR8.h **** 			 *
 187:../../protocol/lufa/LUFA-120730/LUFA/Drivers/USB/Core/AVR8/../AVR8/../AVR8/../AVR8/Endpoint_AVR8.h **** 			 *  \note The default control endpoint should not be manually configured by the user application
 188:../../protocol/lufa/LUFA-120730/LUFA/Drivers/USB/Core/AVR8/../AVR8/../AVR8/../AVR8/Endpoint_AVR8.h **** 			 *        it is automatically configured by the library internally.
 189:../../protocol/lufa/LUFA-120730/LUFA/Drivers/USB/Core/AVR8/../AVR8/../AVR8/../AVR8/Endpoint_AVR8.h **** 			 *        \n\n
 190:../../protocol/lufa/LUFA-120730/LUFA/Drivers/USB/Core/AVR8/../AVR8/../AVR8/../AVR8/Endpoint_AVR8.h **** 			 *
 191:../../protocol/lufa/LUFA-120730/LUFA/Drivers/USB/Core/AVR8/../AVR8/../AVR8/../AVR8/Endpoint_AVR8.h **** 			 *  \note This routine will automatically select the specified endpoint upon success. Upon failu
 192:../../protocol/lufa/LUFA-120730/LUFA/Drivers/USB/Core/AVR8/../AVR8/../AVR8/../AVR8/Endpoint_AVR8.h **** 			 *        which failed to reconfigure correctly will be selected.
 193:../../protocol/lufa/LUFA-120730/LUFA/Drivers/USB/Core/AVR8/../AVR8/../AVR8/../AVR8/Endpoint_AVR8.h **** 			 *
 194:../../protocol/lufa/LUFA-120730/LUFA/Drivers/USB/Core/AVR8/../AVR8/../AVR8/../AVR8/Endpoint_AVR8.h **** 			 *  \return Boolean \c true if the configuration succeeded, \c false otherwise.
 195:../../protocol/lufa/LUFA-120730/LUFA/Drivers/USB/Core/AVR8/../AVR8/../AVR8/../AVR8/Endpoint_AVR8.h **** 			 */
 196:../../protocol/lufa/LUFA-120730/LUFA/Drivers/USB/Core/AVR8/../AVR8/../AVR8/../AVR8/Endpoint_AVR8.h **** 			static inline bool Endpoint_ConfigureEndpoint(const uint8_t Address,
 197:../../protocol/lufa/LUFA-120730/LUFA/Drivers/USB/Core/AVR8/../AVR8/../AVR8/../AVR8/Endpoint_AVR8.h **** 			                                              const uint8_t Type,
 198:../../protocol/lufa/LUFA-120730/LUFA/Drivers/USB/Core/AVR8/../AVR8/../AVR8/../AVR8/Endpoint_AVR8.h **** 			                                              const uint16_t Size,
 199:../../protocol/lufa/LUFA-120730/LUFA/Drivers/USB/Core/AVR8/../AVR8/../AVR8/../AVR8/Endpoint_AVR8.h **** 			                                              const uint8_t Banks) ATTR_ALWAYS_INLINE;
 200:../../protocol/lufa/LUFA-120730/LUFA/Drivers/USB/Core/AVR8/../AVR8/../AVR8/../AVR8/Endpoint_AVR8.h **** 			static inline bool Endpoint_ConfigureEndpoint(const uint8_t Address,
 201:../../protocol/lufa/LUFA-120730/LUFA/Drivers/USB/Core/AVR8/../AVR8/../AVR8/../AVR8/Endpoint_AVR8.h **** 			                                              const uint8_t Type,
 202:../../protocol/lufa/LUFA-120730/LUFA/Drivers/USB/Core/AVR8/../AVR8/../AVR8/../AVR8/Endpoint_AVR8.h **** 			                                              const uint16_t Size,
 203:../../protocol/lufa/LUFA-120730/LUFA/Drivers/USB/Core/AVR8/../AVR8/../AVR8/../AVR8/Endpoint_AVR8.h **** 			                                              const uint8_t Banks)
 204:../../protocol/lufa/LUFA-120730/LUFA/Drivers/USB/Core/AVR8/../AVR8/../AVR8/../AVR8/Endpoint_AVR8.h **** 			{
 205:../../protocol/lufa/LUFA-120730/LUFA/Drivers/USB/Core/AVR8/../AVR8/../AVR8/../AVR8/Endpoint_AVR8.h **** 				uint8_t Number = (Address & ENDPOINT_EPNUM_MASK);
 206:../../protocol/lufa/LUFA-120730/LUFA/Drivers/USB/Core/AVR8/../AVR8/../AVR8/../AVR8/Endpoint_AVR8.h **** 			
 207:../../protocol/lufa/LUFA-120730/LUFA/Drivers/USB/Core/AVR8/../AVR8/../AVR8/../AVR8/Endpoint_AVR8.h **** 				if (Number >= ENDPOINT_TOTAL_ENDPOINTS)
 208:../../protocol/lufa/LUFA-120730/LUFA/Drivers/USB/Core/AVR8/../AVR8/../AVR8/../AVR8/Endpoint_AVR8.h **** 				  return false;
 209:../../protocol/lufa/LUFA-120730/LUFA/Drivers/USB/Core/AVR8/../AVR8/../AVR8/../AVR8/Endpoint_AVR8.h **** 			
 210:../../protocol/lufa/LUFA-120730/LUFA/Drivers/USB/Core/AVR8/../AVR8/../AVR8/../AVR8/Endpoint_AVR8.h **** 				return Endpoint_ConfigureEndpoint_Prv(Number,
 447               		.loc 5 210 0
 448 0166 42E0      		ldi r20,lo8(2)
 449 0168 60E0      		ldi r22,0
 450 016a 80E0      		ldi r24,0
 451 016c 0E94 0000 		call Endpoint_ConfigureEndpoint_Prv
 452               	.LVL23:
 453               	.LBE149:
 454               	.LBE148:
 455               	.LBB150:
 456               	.LBB151:
 116:../../protocol/lufa/LUFA-120730/LUFA/Drivers/USB/Core/AVR8/../AVR8/USBInterrupt_AVR8.h **** 						UEIENX |= (1 << RXSTPE);
 457               		.loc 2 116 0
 458 0170 8091 F000 		lds r24,240
 459 0174 8860      		ori r24,lo8(8)
 460 0176 8093 F000 		sts 240,r24
 461               	.LBE151:
 462               	.LBE150:
 168:../../protocol/lufa/LUFA-120730/LUFA/Drivers/USB/Core/AVR8/USBInterrupt_AVR8.c **** 
 169:../../protocol/lufa/LUFA-120730/LUFA/Drivers/USB/Core/AVR8/USBInterrupt_AVR8.c **** 		USB_INT_Clear(USB_INT_SUSPI);
 170:../../protocol/lufa/LUFA-120730/LUFA/Drivers/USB/Core/AVR8/USBInterrupt_AVR8.c **** 		USB_INT_Disable(USB_INT_SUSPI);
 171:../../protocol/lufa/LUFA-120730/LUFA/Drivers/USB/Core/AVR8/USBInterrupt_AVR8.c **** 		USB_INT_Enable(USB_INT_WAKEUPI);
 172:../../protocol/lufa/LUFA-120730/LUFA/Drivers/USB/Core/AVR8/USBInterrupt_AVR8.c **** 
 173:../../protocol/lufa/LUFA-120730/LUFA/Drivers/USB/Core/AVR8/USBInterrupt_AVR8.c **** 		Endpoint_ConfigureEndpoint(ENDPOINT_CONTROLEP, EP_TYPE_CONTROL,
 174:../../protocol/lufa/LUFA-120730/LUFA/Drivers/USB/Core/AVR8/USBInterrupt_AVR8.c **** 		                           USB_Device_ControlEndpointSize, 1);
 175:../../protocol/lufa/LUFA-120730/LUFA/Drivers/USB/Core/AVR8/USBInterrupt_AVR8.c **** 
 176:../../protocol/lufa/LUFA-120730/LUFA/Drivers/USB/Core/AVR8/USBInterrupt_AVR8.c **** 		#if defined(INTERRUPT_CONTROL_ENDPOINT)
 177:../../protocol/lufa/LUFA-120730/LUFA/Drivers/USB/Core/AVR8/USBInterrupt_AVR8.c **** 		USB_INT_Enable(USB_INT_RXSTPI);
 178:../../protocol/lufa/LUFA-120730/LUFA/Drivers/USB/Core/AVR8/USBInterrupt_AVR8.c **** 		#endif
 179:../../protocol/lufa/LUFA-120730/LUFA/Drivers/USB/Core/AVR8/USBInterrupt_AVR8.c **** 
 180:../../protocol/lufa/LUFA-120730/LUFA/Drivers/USB/Core/AVR8/USBInterrupt_AVR8.c **** 		EVENT_USB_Device_Reset();
 463               		.loc 1 180 0
 464 017a 0E94 0000 		call EVENT_USB_Device_Reset
 465               	.LVL24:
 466               	.L3:
 467               	/* epilogue start */
 181:../../protocol/lufa/LUFA-120730/LUFA/Drivers/USB/Core/AVR8/USBInterrupt_AVR8.c **** 	}
 182:../../protocol/lufa/LUFA-120730/LUFA/Drivers/USB/Core/AVR8/USBInterrupt_AVR8.c **** 	#endif
 183:../../protocol/lufa/LUFA-120730/LUFA/Drivers/USB/Core/AVR8/USBInterrupt_AVR8.c **** 
 184:../../protocol/lufa/LUFA-120730/LUFA/Drivers/USB/Core/AVR8/USBInterrupt_AVR8.c **** 	#if defined(USB_CAN_BE_HOST)
 185:../../protocol/lufa/LUFA-120730/LUFA/Drivers/USB/Core/AVR8/USBInterrupt_AVR8.c **** 	#if !defined(NO_SOF_EVENTS)
 186:../../protocol/lufa/LUFA-120730/LUFA/Drivers/USB/Core/AVR8/USBInterrupt_AVR8.c **** 	if (USB_INT_HasOccurred(USB_INT_HSOFI) && USB_INT_IsEnabled(USB_INT_HSOFI))
 187:../../protocol/lufa/LUFA-120730/LUFA/Drivers/USB/Core/AVR8/USBInterrupt_AVR8.c **** 	{
 188:../../protocol/lufa/LUFA-120730/LUFA/Drivers/USB/Core/AVR8/USBInterrupt_AVR8.c **** 		USB_INT_Clear(USB_INT_HSOFI);
 189:../../protocol/lufa/LUFA-120730/LUFA/Drivers/USB/Core/AVR8/USBInterrupt_AVR8.c **** 
 190:../../protocol/lufa/LUFA-120730/LUFA/Drivers/USB/Core/AVR8/USBInterrupt_AVR8.c **** 		EVENT_USB_Host_StartOfFrame();
 191:../../protocol/lufa/LUFA-120730/LUFA/Drivers/USB/Core/AVR8/USBInterrupt_AVR8.c **** 	}
 192:../../protocol/lufa/LUFA-120730/LUFA/Drivers/USB/Core/AVR8/USBInterrupt_AVR8.c **** 	#endif
 193:../../protocol/lufa/LUFA-120730/LUFA/Drivers/USB/Core/AVR8/USBInterrupt_AVR8.c **** 
 194:../../protocol/lufa/LUFA-120730/LUFA/Drivers/USB/Core/AVR8/USBInterrupt_AVR8.c **** 	if (USB_INT_HasOccurred(USB_INT_DDISCI) && USB_INT_IsEnabled(USB_INT_DDISCI))
 195:../../protocol/lufa/LUFA-120730/LUFA/Drivers/USB/Core/AVR8/USBInterrupt_AVR8.c **** 	{
 196:../../protocol/lufa/LUFA-120730/LUFA/Drivers/USB/Core/AVR8/USBInterrupt_AVR8.c **** 		USB_INT_Clear(USB_INT_DDISCI);
 197:../../protocol/lufa/LUFA-120730/LUFA/Drivers/USB/Core/AVR8/USBInterrupt_AVR8.c **** 		USB_INT_Clear(USB_INT_DCONNI);
 198:../../protocol/lufa/LUFA-120730/LUFA/Drivers/USB/Core/AVR8/USBInterrupt_AVR8.c **** 		USB_INT_Disable(USB_INT_DDISCI);
 199:../../protocol/lufa/LUFA-120730/LUFA/Drivers/USB/Core/AVR8/USBInterrupt_AVR8.c **** 
 200:../../protocol/lufa/LUFA-120730/LUFA/Drivers/USB/Core/AVR8/USBInterrupt_AVR8.c **** 		EVENT_USB_Host_DeviceUnattached();
 201:../../protocol/lufa/LUFA-120730/LUFA/Drivers/USB/Core/AVR8/USBInterrupt_AVR8.c **** 
 202:../../protocol/lufa/LUFA-120730/LUFA/Drivers/USB/Core/AVR8/USBInterrupt_AVR8.c **** 		USB_ResetInterface();
 203:../../protocol/lufa/LUFA-120730/LUFA/Drivers/USB/Core/AVR8/USBInterrupt_AVR8.c **** 	}
 204:../../protocol/lufa/LUFA-120730/LUFA/Drivers/USB/Core/AVR8/USBInterrupt_AVR8.c **** 
 205:../../protocol/lufa/LUFA-120730/LUFA/Drivers/USB/Core/AVR8/USBInterrupt_AVR8.c **** 	if (USB_INT_HasOccurred(USB_INT_VBERRI) && USB_INT_IsEnabled(USB_INT_VBERRI))
 206:../../protocol/lufa/LUFA-120730/LUFA/Drivers/USB/Core/AVR8/USBInterrupt_AVR8.c **** 	{
 207:../../protocol/lufa/LUFA-120730/LUFA/Drivers/USB/Core/AVR8/USBInterrupt_AVR8.c **** 		USB_INT_Clear(USB_INT_VBERRI);
 208:../../protocol/lufa/LUFA-120730/LUFA/Drivers/USB/Core/AVR8/USBInterrupt_AVR8.c **** 
 209:../../protocol/lufa/LUFA-120730/LUFA/Drivers/USB/Core/AVR8/USBInterrupt_AVR8.c **** 		USB_Host_VBUS_Manual_Off();
 210:../../protocol/lufa/LUFA-120730/LUFA/Drivers/USB/Core/AVR8/USBInterrupt_AVR8.c **** 		USB_Host_VBUS_Auto_Off();
 211:../../protocol/lufa/LUFA-120730/LUFA/Drivers/USB/Core/AVR8/USBInterrupt_AVR8.c **** 
 212:../../protocol/lufa/LUFA-120730/LUFA/Drivers/USB/Core/AVR8/USBInterrupt_AVR8.c **** 		EVENT_USB_Host_HostError(HOST_ERROR_VBusVoltageDip);
 213:../../protocol/lufa/LUFA-120730/LUFA/Drivers/USB/Core/AVR8/USBInterrupt_AVR8.c **** 		EVENT_USB_Host_DeviceUnattached();
 214:../../protocol/lufa/LUFA-120730/LUFA/Drivers/USB/Core/AVR8/USBInterrupt_AVR8.c **** 
 215:../../protocol/lufa/LUFA-120730/LUFA/Drivers/USB/Core/AVR8/USBInterrupt_AVR8.c **** 		USB_HostState = HOST_STATE_Unattached;
 216:../../protocol/lufa/LUFA-120730/LUFA/Drivers/USB/Core/AVR8/USBInterrupt_AVR8.c **** 	}
 217:../../protocol/lufa/LUFA-120730/LUFA/Drivers/USB/Core/AVR8/USBInterrupt_AVR8.c **** 
 218:../../protocol/lufa/LUFA-120730/LUFA/Drivers/USB/Core/AVR8/USBInterrupt_AVR8.c **** 	if (USB_INT_HasOccurred(USB_INT_SRPI) && USB_INT_IsEnabled(USB_INT_SRPI))
 219:../../protocol/lufa/LUFA-120730/LUFA/Drivers/USB/Core/AVR8/USBInterrupt_AVR8.c **** 	{
 220:../../protocol/lufa/LUFA-120730/LUFA/Drivers/USB/Core/AVR8/USBInterrupt_AVR8.c **** 		USB_INT_Clear(USB_INT_SRPI);
 221:../../protocol/lufa/LUFA-120730/LUFA/Drivers/USB/Core/AVR8/USBInterrupt_AVR8.c **** 		USB_INT_Disable(USB_INT_SRPI);
 222:../../protocol/lufa/LUFA-120730/LUFA/Drivers/USB/Core/AVR8/USBInterrupt_AVR8.c **** 
 223:../../protocol/lufa/LUFA-120730/LUFA/Drivers/USB/Core/AVR8/USBInterrupt_AVR8.c **** 		EVENT_USB_Host_DeviceAttached();
 224:../../protocol/lufa/LUFA-120730/LUFA/Drivers/USB/Core/AVR8/USBInterrupt_AVR8.c **** 
 225:../../protocol/lufa/LUFA-120730/LUFA/Drivers/USB/Core/AVR8/USBInterrupt_AVR8.c **** 		USB_INT_Enable(USB_INT_DDISCI);
 226:../../protocol/lufa/LUFA-120730/LUFA/Drivers/USB/Core/AVR8/USBInterrupt_AVR8.c **** 
 227:../../protocol/lufa/LUFA-120730/LUFA/Drivers/USB/Core/AVR8/USBInterrupt_AVR8.c **** 		USB_HostState = HOST_STATE_Powered;
 228:../../protocol/lufa/LUFA-120730/LUFA/Drivers/USB/Core/AVR8/USBInterrupt_AVR8.c **** 	}
 229:../../protocol/lufa/LUFA-120730/LUFA/Drivers/USB/Core/AVR8/USBInterrupt_AVR8.c **** 
 230:../../protocol/lufa/LUFA-120730/LUFA/Drivers/USB/Core/AVR8/USBInterrupt_AVR8.c **** 	if (USB_INT_HasOccurred(USB_INT_BCERRI) && USB_INT_IsEnabled(USB_INT_BCERRI))
 231:../../protocol/lufa/LUFA-120730/LUFA/Drivers/USB/Core/AVR8/USBInterrupt_AVR8.c **** 	{
 232:../../protocol/lufa/LUFA-120730/LUFA/Drivers/USB/Core/AVR8/USBInterrupt_AVR8.c **** 		USB_INT_Clear(USB_INT_BCERRI);
 233:../../protocol/lufa/LUFA-120730/LUFA/Drivers/USB/Core/AVR8/USBInterrupt_AVR8.c **** 
 234:../../protocol/lufa/LUFA-120730/LUFA/Drivers/USB/Core/AVR8/USBInterrupt_AVR8.c **** 		EVENT_USB_Host_DeviceEnumerationFailed(HOST_ENUMERROR_NoDeviceDetected, 0);
 235:../../protocol/lufa/LUFA-120730/LUFA/Drivers/USB/Core/AVR8/USBInterrupt_AVR8.c **** 		EVENT_USB_Host_DeviceUnattached();
 236:../../protocol/lufa/LUFA-120730/LUFA/Drivers/USB/Core/AVR8/USBInterrupt_AVR8.c **** 
 237:../../protocol/lufa/LUFA-120730/LUFA/Drivers/USB/Core/AVR8/USBInterrupt_AVR8.c **** 		USB_ResetInterface();
 238:../../protocol/lufa/LUFA-120730/LUFA/Drivers/USB/Core/AVR8/USBInterrupt_AVR8.c **** 	}
 239:../../protocol/lufa/LUFA-120730/LUFA/Drivers/USB/Core/AVR8/USBInterrupt_AVR8.c **** 	#endif
 240:../../protocol/lufa/LUFA-120730/LUFA/Drivers/USB/Core/AVR8/USBInterrupt_AVR8.c **** 
 241:../../protocol/lufa/LUFA-120730/LUFA/Drivers/USB/Core/AVR8/USBInterrupt_AVR8.c **** 	#if defined(USB_CAN_BE_BOTH)
 242:../../protocol/lufa/LUFA-120730/LUFA/Drivers/USB/Core/AVR8/USBInterrupt_AVR8.c **** 	if (USB_INT_HasOccurred(USB_INT_IDTI) && USB_INT_IsEnabled(USB_INT_IDTI))
 243:../../protocol/lufa/LUFA-120730/LUFA/Drivers/USB/Core/AVR8/USBInterrupt_AVR8.c **** 	{
 244:../../protocol/lufa/LUFA-120730/LUFA/Drivers/USB/Core/AVR8/USBInterrupt_AVR8.c **** 		USB_INT_Clear(USB_INT_IDTI);
 245:../../protocol/lufa/LUFA-120730/LUFA/Drivers/USB/Core/AVR8/USBInterrupt_AVR8.c **** 
 246:../../protocol/lufa/LUFA-120730/LUFA/Drivers/USB/Core/AVR8/USBInterrupt_AVR8.c **** 		if (USB_DeviceState != DEVICE_STATE_Unattached)
 247:../../protocol/lufa/LUFA-120730/LUFA/Drivers/USB/Core/AVR8/USBInterrupt_AVR8.c **** 		  EVENT_USB_Device_Disconnect();
 248:../../protocol/lufa/LUFA-120730/LUFA/Drivers/USB/Core/AVR8/USBInterrupt_AVR8.c **** 
 249:../../protocol/lufa/LUFA-120730/LUFA/Drivers/USB/Core/AVR8/USBInterrupt_AVR8.c **** 		if (USB_HostState != HOST_STATE_Unattached)
 250:../../protocol/lufa/LUFA-120730/LUFA/Drivers/USB/Core/AVR8/USBInterrupt_AVR8.c **** 		  EVENT_USB_Host_DeviceUnattached();
 251:../../protocol/lufa/LUFA-120730/LUFA/Drivers/USB/Core/AVR8/USBInterrupt_AVR8.c **** 
 252:../../protocol/lufa/LUFA-120730/LUFA/Drivers/USB/Core/AVR8/USBInterrupt_AVR8.c **** 		USB_CurrentMode = USB_GetUSBModeFromUID();
 253:../../protocol/lufa/LUFA-120730/LUFA/Drivers/USB/Core/AVR8/USBInterrupt_AVR8.c **** 		USB_ResetInterface();
 254:../../protocol/lufa/LUFA-120730/LUFA/Drivers/USB/Core/AVR8/USBInterrupt_AVR8.c **** 
 255:../../protocol/lufa/LUFA-120730/LUFA/Drivers/USB/Core/AVR8/USBInterrupt_AVR8.c **** 		EVENT_USB_UIDChange();
 256:../../protocol/lufa/LUFA-120730/LUFA/Drivers/USB/Core/AVR8/USBInterrupt_AVR8.c **** 	}
 257:../../protocol/lufa/LUFA-120730/LUFA/Drivers/USB/Core/AVR8/USBInterrupt_AVR8.c **** 	#endif
 258:../../protocol/lufa/LUFA-120730/LUFA/Drivers/USB/Core/AVR8/USBInterrupt_AVR8.c **** }
 468               		.loc 1 258 0
 469 017e FF91      		pop r31
 470 0180 EF91      		pop r30
 471 0182 BF91      		pop r27
 472 0184 AF91      		pop r26
 473 0186 9F91      		pop r25
 474 0188 8F91      		pop r24
 475 018a 7F91      		pop r23
 476 018c 6F91      		pop r22
 477 018e 5F91      		pop r21
 478 0190 4F91      		pop r20
 479 0192 3F91      		pop r19
 480 0194 2F91      		pop r18
 481 0196 0F90      		pop r0
 482 0198 0FBE      		out __SREG__,r0
 483 019a 0F90      		pop r0
 484 019c 1F90      		pop r1
 485 019e 1895      		reti
 486               		.cfi_endproc
 487               	.LFE86:
 489               		.section	.text.__vector_11,"ax",@progbits
 490               	.global	__vector_11
 492               	__vector_11:
 493               	.LFB87:
 259:../../protocol/lufa/LUFA-120730/LUFA/Drivers/USB/Core/AVR8/USBInterrupt_AVR8.c **** 
 260:../../protocol/lufa/LUFA-120730/LUFA/Drivers/USB/Core/AVR8/USBInterrupt_AVR8.c **** #if defined(INTERRUPT_CONTROL_ENDPOINT) && defined(USB_CAN_BE_DEVICE)
 261:../../protocol/lufa/LUFA-120730/LUFA/Drivers/USB/Core/AVR8/USBInterrupt_AVR8.c **** ISR(USB_COM_vect, ISR_BLOCK)
 262:../../protocol/lufa/LUFA-120730/LUFA/Drivers/USB/Core/AVR8/USBInterrupt_AVR8.c **** {
 494               		.loc 1 262 0
 495               		.cfi_startproc
 496 0000 1F92      		push r1
 497               	.LCFI14:
 498               		.cfi_def_cfa_offset 3
 499               		.cfi_offset 1, -2
 500 0002 0F92      		push r0
 501               	.LCFI15:
 502               		.cfi_def_cfa_offset 4
 503               		.cfi_offset 0, -3
 504 0004 0FB6      		in r0,__SREG__
 505 0006 0F92      		push r0
 506 0008 1124      		clr __zero_reg__
 507 000a 2F93      		push r18
 508               	.LCFI16:
 509               		.cfi_def_cfa_offset 5
 510               		.cfi_offset 18, -4
 511 000c 3F93      		push r19
 512               	.LCFI17:
 513               		.cfi_def_cfa_offset 6
 514               		.cfi_offset 19, -5
 515 000e 4F93      		push r20
 516               	.LCFI18:
 517               		.cfi_def_cfa_offset 7
 518               		.cfi_offset 20, -6
 519 0010 5F93      		push r21
 520               	.LCFI19:
 521               		.cfi_def_cfa_offset 8
 522               		.cfi_offset 21, -7
 523 0012 6F93      		push r22
 524               	.LCFI20:
 525               		.cfi_def_cfa_offset 9
 526               		.cfi_offset 22, -8
 527 0014 7F93      		push r23
 528               	.LCFI21:
 529               		.cfi_def_cfa_offset 10
 530               		.cfi_offset 23, -9
 531 0016 8F93      		push r24
 532               	.LCFI22:
 533               		.cfi_def_cfa_offset 11
 534               		.cfi_offset 24, -10
 535 0018 9F93      		push r25
 536               	.LCFI23:
 537               		.cfi_def_cfa_offset 12
 538               		.cfi_offset 25, -11
 539 001a AF93      		push r26
 540               	.LCFI24:
 541               		.cfi_def_cfa_offset 13
 542               		.cfi_offset 26, -12
 543 001c BF93      		push r27
 544               	.LCFI25:
 545               		.cfi_def_cfa_offset 14
 546               		.cfi_offset 27, -13
 547 001e CF93      		push r28
 548               	.LCFI26:
 549               		.cfi_def_cfa_offset 15
 550               		.cfi_offset 28, -14
 551 0020 EF93      		push r30
 552               	.LCFI27:
 553               		.cfi_def_cfa_offset 16
 554               		.cfi_offset 30, -15
 555 0022 FF93      		push r31
 556               	.LCFI28:
 557               		.cfi_def_cfa_offset 17
 558               		.cfi_offset 31, -16
 559               	/* prologue: Signal */
 560               	/* frame size = 0 */
 561               	/* stack size = 16 */
 562               	.L__stack_usage = 16
 563               	.LBB152:
 564               	.LBB153:
 211:../../protocol/lufa/LUFA-120730/LUFA/Drivers/USB/Core/AVR8/../AVR8/../AVR8/../AVR8/Endpoint_AVR8.h **** 				                                      ((Type << EPTYPE0) | ((Address & ENDPOINT_DIR_IN) ? (1 <<
 212:../../protocol/lufa/LUFA-120730/LUFA/Drivers/USB/Core/AVR8/../AVR8/../AVR8/../AVR8/Endpoint_AVR8.h **** 				                                      ((1 << ALLOC) | ((Banks > 1) ? (1 << EPBK0) : 0) | Endpoi
 213:../../protocol/lufa/LUFA-120730/LUFA/Drivers/USB/Core/AVR8/../AVR8/../AVR8/../AVR8/Endpoint_AVR8.h **** 			}
 214:../../protocol/lufa/LUFA-120730/LUFA/Drivers/USB/Core/AVR8/../AVR8/../AVR8/../AVR8/Endpoint_AVR8.h **** 
 215:../../protocol/lufa/LUFA-120730/LUFA/Drivers/USB/Core/AVR8/../AVR8/../AVR8/../AVR8/Endpoint_AVR8.h **** 			/** Indicates the number of bytes currently stored in the current endpoint's selected bank.
 216:../../protocol/lufa/LUFA-120730/LUFA/Drivers/USB/Core/AVR8/../AVR8/../AVR8/../AVR8/Endpoint_AVR8.h **** 			 *
 217:../../protocol/lufa/LUFA-120730/LUFA/Drivers/USB/Core/AVR8/../AVR8/../AVR8/../AVR8/Endpoint_AVR8.h **** 			 *  \ingroup Group_EndpointRW_AVR8
 218:../../protocol/lufa/LUFA-120730/LUFA/Drivers/USB/Core/AVR8/../AVR8/../AVR8/../AVR8/Endpoint_AVR8.h **** 			 *
 219:../../protocol/lufa/LUFA-120730/LUFA/Drivers/USB/Core/AVR8/../AVR8/../AVR8/../AVR8/Endpoint_AVR8.h **** 			 *  \return Total number of bytes in the currently selected Endpoint's FIFO buffer.
 220:../../protocol/lufa/LUFA-120730/LUFA/Drivers/USB/Core/AVR8/../AVR8/../AVR8/../AVR8/Endpoint_AVR8.h **** 			 */
 221:../../protocol/lufa/LUFA-120730/LUFA/Drivers/USB/Core/AVR8/../AVR8/../AVR8/../AVR8/Endpoint_AVR8.h **** 			static inline uint16_t Endpoint_BytesInEndpoint(void) ATTR_WARN_UNUSED_RESULT ATTR_ALWAYS_INLINE
 222:../../protocol/lufa/LUFA-120730/LUFA/Drivers/USB/Core/AVR8/../AVR8/../AVR8/../AVR8/Endpoint_AVR8.h **** 			static inline uint16_t Endpoint_BytesInEndpoint(void)
 223:../../protocol/lufa/LUFA-120730/LUFA/Drivers/USB/Core/AVR8/../AVR8/../AVR8/../AVR8/Endpoint_AVR8.h **** 			{
 224:../../protocol/lufa/LUFA-120730/LUFA/Drivers/USB/Core/AVR8/../AVR8/../AVR8/../AVR8/Endpoint_AVR8.h **** 				#if (defined(USB_SERIES_6_AVR) || defined(USB_SERIES_7_AVR)) && !defined(__AVR_ATmega32U6__)
 225:../../protocol/lufa/LUFA-120730/LUFA/Drivers/USB/Core/AVR8/../AVR8/../AVR8/../AVR8/Endpoint_AVR8.h **** 					return UEBCX;
 226:../../protocol/lufa/LUFA-120730/LUFA/Drivers/USB/Core/AVR8/../AVR8/../AVR8/../AVR8/Endpoint_AVR8.h **** 				#elif defined(USB_SERIES_4_AVR) || defined(__AVR_ATmega32U6__)
 227:../../protocol/lufa/LUFA-120730/LUFA/Drivers/USB/Core/AVR8/../AVR8/../AVR8/../AVR8/Endpoint_AVR8.h **** 					return (((uint16_t)UEBCHX << 8) | UEBCLX);
 228:../../protocol/lufa/LUFA-120730/LUFA/Drivers/USB/Core/AVR8/../AVR8/../AVR8/../AVR8/Endpoint_AVR8.h **** 				#elif defined(USB_SERIES_2_AVR)
 229:../../protocol/lufa/LUFA-120730/LUFA/Drivers/USB/Core/AVR8/../AVR8/../AVR8/../AVR8/Endpoint_AVR8.h **** 					return UEBCLX;
 230:../../protocol/lufa/LUFA-120730/LUFA/Drivers/USB/Core/AVR8/../AVR8/../AVR8/../AVR8/Endpoint_AVR8.h **** 				#endif
 231:../../protocol/lufa/LUFA-120730/LUFA/Drivers/USB/Core/AVR8/../AVR8/../AVR8/../AVR8/Endpoint_AVR8.h **** 			}
 232:../../protocol/lufa/LUFA-120730/LUFA/Drivers/USB/Core/AVR8/../AVR8/../AVR8/../AVR8/Endpoint_AVR8.h **** 
 233:../../protocol/lufa/LUFA-120730/LUFA/Drivers/USB/Core/AVR8/../AVR8/../AVR8/../AVR8/Endpoint_AVR8.h **** 			/** Determines the currently selected endpoint's direction.
 234:../../protocol/lufa/LUFA-120730/LUFA/Drivers/USB/Core/AVR8/../AVR8/../AVR8/../AVR8/Endpoint_AVR8.h **** 			 *
 235:../../protocol/lufa/LUFA-120730/LUFA/Drivers/USB/Core/AVR8/../AVR8/../AVR8/../AVR8/Endpoint_AVR8.h **** 			 *  \return The currently selected endpoint's direction, as a \c ENDPOINT_DIR_* mask.
 236:../../protocol/lufa/LUFA-120730/LUFA/Drivers/USB/Core/AVR8/../AVR8/../AVR8/../AVR8/Endpoint_AVR8.h **** 			 */
 237:../../protocol/lufa/LUFA-120730/LUFA/Drivers/USB/Core/AVR8/../AVR8/../AVR8/../AVR8/Endpoint_AVR8.h **** 			static inline uint8_t Endpoint_GetEndpointDirection(void) ATTR_WARN_UNUSED_RESULT ATTR_ALWAYS_IN
 238:../../protocol/lufa/LUFA-120730/LUFA/Drivers/USB/Core/AVR8/../AVR8/../AVR8/../AVR8/Endpoint_AVR8.h **** 			static inline uint8_t Endpoint_GetEndpointDirection(void)
 239:../../protocol/lufa/LUFA-120730/LUFA/Drivers/USB/Core/AVR8/../AVR8/../AVR8/../AVR8/Endpoint_AVR8.h **** 			{
 240:../../protocol/lufa/LUFA-120730/LUFA/Drivers/USB/Core/AVR8/../AVR8/../AVR8/../AVR8/Endpoint_AVR8.h **** 				return (UECFG0X & (1 << EPDIR)) ? ENDPOINT_DIR_IN : ENDPOINT_DIR_OUT;
 241:../../protocol/lufa/LUFA-120730/LUFA/Drivers/USB/Core/AVR8/../AVR8/../AVR8/../AVR8/Endpoint_AVR8.h **** 			}
 242:../../protocol/lufa/LUFA-120730/LUFA/Drivers/USB/Core/AVR8/../AVR8/../AVR8/../AVR8/Endpoint_AVR8.h **** 
 243:../../protocol/lufa/LUFA-120730/LUFA/Drivers/USB/Core/AVR8/../AVR8/../AVR8/../AVR8/Endpoint_AVR8.h **** 			/** Get the endpoint address of the currently selected endpoint. This is typically used to save
 244:../../protocol/lufa/LUFA-120730/LUFA/Drivers/USB/Core/AVR8/../AVR8/../AVR8/../AVR8/Endpoint_AVR8.h **** 			 *  the currently selected endpoint so that it can be restored after another endpoint has been
 245:../../protocol/lufa/LUFA-120730/LUFA/Drivers/USB/Core/AVR8/../AVR8/../AVR8/../AVR8/Endpoint_AVR8.h **** 			 *  manipulated.
 246:../../protocol/lufa/LUFA-120730/LUFA/Drivers/USB/Core/AVR8/../AVR8/../AVR8/../AVR8/Endpoint_AVR8.h **** 			 *
 247:../../protocol/lufa/LUFA-120730/LUFA/Drivers/USB/Core/AVR8/../AVR8/../AVR8/../AVR8/Endpoint_AVR8.h **** 			 *  \return Index of the currently selected endpoint.
 248:../../protocol/lufa/LUFA-120730/LUFA/Drivers/USB/Core/AVR8/../AVR8/../AVR8/../AVR8/Endpoint_AVR8.h **** 			 */
 249:../../protocol/lufa/LUFA-120730/LUFA/Drivers/USB/Core/AVR8/../AVR8/../AVR8/../AVR8/Endpoint_AVR8.h **** 			static inline uint8_t Endpoint_GetCurrentEndpoint(void) ATTR_WARN_UNUSED_RESULT ATTR_ALWAYS_INLI
 250:../../protocol/lufa/LUFA-120730/LUFA/Drivers/USB/Core/AVR8/../AVR8/../AVR8/../AVR8/Endpoint_AVR8.h **** 			static inline uint8_t Endpoint_GetCurrentEndpoint(void)
 251:../../protocol/lufa/LUFA-120730/LUFA/Drivers/USB/Core/AVR8/../AVR8/../AVR8/../AVR8/Endpoint_AVR8.h **** 			{
 252:../../protocol/lufa/LUFA-120730/LUFA/Drivers/USB/Core/AVR8/../AVR8/../AVR8/../AVR8/Endpoint_AVR8.h **** 				#if !defined(CONTROL_ONLY_DEVICE)
 253:../../protocol/lufa/LUFA-120730/LUFA/Drivers/USB/Core/AVR8/../AVR8/../AVR8/../AVR8/Endpoint_AVR8.h **** 					return ((UENUM & ENDPOINT_EPNUM_MASK) | Endpoint_GetEndpointDirection());
 565               		.loc 5 253 0
 566 0024 C091 E900 		lds r28,233
 567 0028 CF70      		andi r28,lo8(15)
 568               	.LBB154:
 569               	.LBB155:
 240:../../protocol/lufa/LUFA-120730/LUFA/Drivers/USB/Core/AVR8/../AVR8/../AVR8/../AVR8/Endpoint_AVR8.h **** 				return (UECFG0X & (1 << EPDIR)) ? ENDPOINT_DIR_IN : ENDPOINT_DIR_OUT;
 570               		.loc 5 240 0
 571 002a 8091 EC00 		lds r24,236
 572               	.LVL25:
 573               	.LBE155:
 574               	.LBE154:
 575               	.LBE153:
 576               	.LBE152:
 577               	.LBB156:
 578               	.LBB157:
 254:../../protocol/lufa/LUFA-120730/LUFA/Drivers/USB/Core/AVR8/../AVR8/../AVR8/../AVR8/Endpoint_AVR8.h **** 				#else
 255:../../protocol/lufa/LUFA-120730/LUFA/Drivers/USB/Core/AVR8/../AVR8/../AVR8/../AVR8/Endpoint_AVR8.h **** 					return ENDPOINT_CONTROLEP;
 256:../../protocol/lufa/LUFA-120730/LUFA/Drivers/USB/Core/AVR8/../AVR8/../AVR8/../AVR8/Endpoint_AVR8.h **** 				#endif
 257:../../protocol/lufa/LUFA-120730/LUFA/Drivers/USB/Core/AVR8/../AVR8/../AVR8/../AVR8/Endpoint_AVR8.h **** 			}
 258:../../protocol/lufa/LUFA-120730/LUFA/Drivers/USB/Core/AVR8/../AVR8/../AVR8/../AVR8/Endpoint_AVR8.h **** 
 259:../../protocol/lufa/LUFA-120730/LUFA/Drivers/USB/Core/AVR8/../AVR8/../AVR8/../AVR8/Endpoint_AVR8.h **** 			/** Selects the given endpoint address.
 260:../../protocol/lufa/LUFA-120730/LUFA/Drivers/USB/Core/AVR8/../AVR8/../AVR8/../AVR8/Endpoint_AVR8.h **** 			 *
 261:../../protocol/lufa/LUFA-120730/LUFA/Drivers/USB/Core/AVR8/../AVR8/../AVR8/../AVR8/Endpoint_AVR8.h **** 			 *  Any endpoint operations which do not require the endpoint address to be indicated will opera
 262:../../protocol/lufa/LUFA-120730/LUFA/Drivers/USB/Core/AVR8/../AVR8/../AVR8/../AVR8/Endpoint_AVR8.h **** 			 *  the currently selected endpoint.
 263:../../protocol/lufa/LUFA-120730/LUFA/Drivers/USB/Core/AVR8/../AVR8/../AVR8/../AVR8/Endpoint_AVR8.h **** 			 *
 264:../../protocol/lufa/LUFA-120730/LUFA/Drivers/USB/Core/AVR8/../AVR8/../AVR8/../AVR8/Endpoint_AVR8.h **** 			 *  \param[in] Address Endpoint address to select.
 265:../../protocol/lufa/LUFA-120730/LUFA/Drivers/USB/Core/AVR8/../AVR8/../AVR8/../AVR8/Endpoint_AVR8.h **** 			 */
 266:../../protocol/lufa/LUFA-120730/LUFA/Drivers/USB/Core/AVR8/../AVR8/../AVR8/../AVR8/Endpoint_AVR8.h **** 			static inline void Endpoint_SelectEndpoint(const uint8_t Address) ATTR_ALWAYS_INLINE;
 267:../../protocol/lufa/LUFA-120730/LUFA/Drivers/USB/Core/AVR8/../AVR8/../AVR8/../AVR8/Endpoint_AVR8.h **** 			static inline void Endpoint_SelectEndpoint(const uint8_t Address)
 268:../../protocol/lufa/LUFA-120730/LUFA/Drivers/USB/Core/AVR8/../AVR8/../AVR8/../AVR8/Endpoint_AVR8.h **** 			{
 269:../../protocol/lufa/LUFA-120730/LUFA/Drivers/USB/Core/AVR8/../AVR8/../AVR8/../AVR8/Endpoint_AVR8.h **** 				#if !defined(CONTROL_ONLY_DEVICE)
 270:../../protocol/lufa/LUFA-120730/LUFA/Drivers/USB/Core/AVR8/../AVR8/../AVR8/../AVR8/Endpoint_AVR8.h **** 					UENUM = (Address & ENDPOINT_EPNUM_MASK);
 579               		.loc 5 270 0
 580 002e 1092 E900 		sts 233,__zero_reg__
 581               	.LVL26:
 582               	.LBE157:
 583               	.LBE156:
 584               	.LBB158:
 585               	.LBB159:
 174:../../protocol/lufa/LUFA-120730/LUFA/Drivers/USB/Core/AVR8/../AVR8/USBInterrupt_AVR8.h **** 						UEIENX &= ~(1 << RXSTPE);
 586               		.loc 2 174 0
 587 0032 8091 F000 		lds r24,240
 588 0036 877F      		andi r24,lo8(-9)
 589 0038 8093 F000 		sts 240,r24
 590               	.LBE159:
 591               	.LBE158:
 592               	.LBB160:
 593               	.LBB161:
 594               		.file 6 "../../protocol/lufa/LUFA-120730/LUFA/Drivers/USB/Core/AVR8/../../../../Common/Common.h"
   1:../../protocol/lufa/LUFA-120730/LUFA/Drivers/USB/Core/AVR8/../../../../Common/Common.h **** /*
   2:../../protocol/lufa/LUFA-120730/LUFA/Drivers/USB/Core/AVR8/../../../../Common/Common.h ****              LUFA Library
   3:../../protocol/lufa/LUFA-120730/LUFA/Drivers/USB/Core/AVR8/../../../../Common/Common.h ****      Copyright (C) Dean Camera, 2012.
   4:../../protocol/lufa/LUFA-120730/LUFA/Drivers/USB/Core/AVR8/../../../../Common/Common.h **** 
   5:../../protocol/lufa/LUFA-120730/LUFA/Drivers/USB/Core/AVR8/../../../../Common/Common.h ****   dean [at] fourwalledcubicle [dot] com
   6:../../protocol/lufa/LUFA-120730/LUFA/Drivers/USB/Core/AVR8/../../../../Common/Common.h ****            www.lufa-lib.org
   7:../../protocol/lufa/LUFA-120730/LUFA/Drivers/USB/Core/AVR8/../../../../Common/Common.h **** */
   8:../../protocol/lufa/LUFA-120730/LUFA/Drivers/USB/Core/AVR8/../../../../Common/Common.h **** 
   9:../../protocol/lufa/LUFA-120730/LUFA/Drivers/USB/Core/AVR8/../../../../Common/Common.h **** /*
  10:../../protocol/lufa/LUFA-120730/LUFA/Drivers/USB/Core/AVR8/../../../../Common/Common.h ****   Copyright 2012  Dean Camera (dean [at] fourwalledcubicle [dot] com)
  11:../../protocol/lufa/LUFA-120730/LUFA/Drivers/USB/Core/AVR8/../../../../Common/Common.h **** 
  12:../../protocol/lufa/LUFA-120730/LUFA/Drivers/USB/Core/AVR8/../../../../Common/Common.h ****   Permission to use, copy, modify, distribute, and sell this
  13:../../protocol/lufa/LUFA-120730/LUFA/Drivers/USB/Core/AVR8/../../../../Common/Common.h ****   software and its documentation for any purpose is hereby granted
  14:../../protocol/lufa/LUFA-120730/LUFA/Drivers/USB/Core/AVR8/../../../../Common/Common.h ****   without fee, provided that the above copyright notice appear in
  15:../../protocol/lufa/LUFA-120730/LUFA/Drivers/USB/Core/AVR8/../../../../Common/Common.h ****   all copies and that both that the copyright notice and this
  16:../../protocol/lufa/LUFA-120730/LUFA/Drivers/USB/Core/AVR8/../../../../Common/Common.h ****   permission notice and warranty disclaimer appear in supporting
  17:../../protocol/lufa/LUFA-120730/LUFA/Drivers/USB/Core/AVR8/../../../../Common/Common.h ****   documentation, and that the name of the author not be used in
  18:../../protocol/lufa/LUFA-120730/LUFA/Drivers/USB/Core/AVR8/../../../../Common/Common.h ****   advertising or publicity pertaining to distribution of the
  19:../../protocol/lufa/LUFA-120730/LUFA/Drivers/USB/Core/AVR8/../../../../Common/Common.h ****   software without specific, written prior permission.
  20:../../protocol/lufa/LUFA-120730/LUFA/Drivers/USB/Core/AVR8/../../../../Common/Common.h **** 
  21:../../protocol/lufa/LUFA-120730/LUFA/Drivers/USB/Core/AVR8/../../../../Common/Common.h ****   The author disclaim all warranties with regard to this
  22:../../protocol/lufa/LUFA-120730/LUFA/Drivers/USB/Core/AVR8/../../../../Common/Common.h ****   software, including all implied warranties of merchantability
  23:../../protocol/lufa/LUFA-120730/LUFA/Drivers/USB/Core/AVR8/../../../../Common/Common.h ****   and fitness.  In no event shall the author be liable for any
  24:../../protocol/lufa/LUFA-120730/LUFA/Drivers/USB/Core/AVR8/../../../../Common/Common.h ****   special, indirect or consequential damages or any damages
  25:../../protocol/lufa/LUFA-120730/LUFA/Drivers/USB/Core/AVR8/../../../../Common/Common.h ****   whatsoever resulting from loss of use, data or profits, whether
  26:../../protocol/lufa/LUFA-120730/LUFA/Drivers/USB/Core/AVR8/../../../../Common/Common.h ****   in an action of contract, negligence or other tortious action,
  27:../../protocol/lufa/LUFA-120730/LUFA/Drivers/USB/Core/AVR8/../../../../Common/Common.h ****   arising out of or in connection with the use or performance of
  28:../../protocol/lufa/LUFA-120730/LUFA/Drivers/USB/Core/AVR8/../../../../Common/Common.h ****   this software.
  29:../../protocol/lufa/LUFA-120730/LUFA/Drivers/USB/Core/AVR8/../../../../Common/Common.h **** */
  30:../../protocol/lufa/LUFA-120730/LUFA/Drivers/USB/Core/AVR8/../../../../Common/Common.h **** 
  31:../../protocol/lufa/LUFA-120730/LUFA/Drivers/USB/Core/AVR8/../../../../Common/Common.h **** /** \dir
  32:../../protocol/lufa/LUFA-120730/LUFA/Drivers/USB/Core/AVR8/../../../../Common/Common.h ****  *  \brief Common library header files.
  33:../../protocol/lufa/LUFA-120730/LUFA/Drivers/USB/Core/AVR8/../../../../Common/Common.h ****  *
  34:../../protocol/lufa/LUFA-120730/LUFA/Drivers/USB/Core/AVR8/../../../../Common/Common.h ****  *  This folder contains header files which are common to all parts of the LUFA library. They may b
  35:../../protocol/lufa/LUFA-120730/LUFA/Drivers/USB/Core/AVR8/../../../../Common/Common.h ****  *  user applications.
  36:../../protocol/lufa/LUFA-120730/LUFA/Drivers/USB/Core/AVR8/../../../../Common/Common.h ****  */
  37:../../protocol/lufa/LUFA-120730/LUFA/Drivers/USB/Core/AVR8/../../../../Common/Common.h **** 
  38:../../protocol/lufa/LUFA-120730/LUFA/Drivers/USB/Core/AVR8/../../../../Common/Common.h **** /** \file
  39:../../protocol/lufa/LUFA-120730/LUFA/Drivers/USB/Core/AVR8/../../../../Common/Common.h ****  *  \brief Common library convenience headers, macros and functions.
  40:../../protocol/lufa/LUFA-120730/LUFA/Drivers/USB/Core/AVR8/../../../../Common/Common.h ****  *
  41:../../protocol/lufa/LUFA-120730/LUFA/Drivers/USB/Core/AVR8/../../../../Common/Common.h ****  *  \copydetails Group_Common
  42:../../protocol/lufa/LUFA-120730/LUFA/Drivers/USB/Core/AVR8/../../../../Common/Common.h ****  */
  43:../../protocol/lufa/LUFA-120730/LUFA/Drivers/USB/Core/AVR8/../../../../Common/Common.h **** 
  44:../../protocol/lufa/LUFA-120730/LUFA/Drivers/USB/Core/AVR8/../../../../Common/Common.h **** /** \defgroup Group_Common Common Utility Headers - LUFA/Drivers/Common/Common.h
  45:../../protocol/lufa/LUFA-120730/LUFA/Drivers/USB/Core/AVR8/../../../../Common/Common.h ****  *  \brief Common library convenience headers, macros and functions.
  46:../../protocol/lufa/LUFA-120730/LUFA/Drivers/USB/Core/AVR8/../../../../Common/Common.h ****  *
  47:../../protocol/lufa/LUFA-120730/LUFA/Drivers/USB/Core/AVR8/../../../../Common/Common.h ****  *  Common utility headers containing macros, functions, enums and types which are common to all
  48:../../protocol/lufa/LUFA-120730/LUFA/Drivers/USB/Core/AVR8/../../../../Common/Common.h ****  *  aspects of the library.
  49:../../protocol/lufa/LUFA-120730/LUFA/Drivers/USB/Core/AVR8/../../../../Common/Common.h ****  *
  50:../../protocol/lufa/LUFA-120730/LUFA/Drivers/USB/Core/AVR8/../../../../Common/Common.h ****  *  @{
  51:../../protocol/lufa/LUFA-120730/LUFA/Drivers/USB/Core/AVR8/../../../../Common/Common.h ****  */
  52:../../protocol/lufa/LUFA-120730/LUFA/Drivers/USB/Core/AVR8/../../../../Common/Common.h **** 
  53:../../protocol/lufa/LUFA-120730/LUFA/Drivers/USB/Core/AVR8/../../../../Common/Common.h **** /** \defgroup Group_GlobalInt Global Interrupt Macros
  54:../../protocol/lufa/LUFA-120730/LUFA/Drivers/USB/Core/AVR8/../../../../Common/Common.h ****  *  \brief Convenience macros for the management of interrupts globally within the device.
  55:../../protocol/lufa/LUFA-120730/LUFA/Drivers/USB/Core/AVR8/../../../../Common/Common.h ****  *
  56:../../protocol/lufa/LUFA-120730/LUFA/Drivers/USB/Core/AVR8/../../../../Common/Common.h ****  *  Macros and functions to create and control global interrupts within the device.
  57:../../protocol/lufa/LUFA-120730/LUFA/Drivers/USB/Core/AVR8/../../../../Common/Common.h ****  */
  58:../../protocol/lufa/LUFA-120730/LUFA/Drivers/USB/Core/AVR8/../../../../Common/Common.h **** 
  59:../../protocol/lufa/LUFA-120730/LUFA/Drivers/USB/Core/AVR8/../../../../Common/Common.h **** #ifndef __LUFA_COMMON_H__
  60:../../protocol/lufa/LUFA-120730/LUFA/Drivers/USB/Core/AVR8/../../../../Common/Common.h **** #define __LUFA_COMMON_H__
  61:../../protocol/lufa/LUFA-120730/LUFA/Drivers/USB/Core/AVR8/../../../../Common/Common.h **** 
  62:../../protocol/lufa/LUFA-120730/LUFA/Drivers/USB/Core/AVR8/../../../../Common/Common.h **** 	/* Macros: */
  63:../../protocol/lufa/LUFA-120730/LUFA/Drivers/USB/Core/AVR8/../../../../Common/Common.h **** 		#define __INCLUDE_FROM_COMMON_H
  64:../../protocol/lufa/LUFA-120730/LUFA/Drivers/USB/Core/AVR8/../../../../Common/Common.h **** 
  65:../../protocol/lufa/LUFA-120730/LUFA/Drivers/USB/Core/AVR8/../../../../Common/Common.h **** 	/* Includes: */
  66:../../protocol/lufa/LUFA-120730/LUFA/Drivers/USB/Core/AVR8/../../../../Common/Common.h **** 		#include <stdint.h>
  67:../../protocol/lufa/LUFA-120730/LUFA/Drivers/USB/Core/AVR8/../../../../Common/Common.h **** 		#include <stdbool.h>
  68:../../protocol/lufa/LUFA-120730/LUFA/Drivers/USB/Core/AVR8/../../../../Common/Common.h **** 		#include <string.h>
  69:../../protocol/lufa/LUFA-120730/LUFA/Drivers/USB/Core/AVR8/../../../../Common/Common.h **** 		#include <stddef.h>
  70:../../protocol/lufa/LUFA-120730/LUFA/Drivers/USB/Core/AVR8/../../../../Common/Common.h **** 
  71:../../protocol/lufa/LUFA-120730/LUFA/Drivers/USB/Core/AVR8/../../../../Common/Common.h **** 		#include "Architectures.h"
  72:../../protocol/lufa/LUFA-120730/LUFA/Drivers/USB/Core/AVR8/../../../../Common/Common.h **** 		#include "BoardTypes.h"
  73:../../protocol/lufa/LUFA-120730/LUFA/Drivers/USB/Core/AVR8/../../../../Common/Common.h **** 		#include "ArchitectureSpecific.h"
  74:../../protocol/lufa/LUFA-120730/LUFA/Drivers/USB/Core/AVR8/../../../../Common/Common.h **** 		#include "CompilerSpecific.h"
  75:../../protocol/lufa/LUFA-120730/LUFA/Drivers/USB/Core/AVR8/../../../../Common/Common.h **** 		#include "Attributes.h"
  76:../../protocol/lufa/LUFA-120730/LUFA/Drivers/USB/Core/AVR8/../../../../Common/Common.h **** 
  77:../../protocol/lufa/LUFA-120730/LUFA/Drivers/USB/Core/AVR8/../../../../Common/Common.h **** 		#if defined(USE_LUFA_CONFIG_HEADER)
  78:../../protocol/lufa/LUFA-120730/LUFA/Drivers/USB/Core/AVR8/../../../../Common/Common.h **** 			#include "LUFAConfig.h"
  79:../../protocol/lufa/LUFA-120730/LUFA/Drivers/USB/Core/AVR8/../../../../Common/Common.h **** 		#endif
  80:../../protocol/lufa/LUFA-120730/LUFA/Drivers/USB/Core/AVR8/../../../../Common/Common.h **** 
  81:../../protocol/lufa/LUFA-120730/LUFA/Drivers/USB/Core/AVR8/../../../../Common/Common.h **** 	/* Enable C linkage for C++ Compilers: */
  82:../../protocol/lufa/LUFA-120730/LUFA/Drivers/USB/Core/AVR8/../../../../Common/Common.h **** 		#if defined(__cplusplus)
  83:../../protocol/lufa/LUFA-120730/LUFA/Drivers/USB/Core/AVR8/../../../../Common/Common.h **** 			extern "C" {
  84:../../protocol/lufa/LUFA-120730/LUFA/Drivers/USB/Core/AVR8/../../../../Common/Common.h **** 		#endif
  85:../../protocol/lufa/LUFA-120730/LUFA/Drivers/USB/Core/AVR8/../../../../Common/Common.h **** 
  86:../../protocol/lufa/LUFA-120730/LUFA/Drivers/USB/Core/AVR8/../../../../Common/Common.h **** 	/* Architecture specific utility includes: */
  87:../../protocol/lufa/LUFA-120730/LUFA/Drivers/USB/Core/AVR8/../../../../Common/Common.h **** 		#if defined(__DOXYGEN__)
  88:../../protocol/lufa/LUFA-120730/LUFA/Drivers/USB/Core/AVR8/../../../../Common/Common.h **** 			/** Type define for an unsigned integer the same width as the selected architecture's machine re
  89:../../protocol/lufa/LUFA-120730/LUFA/Drivers/USB/Core/AVR8/../../../../Common/Common.h **** 			 *  This is distinct from the non-specific standard int data type, whose width is machine depend
  90:../../protocol/lufa/LUFA-120730/LUFA/Drivers/USB/Core/AVR8/../../../../Common/Common.h **** 			 *  which may not reflect the actual machine register width on some targets (e.g. AVR8).
  91:../../protocol/lufa/LUFA-120730/LUFA/Drivers/USB/Core/AVR8/../../../../Common/Common.h **** 			 */
  92:../../protocol/lufa/LUFA-120730/LUFA/Drivers/USB/Core/AVR8/../../../../Common/Common.h **** 			typedef MACHINE_REG_t uint_reg_t;
  93:../../protocol/lufa/LUFA-120730/LUFA/Drivers/USB/Core/AVR8/../../../../Common/Common.h **** 		#elif (ARCH == ARCH_AVR8)
  94:../../protocol/lufa/LUFA-120730/LUFA/Drivers/USB/Core/AVR8/../../../../Common/Common.h **** 			#include <avr/io.h>
  95:../../protocol/lufa/LUFA-120730/LUFA/Drivers/USB/Core/AVR8/../../../../Common/Common.h **** 			#include <avr/interrupt.h>
  96:../../protocol/lufa/LUFA-120730/LUFA/Drivers/USB/Core/AVR8/../../../../Common/Common.h **** 			#include <avr/pgmspace.h>
  97:../../protocol/lufa/LUFA-120730/LUFA/Drivers/USB/Core/AVR8/../../../../Common/Common.h **** 			#include <avr/eeprom.h>
  98:../../protocol/lufa/LUFA-120730/LUFA/Drivers/USB/Core/AVR8/../../../../Common/Common.h **** 			#include <avr/boot.h>
  99:../../protocol/lufa/LUFA-120730/LUFA/Drivers/USB/Core/AVR8/../../../../Common/Common.h **** 			#include <math.h>
 100:../../protocol/lufa/LUFA-120730/LUFA/Drivers/USB/Core/AVR8/../../../../Common/Common.h **** 			#include <util/delay.h>
 101:../../protocol/lufa/LUFA-120730/LUFA/Drivers/USB/Core/AVR8/../../../../Common/Common.h **** 
 102:../../protocol/lufa/LUFA-120730/LUFA/Drivers/USB/Core/AVR8/../../../../Common/Common.h **** 			typedef uint8_t uint_reg_t;
 103:../../protocol/lufa/LUFA-120730/LUFA/Drivers/USB/Core/AVR8/../../../../Common/Common.h **** 
 104:../../protocol/lufa/LUFA-120730/LUFA/Drivers/USB/Core/AVR8/../../../../Common/Common.h **** 			#define ARCH_HAS_EEPROM_ADDRESS_SPACE
 105:../../protocol/lufa/LUFA-120730/LUFA/Drivers/USB/Core/AVR8/../../../../Common/Common.h **** 			#define ARCH_HAS_FLASH_ADDRESS_SPACE
 106:../../protocol/lufa/LUFA-120730/LUFA/Drivers/USB/Core/AVR8/../../../../Common/Common.h **** 			#define ARCH_HAS_MULTI_ADDRESS_SPACE
 107:../../protocol/lufa/LUFA-120730/LUFA/Drivers/USB/Core/AVR8/../../../../Common/Common.h **** 			#define ARCH_LITTLE_ENDIAN
 108:../../protocol/lufa/LUFA-120730/LUFA/Drivers/USB/Core/AVR8/../../../../Common/Common.h **** 
 109:../../protocol/lufa/LUFA-120730/LUFA/Drivers/USB/Core/AVR8/../../../../Common/Common.h **** 			#include "Endianness.h"
 110:../../protocol/lufa/LUFA-120730/LUFA/Drivers/USB/Core/AVR8/../../../../Common/Common.h **** 		#elif (ARCH == ARCH_UC3)
 111:../../protocol/lufa/LUFA-120730/LUFA/Drivers/USB/Core/AVR8/../../../../Common/Common.h **** 			#include <avr32/io.h>
 112:../../protocol/lufa/LUFA-120730/LUFA/Drivers/USB/Core/AVR8/../../../../Common/Common.h **** 			#include <math.h>
 113:../../protocol/lufa/LUFA-120730/LUFA/Drivers/USB/Core/AVR8/../../../../Common/Common.h **** 
 114:../../protocol/lufa/LUFA-120730/LUFA/Drivers/USB/Core/AVR8/../../../../Common/Common.h **** 			// === TODO: Find abstracted way to handle these ===
 115:../../protocol/lufa/LUFA-120730/LUFA/Drivers/USB/Core/AVR8/../../../../Common/Common.h **** 			#define PROGMEM                  
 116:../../protocol/lufa/LUFA-120730/LUFA/Drivers/USB/Core/AVR8/../../../../Common/Common.h **** 			#define pgm_read_byte(x)         *x
 117:../../protocol/lufa/LUFA-120730/LUFA/Drivers/USB/Core/AVR8/../../../../Common/Common.h **** 			#define memcmp_P(...)            memcmp(__VA_ARGS__)
 118:../../protocol/lufa/LUFA-120730/LUFA/Drivers/USB/Core/AVR8/../../../../Common/Common.h **** 			#define memcpy_P(...)            memcpy(__VA_ARGS__)
 119:../../protocol/lufa/LUFA-120730/LUFA/Drivers/USB/Core/AVR8/../../../../Common/Common.h **** 			// =================================================
 120:../../protocol/lufa/LUFA-120730/LUFA/Drivers/USB/Core/AVR8/../../../../Common/Common.h **** 
 121:../../protocol/lufa/LUFA-120730/LUFA/Drivers/USB/Core/AVR8/../../../../Common/Common.h **** 			typedef uint32_t uint_reg_t;
 122:../../protocol/lufa/LUFA-120730/LUFA/Drivers/USB/Core/AVR8/../../../../Common/Common.h **** 
 123:../../protocol/lufa/LUFA-120730/LUFA/Drivers/USB/Core/AVR8/../../../../Common/Common.h **** 			#define ARCH_BIG_ENDIAN
 124:../../protocol/lufa/LUFA-120730/LUFA/Drivers/USB/Core/AVR8/../../../../Common/Common.h **** 
 125:../../protocol/lufa/LUFA-120730/LUFA/Drivers/USB/Core/AVR8/../../../../Common/Common.h **** 			#include "Endianness.h"
 126:../../protocol/lufa/LUFA-120730/LUFA/Drivers/USB/Core/AVR8/../../../../Common/Common.h **** 		#elif (ARCH == ARCH_XMEGA)
 127:../../protocol/lufa/LUFA-120730/LUFA/Drivers/USB/Core/AVR8/../../../../Common/Common.h **** 			#include <avr/io.h>
 128:../../protocol/lufa/LUFA-120730/LUFA/Drivers/USB/Core/AVR8/../../../../Common/Common.h **** 			#include <avr/interrupt.h>
 129:../../protocol/lufa/LUFA-120730/LUFA/Drivers/USB/Core/AVR8/../../../../Common/Common.h **** 			#include <avr/pgmspace.h>
 130:../../protocol/lufa/LUFA-120730/LUFA/Drivers/USB/Core/AVR8/../../../../Common/Common.h **** 			#include <avr/eeprom.h>
 131:../../protocol/lufa/LUFA-120730/LUFA/Drivers/USB/Core/AVR8/../../../../Common/Common.h **** 			#include <math.h>
 132:../../protocol/lufa/LUFA-120730/LUFA/Drivers/USB/Core/AVR8/../../../../Common/Common.h **** 			#include <util/delay.h>
 133:../../protocol/lufa/LUFA-120730/LUFA/Drivers/USB/Core/AVR8/../../../../Common/Common.h **** 
 134:../../protocol/lufa/LUFA-120730/LUFA/Drivers/USB/Core/AVR8/../../../../Common/Common.h **** 			typedef uint8_t uint_reg_t;
 135:../../protocol/lufa/LUFA-120730/LUFA/Drivers/USB/Core/AVR8/../../../../Common/Common.h **** 
 136:../../protocol/lufa/LUFA-120730/LUFA/Drivers/USB/Core/AVR8/../../../../Common/Common.h **** 			#define ARCH_HAS_EEPROM_ADDRESS_SPACE
 137:../../protocol/lufa/LUFA-120730/LUFA/Drivers/USB/Core/AVR8/../../../../Common/Common.h **** 			#define ARCH_HAS_FLASH_ADDRESS_SPACE
 138:../../protocol/lufa/LUFA-120730/LUFA/Drivers/USB/Core/AVR8/../../../../Common/Common.h **** 			#define ARCH_HAS_MULTI_ADDRESS_SPACE
 139:../../protocol/lufa/LUFA-120730/LUFA/Drivers/USB/Core/AVR8/../../../../Common/Common.h **** 			#define ARCH_LITTLE_ENDIAN
 140:../../protocol/lufa/LUFA-120730/LUFA/Drivers/USB/Core/AVR8/../../../../Common/Common.h **** 
 141:../../protocol/lufa/LUFA-120730/LUFA/Drivers/USB/Core/AVR8/../../../../Common/Common.h **** 			#include "Endianness.h"
 142:../../protocol/lufa/LUFA-120730/LUFA/Drivers/USB/Core/AVR8/../../../../Common/Common.h **** 		#else
 143:../../protocol/lufa/LUFA-120730/LUFA/Drivers/USB/Core/AVR8/../../../../Common/Common.h **** 			#error Unknown device architecture specified.
 144:../../protocol/lufa/LUFA-120730/LUFA/Drivers/USB/Core/AVR8/../../../../Common/Common.h **** 		#endif
 145:../../protocol/lufa/LUFA-120730/LUFA/Drivers/USB/Core/AVR8/../../../../Common/Common.h **** 
 146:../../protocol/lufa/LUFA-120730/LUFA/Drivers/USB/Core/AVR8/../../../../Common/Common.h **** 	/* Public Interface - May be used in end-application: */
 147:../../protocol/lufa/LUFA-120730/LUFA/Drivers/USB/Core/AVR8/../../../../Common/Common.h **** 		/* Macros: */
 148:../../protocol/lufa/LUFA-120730/LUFA/Drivers/USB/Core/AVR8/../../../../Common/Common.h **** 			/** Macro for encasing other multi-statement macros. This should be used along with an opening b
 149:../../protocol/lufa/LUFA-120730/LUFA/Drivers/USB/Core/AVR8/../../../../Common/Common.h **** 			 *  before the start of any multi-statement macro, so that the macros contents as a whole are tr
 150:../../protocol/lufa/LUFA-120730/LUFA/Drivers/USB/Core/AVR8/../../../../Common/Common.h **** 			 *  as a discrete block and not as a list of separate statements which may cause problems when u
 151:../../protocol/lufa/LUFA-120730/LUFA/Drivers/USB/Core/AVR8/../../../../Common/Common.h **** 			 *  a block (such as inline \c if statements).
 152:../../protocol/lufa/LUFA-120730/LUFA/Drivers/USB/Core/AVR8/../../../../Common/Common.h **** 			 */
 153:../../protocol/lufa/LUFA-120730/LUFA/Drivers/USB/Core/AVR8/../../../../Common/Common.h **** 			#define MACROS                  do
 154:../../protocol/lufa/LUFA-120730/LUFA/Drivers/USB/Core/AVR8/../../../../Common/Common.h **** 
 155:../../protocol/lufa/LUFA-120730/LUFA/Drivers/USB/Core/AVR8/../../../../Common/Common.h **** 			/** Macro for encasing other multi-statement macros. This should be used along with a preceding 
 156:../../protocol/lufa/LUFA-120730/LUFA/Drivers/USB/Core/AVR8/../../../../Common/Common.h **** 			 *  brace at the end of any multi-statement macro, so that the macros contents as a whole are tr
 157:../../protocol/lufa/LUFA-120730/LUFA/Drivers/USB/Core/AVR8/../../../../Common/Common.h **** 			 *  as a discrete block and not as a list of separate statements which may cause problems when u
 158:../../protocol/lufa/LUFA-120730/LUFA/Drivers/USB/Core/AVR8/../../../../Common/Common.h **** 			 *  a block (such as inline \c if statements).
 159:../../protocol/lufa/LUFA-120730/LUFA/Drivers/USB/Core/AVR8/../../../../Common/Common.h **** 			 */
 160:../../protocol/lufa/LUFA-120730/LUFA/Drivers/USB/Core/AVR8/../../../../Common/Common.h **** 			#define MACROE                  while (0)
 161:../../protocol/lufa/LUFA-120730/LUFA/Drivers/USB/Core/AVR8/../../../../Common/Common.h **** 
 162:../../protocol/lufa/LUFA-120730/LUFA/Drivers/USB/Core/AVR8/../../../../Common/Common.h **** 			/** Convenience macro to determine the larger of two values.
 163:../../protocol/lufa/LUFA-120730/LUFA/Drivers/USB/Core/AVR8/../../../../Common/Common.h **** 			 *
 164:../../protocol/lufa/LUFA-120730/LUFA/Drivers/USB/Core/AVR8/../../../../Common/Common.h **** 			 *  \attention This macro should only be used with operands that do not have side effects from b
 165:../../protocol/lufa/LUFA-120730/LUFA/Drivers/USB/Core/AVR8/../../../../Common/Common.h **** 			 *             multiple times.
 166:../../protocol/lufa/LUFA-120730/LUFA/Drivers/USB/Core/AVR8/../../../../Common/Common.h **** 			 *
 167:../../protocol/lufa/LUFA-120730/LUFA/Drivers/USB/Core/AVR8/../../../../Common/Common.h **** 			 *  \param[in] x  First value to compare
 168:../../protocol/lufa/LUFA-120730/LUFA/Drivers/USB/Core/AVR8/../../../../Common/Common.h **** 			 *  \param[in] y  First value to compare
 169:../../protocol/lufa/LUFA-120730/LUFA/Drivers/USB/Core/AVR8/../../../../Common/Common.h **** 			 *
 170:../../protocol/lufa/LUFA-120730/LUFA/Drivers/USB/Core/AVR8/../../../../Common/Common.h **** 			 *  \return The larger of the two input parameters
 171:../../protocol/lufa/LUFA-120730/LUFA/Drivers/USB/Core/AVR8/../../../../Common/Common.h **** 			 */
 172:../../protocol/lufa/LUFA-120730/LUFA/Drivers/USB/Core/AVR8/../../../../Common/Common.h **** 			#if !defined(MAX) || defined(__DOXYGEN__)
 173:../../protocol/lufa/LUFA-120730/LUFA/Drivers/USB/Core/AVR8/../../../../Common/Common.h **** 				#define MAX(x, y)               (((x) > (y)) ? (x) : (y))
 174:../../protocol/lufa/LUFA-120730/LUFA/Drivers/USB/Core/AVR8/../../../../Common/Common.h **** 			#endif
 175:../../protocol/lufa/LUFA-120730/LUFA/Drivers/USB/Core/AVR8/../../../../Common/Common.h **** 
 176:../../protocol/lufa/LUFA-120730/LUFA/Drivers/USB/Core/AVR8/../../../../Common/Common.h **** 			/** Convenience macro to determine the smaller of two values.
 177:../../protocol/lufa/LUFA-120730/LUFA/Drivers/USB/Core/AVR8/../../../../Common/Common.h **** 			 *
 178:../../protocol/lufa/LUFA-120730/LUFA/Drivers/USB/Core/AVR8/../../../../Common/Common.h **** 			 *  \attention This macro should only be used with operands that do not have side effects from b
 179:../../protocol/lufa/LUFA-120730/LUFA/Drivers/USB/Core/AVR8/../../../../Common/Common.h **** 			 *             multiple times.
 180:../../protocol/lufa/LUFA-120730/LUFA/Drivers/USB/Core/AVR8/../../../../Common/Common.h **** 			 *
