   1               		.file	"DeviceStandardReq.c"
   2               	__SP_H__ = 0x3e
   3               	__SP_L__ = 0x3d
   4               	__SREG__ = 0x3f
   5               	__tmp_reg__ = 0
   6               	__zero_reg__ = 1
   7               		.text
   8               	.Ltext0:
   9               		.cfi_sections	.debug_frame
  10               		.section	.text.USB_Device_ProcessControlRequest,"ax",@progbits
  11               	.global	USB_Device_ProcessControlRequest
  13               	USB_Device_ProcessControlRequest:
  14               	.LFB84:
  15               		.file 1 "../../protocol/lufa/LUFA-120730/LUFA/Drivers/USB/Core/DeviceStandardReq.c"
   1:../../protocol/lufa/LUFA-120730/LUFA/Drivers/USB/Core/DeviceStandardReq.c **** /*
   2:../../protocol/lufa/LUFA-120730/LUFA/Drivers/USB/Core/DeviceStandardReq.c ****              LUFA Library
   3:../../protocol/lufa/LUFA-120730/LUFA/Drivers/USB/Core/DeviceStandardReq.c ****      Copyright (C) Dean Camera, 2012.
   4:../../protocol/lufa/LUFA-120730/LUFA/Drivers/USB/Core/DeviceStandardReq.c **** 
   5:../../protocol/lufa/LUFA-120730/LUFA/Drivers/USB/Core/DeviceStandardReq.c ****   dean [at] fourwalledcubicle [dot] com
   6:../../protocol/lufa/LUFA-120730/LUFA/Drivers/USB/Core/DeviceStandardReq.c ****            www.lufa-lib.org
   7:../../protocol/lufa/LUFA-120730/LUFA/Drivers/USB/Core/DeviceStandardReq.c **** */
   8:../../protocol/lufa/LUFA-120730/LUFA/Drivers/USB/Core/DeviceStandardReq.c **** 
   9:../../protocol/lufa/LUFA-120730/LUFA/Drivers/USB/Core/DeviceStandardReq.c **** /*
  10:../../protocol/lufa/LUFA-120730/LUFA/Drivers/USB/Core/DeviceStandardReq.c ****   Copyright 2012  Dean Camera (dean [at] fourwalledcubicle [dot] com)
  11:../../protocol/lufa/LUFA-120730/LUFA/Drivers/USB/Core/DeviceStandardReq.c **** 
  12:../../protocol/lufa/LUFA-120730/LUFA/Drivers/USB/Core/DeviceStandardReq.c ****   Permission to use, copy, modify, distribute, and sell this
  13:../../protocol/lufa/LUFA-120730/LUFA/Drivers/USB/Core/DeviceStandardReq.c ****   software and its documentation for any purpose is hereby granted
  14:../../protocol/lufa/LUFA-120730/LUFA/Drivers/USB/Core/DeviceStandardReq.c ****   without fee, provided that the above copyright notice appear in
  15:../../protocol/lufa/LUFA-120730/LUFA/Drivers/USB/Core/DeviceStandardReq.c ****   all copies and that both that the copyright notice and this
  16:../../protocol/lufa/LUFA-120730/LUFA/Drivers/USB/Core/DeviceStandardReq.c ****   permission notice and warranty disclaimer appear in supporting
  17:../../protocol/lufa/LUFA-120730/LUFA/Drivers/USB/Core/DeviceStandardReq.c ****   documentation, and that the name of the author not be used in
  18:../../protocol/lufa/LUFA-120730/LUFA/Drivers/USB/Core/DeviceStandardReq.c ****   advertising or publicity pertaining to distribution of the
  19:../../protocol/lufa/LUFA-120730/LUFA/Drivers/USB/Core/DeviceStandardReq.c ****   software without specific, written prior permission.
  20:../../protocol/lufa/LUFA-120730/LUFA/Drivers/USB/Core/DeviceStandardReq.c **** 
  21:../../protocol/lufa/LUFA-120730/LUFA/Drivers/USB/Core/DeviceStandardReq.c ****   The author disclaim all warranties with regard to this
  22:../../protocol/lufa/LUFA-120730/LUFA/Drivers/USB/Core/DeviceStandardReq.c ****   software, including all implied warranties of merchantability
  23:../../protocol/lufa/LUFA-120730/LUFA/Drivers/USB/Core/DeviceStandardReq.c ****   and fitness.  In no event shall the author be liable for any
  24:../../protocol/lufa/LUFA-120730/LUFA/Drivers/USB/Core/DeviceStandardReq.c ****   special, indirect or consequential damages or any damages
  25:../../protocol/lufa/LUFA-120730/LUFA/Drivers/USB/Core/DeviceStandardReq.c ****   whatsoever resulting from loss of use, data or profits, whether
  26:../../protocol/lufa/LUFA-120730/LUFA/Drivers/USB/Core/DeviceStandardReq.c ****   in an action of contract, negligence or other tortious action,
  27:../../protocol/lufa/LUFA-120730/LUFA/Drivers/USB/Core/DeviceStandardReq.c ****   arising out of or in connection with the use or performance of
  28:../../protocol/lufa/LUFA-120730/LUFA/Drivers/USB/Core/DeviceStandardReq.c ****   this software.
  29:../../protocol/lufa/LUFA-120730/LUFA/Drivers/USB/Core/DeviceStandardReq.c **** */
  30:../../protocol/lufa/LUFA-120730/LUFA/Drivers/USB/Core/DeviceStandardReq.c **** 
  31:../../protocol/lufa/LUFA-120730/LUFA/Drivers/USB/Core/DeviceStandardReq.c **** #define  __INCLUDE_FROM_USB_DRIVER
  32:../../protocol/lufa/LUFA-120730/LUFA/Drivers/USB/Core/DeviceStandardReq.c **** #include "USBMode.h"
  33:../../protocol/lufa/LUFA-120730/LUFA/Drivers/USB/Core/DeviceStandardReq.c **** 
  34:../../protocol/lufa/LUFA-120730/LUFA/Drivers/USB/Core/DeviceStandardReq.c **** #if defined(USB_CAN_BE_DEVICE)
  35:../../protocol/lufa/LUFA-120730/LUFA/Drivers/USB/Core/DeviceStandardReq.c **** 
  36:../../protocol/lufa/LUFA-120730/LUFA/Drivers/USB/Core/DeviceStandardReq.c **** #define  __INCLUDE_FROM_DEVICESTDREQ_C
  37:../../protocol/lufa/LUFA-120730/LUFA/Drivers/USB/Core/DeviceStandardReq.c **** #include "DeviceStandardReq.h"
  38:../../protocol/lufa/LUFA-120730/LUFA/Drivers/USB/Core/DeviceStandardReq.c **** 
  39:../../protocol/lufa/LUFA-120730/LUFA/Drivers/USB/Core/DeviceStandardReq.c **** uint8_t USB_Device_ConfigurationNumber;
  40:../../protocol/lufa/LUFA-120730/LUFA/Drivers/USB/Core/DeviceStandardReq.c **** 
  41:../../protocol/lufa/LUFA-120730/LUFA/Drivers/USB/Core/DeviceStandardReq.c **** #if !defined(NO_DEVICE_SELF_POWER)
  42:../../protocol/lufa/LUFA-120730/LUFA/Drivers/USB/Core/DeviceStandardReq.c **** bool    USB_Device_CurrentlySelfPowered;
  43:../../protocol/lufa/LUFA-120730/LUFA/Drivers/USB/Core/DeviceStandardReq.c **** #endif
  44:../../protocol/lufa/LUFA-120730/LUFA/Drivers/USB/Core/DeviceStandardReq.c **** 
  45:../../protocol/lufa/LUFA-120730/LUFA/Drivers/USB/Core/DeviceStandardReq.c **** #if !defined(NO_DEVICE_REMOTE_WAKEUP)
  46:../../protocol/lufa/LUFA-120730/LUFA/Drivers/USB/Core/DeviceStandardReq.c **** bool    USB_Device_RemoteWakeupEnabled;
  47:../../protocol/lufa/LUFA-120730/LUFA/Drivers/USB/Core/DeviceStandardReq.c **** #endif
  48:../../protocol/lufa/LUFA-120730/LUFA/Drivers/USB/Core/DeviceStandardReq.c **** 
  49:../../protocol/lufa/LUFA-120730/LUFA/Drivers/USB/Core/DeviceStandardReq.c **** void USB_Device_ProcessControlRequest(void)
  50:../../protocol/lufa/LUFA-120730/LUFA/Drivers/USB/Core/DeviceStandardReq.c **** {
  16               		.loc 1 50 0
  17               		.cfi_startproc
  18 0000 0F93      		push r16
  19               	.LCFI0:
  20               		.cfi_def_cfa_offset 3
  21               		.cfi_offset 16, -2
  22 0002 1F93      		push r17
  23               	.LCFI1:
  24               		.cfi_def_cfa_offset 4
  25               		.cfi_offset 17, -3
  26 0004 CF93      		push r28
  27               	.LCFI2:
  28               		.cfi_def_cfa_offset 5
  29               		.cfi_offset 28, -4
  30 0006 DF93      		push r29
  31               	.LCFI3:
  32               		.cfi_def_cfa_offset 6
  33               		.cfi_offset 29, -5
  34 0008 CDB7      		in r28,__SP_L__
  35 000a DEB7      		in r29,__SP_H__
  36               	.LCFI4:
  37               		.cfi_def_cfa_register 28
  38 000c AA97      		sbiw r28,42
  39               	.LCFI5:
  40               		.cfi_def_cfa_offset 48
  41 000e 0FB6      		in __tmp_reg__,__SREG__
  42 0010 F894      		cli
  43 0012 DEBF      		out __SP_H__,r29
  44 0014 0FBE      		out __SREG__,__tmp_reg__
  45 0016 CDBF      		out __SP_L__,r28
  46               	/* prologue: function */
  47               	/* frame size = 42 */
  48               	/* stack size = 46 */
  49               	.L__stack_usage = 46
  50               	.LVL0:
  51 0018 E0E0      		ldi r30,lo8(USB_ControlRequest)
  52 001a F0E0      		ldi r31,hi8(USB_ControlRequest)
  53               	.LVL1:
  54               	.L3:
  55               	.LBB178:
  56               	.LBB179:
  57               	.LBB180:
  58               		.file 2 "../../protocol/lufa/LUFA-120730/LUFA/Drivers/USB/Core/AVR8/../AVR8/Endpoint_AVR8.h"
   1:../../protocol/lufa/LUFA-120730/LUFA/Drivers/USB/Core/AVR8/../AVR8/Endpoint_AVR8.h **** /*
   2:../../protocol/lufa/LUFA-120730/LUFA/Drivers/USB/Core/AVR8/../AVR8/Endpoint_AVR8.h ****              LUFA Library
   3:../../protocol/lufa/LUFA-120730/LUFA/Drivers/USB/Core/AVR8/../AVR8/Endpoint_AVR8.h ****      Copyright (C) Dean Camera, 2012.
   4:../../protocol/lufa/LUFA-120730/LUFA/Drivers/USB/Core/AVR8/../AVR8/Endpoint_AVR8.h **** 
   5:../../protocol/lufa/LUFA-120730/LUFA/Drivers/USB/Core/AVR8/../AVR8/Endpoint_AVR8.h ****   dean [at] fourwalledcubicle [dot] com
   6:../../protocol/lufa/LUFA-120730/LUFA/Drivers/USB/Core/AVR8/../AVR8/Endpoint_AVR8.h ****            www.lufa-lib.org
   7:../../protocol/lufa/LUFA-120730/LUFA/Drivers/USB/Core/AVR8/../AVR8/Endpoint_AVR8.h **** */
   8:../../protocol/lufa/LUFA-120730/LUFA/Drivers/USB/Core/AVR8/../AVR8/Endpoint_AVR8.h **** 
   9:../../protocol/lufa/LUFA-120730/LUFA/Drivers/USB/Core/AVR8/../AVR8/Endpoint_AVR8.h **** /*
  10:../../protocol/lufa/LUFA-120730/LUFA/Drivers/USB/Core/AVR8/../AVR8/Endpoint_AVR8.h ****   Copyright 2012  Dean Camera (dean [at] fourwalledcubicle [dot] com)
  11:../../protocol/lufa/LUFA-120730/LUFA/Drivers/USB/Core/AVR8/../AVR8/Endpoint_AVR8.h **** 
  12:../../protocol/lufa/LUFA-120730/LUFA/Drivers/USB/Core/AVR8/../AVR8/Endpoint_AVR8.h ****   Permission to use, copy, modify, distribute, and sell this
  13:../../protocol/lufa/LUFA-120730/LUFA/Drivers/USB/Core/AVR8/../AVR8/Endpoint_AVR8.h ****   software and its documentation for any purpose is hereby granted
  14:../../protocol/lufa/LUFA-120730/LUFA/Drivers/USB/Core/AVR8/../AVR8/Endpoint_AVR8.h ****   without fee, provided that the above copyright notice appear in
  15:../../protocol/lufa/LUFA-120730/LUFA/Drivers/USB/Core/AVR8/../AVR8/Endpoint_AVR8.h ****   all copies and that both that the copyright notice and this
  16:../../protocol/lufa/LUFA-120730/LUFA/Drivers/USB/Core/AVR8/../AVR8/Endpoint_AVR8.h ****   permission notice and warranty disclaimer appear in supporting
  17:../../protocol/lufa/LUFA-120730/LUFA/Drivers/USB/Core/AVR8/../AVR8/Endpoint_AVR8.h ****   documentation, and that the name of the author not be used in
  18:../../protocol/lufa/LUFA-120730/LUFA/Drivers/USB/Core/AVR8/../AVR8/Endpoint_AVR8.h ****   advertising or publicity pertaining to distribution of the
  19:../../protocol/lufa/LUFA-120730/LUFA/Drivers/USB/Core/AVR8/../AVR8/Endpoint_AVR8.h ****   software without specific, written prior permission.
  20:../../protocol/lufa/LUFA-120730/LUFA/Drivers/USB/Core/AVR8/../AVR8/Endpoint_AVR8.h **** 
  21:../../protocol/lufa/LUFA-120730/LUFA/Drivers/USB/Core/AVR8/../AVR8/Endpoint_AVR8.h ****   The author disclaim all warranties with regard to this
  22:../../protocol/lufa/LUFA-120730/LUFA/Drivers/USB/Core/AVR8/../AVR8/Endpoint_AVR8.h ****   software, including all implied warranties of merchantability
  23:../../protocol/lufa/LUFA-120730/LUFA/Drivers/USB/Core/AVR8/../AVR8/Endpoint_AVR8.h ****   and fitness.  In no event shall the author be liable for any
  24:../../protocol/lufa/LUFA-120730/LUFA/Drivers/USB/Core/AVR8/../AVR8/Endpoint_AVR8.h ****   special, indirect or consequential damages or any damages
  25:../../protocol/lufa/LUFA-120730/LUFA/Drivers/USB/Core/AVR8/../AVR8/Endpoint_AVR8.h ****   whatsoever resulting from loss of use, data or profits, whether
  26:../../protocol/lufa/LUFA-120730/LUFA/Drivers/USB/Core/AVR8/../AVR8/Endpoint_AVR8.h ****   in an action of contract, negligence or other tortious action,
  27:../../protocol/lufa/LUFA-120730/LUFA/Drivers/USB/Core/AVR8/../AVR8/Endpoint_AVR8.h ****   arising out of or in connection with the use or performance of
  28:../../protocol/lufa/LUFA-120730/LUFA/Drivers/USB/Core/AVR8/../AVR8/Endpoint_AVR8.h ****   this software.
  29:../../protocol/lufa/LUFA-120730/LUFA/Drivers/USB/Core/AVR8/../AVR8/Endpoint_AVR8.h **** */
  30:../../protocol/lufa/LUFA-120730/LUFA/Drivers/USB/Core/AVR8/../AVR8/Endpoint_AVR8.h **** 
  31:../../protocol/lufa/LUFA-120730/LUFA/Drivers/USB/Core/AVR8/../AVR8/Endpoint_AVR8.h **** /** \file
  32:../../protocol/lufa/LUFA-120730/LUFA/Drivers/USB/Core/AVR8/../AVR8/Endpoint_AVR8.h ****  *  \brief USB Endpoint definitions for the AVR8 microcontrollers.
  33:../../protocol/lufa/LUFA-120730/LUFA/Drivers/USB/Core/AVR8/../AVR8/Endpoint_AVR8.h ****  *  \copydetails Group_EndpointManagement_AVR8
  34:../../protocol/lufa/LUFA-120730/LUFA/Drivers/USB/Core/AVR8/../AVR8/Endpoint_AVR8.h ****  *
  35:../../protocol/lufa/LUFA-120730/LUFA/Drivers/USB/Core/AVR8/../AVR8/Endpoint_AVR8.h ****  *  \note This file should not be included directly. It is automatically included as needed by the 
  36:../../protocol/lufa/LUFA-120730/LUFA/Drivers/USB/Core/AVR8/../AVR8/Endpoint_AVR8.h ****  *        dispatch header located in LUFA/Drivers/USB/USB.h.
  37:../../protocol/lufa/LUFA-120730/LUFA/Drivers/USB/Core/AVR8/../AVR8/Endpoint_AVR8.h ****  */
  38:../../protocol/lufa/LUFA-120730/LUFA/Drivers/USB/Core/AVR8/../AVR8/Endpoint_AVR8.h **** 
  39:../../protocol/lufa/LUFA-120730/LUFA/Drivers/USB/Core/AVR8/../AVR8/Endpoint_AVR8.h **** /** \ingroup Group_EndpointRW
  40:../../protocol/lufa/LUFA-120730/LUFA/Drivers/USB/Core/AVR8/../AVR8/Endpoint_AVR8.h ****  *  \defgroup Group_EndpointRW_AVR8 Endpoint Data Reading and Writing (AVR8)
  41:../../protocol/lufa/LUFA-120730/LUFA/Drivers/USB/Core/AVR8/../AVR8/Endpoint_AVR8.h ****  *  \brief Endpoint data read/write definitions for the Atmel AVR8 architecture.
  42:../../protocol/lufa/LUFA-120730/LUFA/Drivers/USB/Core/AVR8/../AVR8/Endpoint_AVR8.h ****  *
  43:../../protocol/lufa/LUFA-120730/LUFA/Drivers/USB/Core/AVR8/../AVR8/Endpoint_AVR8.h ****  *  Functions, macros, variables, enums and types related to data reading and writing from and to e
  44:../../protocol/lufa/LUFA-120730/LUFA/Drivers/USB/Core/AVR8/../AVR8/Endpoint_AVR8.h ****  */
  45:../../protocol/lufa/LUFA-120730/LUFA/Drivers/USB/Core/AVR8/../AVR8/Endpoint_AVR8.h **** 
  46:../../protocol/lufa/LUFA-120730/LUFA/Drivers/USB/Core/AVR8/../AVR8/Endpoint_AVR8.h **** /** \ingroup Group_EndpointPrimitiveRW
  47:../../protocol/lufa/LUFA-120730/LUFA/Drivers/USB/Core/AVR8/../AVR8/Endpoint_AVR8.h ****  *  \defgroup Group_EndpointPrimitiveRW_AVR8 Read/Write of Primitive Data Types (AVR8)
  48:../../protocol/lufa/LUFA-120730/LUFA/Drivers/USB/Core/AVR8/../AVR8/Endpoint_AVR8.h ****  *  \brief Endpoint primitive read/write definitions for the Atmel AVR8 architecture.
  49:../../protocol/lufa/LUFA-120730/LUFA/Drivers/USB/Core/AVR8/../AVR8/Endpoint_AVR8.h ****  *
  50:../../protocol/lufa/LUFA-120730/LUFA/Drivers/USB/Core/AVR8/../AVR8/Endpoint_AVR8.h ****  *  Functions, macros, variables, enums and types related to data reading and writing of primitive 
  51:../../protocol/lufa/LUFA-120730/LUFA/Drivers/USB/Core/AVR8/../AVR8/Endpoint_AVR8.h ****  *  from and to endpoints.
  52:../../protocol/lufa/LUFA-120730/LUFA/Drivers/USB/Core/AVR8/../AVR8/Endpoint_AVR8.h ****  */
  53:../../protocol/lufa/LUFA-120730/LUFA/Drivers/USB/Core/AVR8/../AVR8/Endpoint_AVR8.h **** 
  54:../../protocol/lufa/LUFA-120730/LUFA/Drivers/USB/Core/AVR8/../AVR8/Endpoint_AVR8.h **** /** \ingroup Group_EndpointPacketManagement
  55:../../protocol/lufa/LUFA-120730/LUFA/Drivers/USB/Core/AVR8/../AVR8/Endpoint_AVR8.h ****  *  \defgroup Group_EndpointPacketManagement_AVR8 Endpoint Packet Management (AVR8)
  56:../../protocol/lufa/LUFA-120730/LUFA/Drivers/USB/Core/AVR8/../AVR8/Endpoint_AVR8.h ****  *  \brief Endpoint packet management definitions for the Atmel AVR8 architecture.
  57:../../protocol/lufa/LUFA-120730/LUFA/Drivers/USB/Core/AVR8/../AVR8/Endpoint_AVR8.h ****  *
  58:../../protocol/lufa/LUFA-120730/LUFA/Drivers/USB/Core/AVR8/../AVR8/Endpoint_AVR8.h ****  *  Functions, macros, variables, enums and types related to packet management of endpoints.
  59:../../protocol/lufa/LUFA-120730/LUFA/Drivers/USB/Core/AVR8/../AVR8/Endpoint_AVR8.h ****  */
  60:../../protocol/lufa/LUFA-120730/LUFA/Drivers/USB/Core/AVR8/../AVR8/Endpoint_AVR8.h **** 
  61:../../protocol/lufa/LUFA-120730/LUFA/Drivers/USB/Core/AVR8/../AVR8/Endpoint_AVR8.h **** /** \ingroup Group_EndpointManagement
  62:../../protocol/lufa/LUFA-120730/LUFA/Drivers/USB/Core/AVR8/../AVR8/Endpoint_AVR8.h ****  *  \defgroup Group_EndpointManagement_AVR8 Endpoint Management (AVR8)
  63:../../protocol/lufa/LUFA-120730/LUFA/Drivers/USB/Core/AVR8/../AVR8/Endpoint_AVR8.h ****  *  \brief Endpoint management definitions for the Atmel AVR8 architecture.
  64:../../protocol/lufa/LUFA-120730/LUFA/Drivers/USB/Core/AVR8/../AVR8/Endpoint_AVR8.h ****  *
  65:../../protocol/lufa/LUFA-120730/LUFA/Drivers/USB/Core/AVR8/../AVR8/Endpoint_AVR8.h ****  *  Functions, macros and enums related to endpoint management when in USB Device mode. This
  66:../../protocol/lufa/LUFA-120730/LUFA/Drivers/USB/Core/AVR8/../AVR8/Endpoint_AVR8.h ****  *  module contains the endpoint management macros, as well as endpoint interrupt and data
  67:../../protocol/lufa/LUFA-120730/LUFA/Drivers/USB/Core/AVR8/../AVR8/Endpoint_AVR8.h ****  *  send/receive functions for various data types.
  68:../../protocol/lufa/LUFA-120730/LUFA/Drivers/USB/Core/AVR8/../AVR8/Endpoint_AVR8.h ****  *
  69:../../protocol/lufa/LUFA-120730/LUFA/Drivers/USB/Core/AVR8/../AVR8/Endpoint_AVR8.h ****  *  @{
  70:../../protocol/lufa/LUFA-120730/LUFA/Drivers/USB/Core/AVR8/../AVR8/Endpoint_AVR8.h ****  */
  71:../../protocol/lufa/LUFA-120730/LUFA/Drivers/USB/Core/AVR8/../AVR8/Endpoint_AVR8.h **** 
  72:../../protocol/lufa/LUFA-120730/LUFA/Drivers/USB/Core/AVR8/../AVR8/Endpoint_AVR8.h **** #ifndef __ENDPOINT_AVR8_H__
  73:../../protocol/lufa/LUFA-120730/LUFA/Drivers/USB/Core/AVR8/../AVR8/Endpoint_AVR8.h **** #define __ENDPOINT_AVR8_H__
  74:../../protocol/lufa/LUFA-120730/LUFA/Drivers/USB/Core/AVR8/../AVR8/Endpoint_AVR8.h **** 
  75:../../protocol/lufa/LUFA-120730/LUFA/Drivers/USB/Core/AVR8/../AVR8/Endpoint_AVR8.h **** 	/* Includes: */
  76:../../protocol/lufa/LUFA-120730/LUFA/Drivers/USB/Core/AVR8/../AVR8/Endpoint_AVR8.h **** 		#include "../../../../Common/Common.h"
  77:../../protocol/lufa/LUFA-120730/LUFA/Drivers/USB/Core/AVR8/../AVR8/Endpoint_AVR8.h **** 		#include "../USBTask.h"
  78:../../protocol/lufa/LUFA-120730/LUFA/Drivers/USB/Core/AVR8/../AVR8/Endpoint_AVR8.h **** 		#include "../USBInterrupt.h"
  79:../../protocol/lufa/LUFA-120730/LUFA/Drivers/USB/Core/AVR8/../AVR8/Endpoint_AVR8.h **** 
  80:../../protocol/lufa/LUFA-120730/LUFA/Drivers/USB/Core/AVR8/../AVR8/Endpoint_AVR8.h **** 	/* Enable C linkage for C++ Compilers: */
  81:../../protocol/lufa/LUFA-120730/LUFA/Drivers/USB/Core/AVR8/../AVR8/Endpoint_AVR8.h **** 		#if defined(__cplusplus)
  82:../../protocol/lufa/LUFA-120730/LUFA/Drivers/USB/Core/AVR8/../AVR8/Endpoint_AVR8.h **** 			extern "C" {
  83:../../protocol/lufa/LUFA-120730/LUFA/Drivers/USB/Core/AVR8/../AVR8/Endpoint_AVR8.h **** 		#endif
  84:../../protocol/lufa/LUFA-120730/LUFA/Drivers/USB/Core/AVR8/../AVR8/Endpoint_AVR8.h **** 
  85:../../protocol/lufa/LUFA-120730/LUFA/Drivers/USB/Core/AVR8/../AVR8/Endpoint_AVR8.h **** 	/* Preprocessor Checks: */
  86:../../protocol/lufa/LUFA-120730/LUFA/Drivers/USB/Core/AVR8/../AVR8/Endpoint_AVR8.h **** 		#if !defined(__INCLUDE_FROM_USB_DRIVER)
  87:../../protocol/lufa/LUFA-120730/LUFA/Drivers/USB/Core/AVR8/../AVR8/Endpoint_AVR8.h **** 			#error Do not include this file directly. Include LUFA/Drivers/USB/USB.h instead.
  88:../../protocol/lufa/LUFA-120730/LUFA/Drivers/USB/Core/AVR8/../AVR8/Endpoint_AVR8.h **** 		#endif
  89:../../protocol/lufa/LUFA-120730/LUFA/Drivers/USB/Core/AVR8/../AVR8/Endpoint_AVR8.h **** 
  90:../../protocol/lufa/LUFA-120730/LUFA/Drivers/USB/Core/AVR8/../AVR8/Endpoint_AVR8.h **** 	/* Private Interface - For use in library only: */
  91:../../protocol/lufa/LUFA-120730/LUFA/Drivers/USB/Core/AVR8/../AVR8/Endpoint_AVR8.h **** 	#if !defined(__DOXYGEN__)
  92:../../protocol/lufa/LUFA-120730/LUFA/Drivers/USB/Core/AVR8/../AVR8/Endpoint_AVR8.h **** 		/* Inline Functions: */
  93:../../protocol/lufa/LUFA-120730/LUFA/Drivers/USB/Core/AVR8/../AVR8/Endpoint_AVR8.h **** 			static inline uint8_t Endpoint_BytesToEPSizeMask(const uint16_t Bytes) ATTR_WARN_UNUSED_RESULT A
  94:../../protocol/lufa/LUFA-120730/LUFA/Drivers/USB/Core/AVR8/../AVR8/Endpoint_AVR8.h **** 			                                                                       ATTR_ALWAYS_INLINE;
  95:../../protocol/lufa/LUFA-120730/LUFA/Drivers/USB/Core/AVR8/../AVR8/Endpoint_AVR8.h **** 			static inline uint8_t Endpoint_BytesToEPSizeMask(const uint16_t Bytes)
  96:../../protocol/lufa/LUFA-120730/LUFA/Drivers/USB/Core/AVR8/../AVR8/Endpoint_AVR8.h **** 			{
  97:../../protocol/lufa/LUFA-120730/LUFA/Drivers/USB/Core/AVR8/../AVR8/Endpoint_AVR8.h **** 				uint8_t  MaskVal    = 0;
  98:../../protocol/lufa/LUFA-120730/LUFA/Drivers/USB/Core/AVR8/../AVR8/Endpoint_AVR8.h **** 				uint16_t CheckBytes = 8;
  99:../../protocol/lufa/LUFA-120730/LUFA/Drivers/USB/Core/AVR8/../AVR8/Endpoint_AVR8.h **** 
 100:../../protocol/lufa/LUFA-120730/LUFA/Drivers/USB/Core/AVR8/../AVR8/Endpoint_AVR8.h **** 				while (CheckBytes < Bytes)
 101:../../protocol/lufa/LUFA-120730/LUFA/Drivers/USB/Core/AVR8/../AVR8/Endpoint_AVR8.h **** 				{
 102:../../protocol/lufa/LUFA-120730/LUFA/Drivers/USB/Core/AVR8/../AVR8/Endpoint_AVR8.h **** 					MaskVal++;
 103:../../protocol/lufa/LUFA-120730/LUFA/Drivers/USB/Core/AVR8/../AVR8/Endpoint_AVR8.h **** 					CheckBytes <<= 1;
 104:../../protocol/lufa/LUFA-120730/LUFA/Drivers/USB/Core/AVR8/../AVR8/Endpoint_AVR8.h **** 				}
 105:../../protocol/lufa/LUFA-120730/LUFA/Drivers/USB/Core/AVR8/../AVR8/Endpoint_AVR8.h **** 
 106:../../protocol/lufa/LUFA-120730/LUFA/Drivers/USB/Core/AVR8/../AVR8/Endpoint_AVR8.h **** 				return (MaskVal << EPSIZE0);
 107:../../protocol/lufa/LUFA-120730/LUFA/Drivers/USB/Core/AVR8/../AVR8/Endpoint_AVR8.h **** 			}
 108:../../protocol/lufa/LUFA-120730/LUFA/Drivers/USB/Core/AVR8/../AVR8/Endpoint_AVR8.h **** 
 109:../../protocol/lufa/LUFA-120730/LUFA/Drivers/USB/Core/AVR8/../AVR8/Endpoint_AVR8.h **** 		/* Function Prototypes: */
 110:../../protocol/lufa/LUFA-120730/LUFA/Drivers/USB/Core/AVR8/../AVR8/Endpoint_AVR8.h **** 			void Endpoint_ClearEndpoints(void);
 111:../../protocol/lufa/LUFA-120730/LUFA/Drivers/USB/Core/AVR8/../AVR8/Endpoint_AVR8.h **** 			bool Endpoint_ConfigureEndpoint_Prv(const uint8_t Number,
 112:../../protocol/lufa/LUFA-120730/LUFA/Drivers/USB/Core/AVR8/../AVR8/Endpoint_AVR8.h **** 			                                    const uint8_t UECFG0XData,
 113:../../protocol/lufa/LUFA-120730/LUFA/Drivers/USB/Core/AVR8/../AVR8/Endpoint_AVR8.h **** 			                                    const uint8_t UECFG1XData);
 114:../../protocol/lufa/LUFA-120730/LUFA/Drivers/USB/Core/AVR8/../AVR8/Endpoint_AVR8.h **** 
 115:../../protocol/lufa/LUFA-120730/LUFA/Drivers/USB/Core/AVR8/../AVR8/Endpoint_AVR8.h **** 	#endif
 116:../../protocol/lufa/LUFA-120730/LUFA/Drivers/USB/Core/AVR8/../AVR8/Endpoint_AVR8.h **** 
 117:../../protocol/lufa/LUFA-120730/LUFA/Drivers/USB/Core/AVR8/../AVR8/Endpoint_AVR8.h **** 	/* Public Interface - May be used in end-application: */
 118:../../protocol/lufa/LUFA-120730/LUFA/Drivers/USB/Core/AVR8/../AVR8/Endpoint_AVR8.h **** 		/* Macros: */
 119:../../protocol/lufa/LUFA-120730/LUFA/Drivers/USB/Core/AVR8/../AVR8/Endpoint_AVR8.h **** 			#if (!defined(FIXED_CONTROL_ENDPOINT_SIZE) || defined(__DOXYGEN__))
 120:../../protocol/lufa/LUFA-120730/LUFA/Drivers/USB/Core/AVR8/../AVR8/Endpoint_AVR8.h **** 				/** Default size of the default control endpoint's bank, until altered by the control endpoint 
 121:../../protocol/lufa/LUFA-120730/LUFA/Drivers/USB/Core/AVR8/../AVR8/Endpoint_AVR8.h **** 				 *  value in the device descriptor. Not available if the \c FIXED_CONTROL_ENDPOINT_SIZE token i
 122:../../protocol/lufa/LUFA-120730/LUFA/Drivers/USB/Core/AVR8/../AVR8/Endpoint_AVR8.h **** 				 */
 123:../../protocol/lufa/LUFA-120730/LUFA/Drivers/USB/Core/AVR8/../AVR8/Endpoint_AVR8.h **** 				#define ENDPOINT_CONTROLEP_DEFAULT_SIZE     8
 124:../../protocol/lufa/LUFA-120730/LUFA/Drivers/USB/Core/AVR8/../AVR8/Endpoint_AVR8.h **** 			#endif
 125:../../protocol/lufa/LUFA-120730/LUFA/Drivers/USB/Core/AVR8/../AVR8/Endpoint_AVR8.h **** 
 126:../../protocol/lufa/LUFA-120730/LUFA/Drivers/USB/Core/AVR8/../AVR8/Endpoint_AVR8.h **** 			#if !defined(CONTROL_ONLY_DEVICE) || defined(__DOXYGEN__)
 127:../../protocol/lufa/LUFA-120730/LUFA/Drivers/USB/Core/AVR8/../AVR8/Endpoint_AVR8.h **** 				#if defined(USB_SERIES_4_AVR) || defined(USB_SERIES_6_AVR) || defined(USB_SERIES_7_AVR)
 128:../../protocol/lufa/LUFA-120730/LUFA/Drivers/USB/Core/AVR8/../AVR8/Endpoint_AVR8.h **** 					#define ENDPOINT_TOTAL_ENDPOINTS        7
 129:../../protocol/lufa/LUFA-120730/LUFA/Drivers/USB/Core/AVR8/../AVR8/Endpoint_AVR8.h **** 				#else
 130:../../protocol/lufa/LUFA-120730/LUFA/Drivers/USB/Core/AVR8/../AVR8/Endpoint_AVR8.h **** 					/** Total number of endpoints (including the default control endpoint at address 0) which may
 131:../../protocol/lufa/LUFA-120730/LUFA/Drivers/USB/Core/AVR8/../AVR8/Endpoint_AVR8.h **** 					 *  be used in the device. Different USB AVR models support different amounts of endpoints,
 132:../../protocol/lufa/LUFA-120730/LUFA/Drivers/USB/Core/AVR8/../AVR8/Endpoint_AVR8.h **** 					 *  this value reflects the maximum number of endpoints for the currently selected AVR model.
 133:../../protocol/lufa/LUFA-120730/LUFA/Drivers/USB/Core/AVR8/../AVR8/Endpoint_AVR8.h **** 					 */
 134:../../protocol/lufa/LUFA-120730/LUFA/Drivers/USB/Core/AVR8/../AVR8/Endpoint_AVR8.h **** 					#define ENDPOINT_TOTAL_ENDPOINTS        5
 135:../../protocol/lufa/LUFA-120730/LUFA/Drivers/USB/Core/AVR8/../AVR8/Endpoint_AVR8.h **** 				#endif
 136:../../protocol/lufa/LUFA-120730/LUFA/Drivers/USB/Core/AVR8/../AVR8/Endpoint_AVR8.h **** 			#else
 137:../../protocol/lufa/LUFA-120730/LUFA/Drivers/USB/Core/AVR8/../AVR8/Endpoint_AVR8.h **** 				#define ENDPOINT_TOTAL_ENDPOINTS            1
 138:../../protocol/lufa/LUFA-120730/LUFA/Drivers/USB/Core/AVR8/../AVR8/Endpoint_AVR8.h **** 			#endif
 139:../../protocol/lufa/LUFA-120730/LUFA/Drivers/USB/Core/AVR8/../AVR8/Endpoint_AVR8.h **** 
 140:../../protocol/lufa/LUFA-120730/LUFA/Drivers/USB/Core/AVR8/../AVR8/Endpoint_AVR8.h **** 		/* Enums: */
 141:../../protocol/lufa/LUFA-120730/LUFA/Drivers/USB/Core/AVR8/../AVR8/Endpoint_AVR8.h **** 			/** Enum for the possible error return codes of the \ref Endpoint_WaitUntilReady() function.
 142:../../protocol/lufa/LUFA-120730/LUFA/Drivers/USB/Core/AVR8/../AVR8/Endpoint_AVR8.h **** 			 *
 143:../../protocol/lufa/LUFA-120730/LUFA/Drivers/USB/Core/AVR8/../AVR8/Endpoint_AVR8.h **** 			 *  \ingroup Group_EndpointRW_AVR8
 144:../../protocol/lufa/LUFA-120730/LUFA/Drivers/USB/Core/AVR8/../AVR8/Endpoint_AVR8.h **** 			 */
 145:../../protocol/lufa/LUFA-120730/LUFA/Drivers/USB/Core/AVR8/../AVR8/Endpoint_AVR8.h **** 			enum Endpoint_WaitUntilReady_ErrorCodes_t
 146:../../protocol/lufa/LUFA-120730/LUFA/Drivers/USB/Core/AVR8/../AVR8/Endpoint_AVR8.h **** 			{
 147:../../protocol/lufa/LUFA-120730/LUFA/Drivers/USB/Core/AVR8/../AVR8/Endpoint_AVR8.h **** 				ENDPOINT_READYWAIT_NoError                 = 0, /**< Endpoint is ready for next packet, no erro
 148:../../protocol/lufa/LUFA-120730/LUFA/Drivers/USB/Core/AVR8/../AVR8/Endpoint_AVR8.h **** 				ENDPOINT_READYWAIT_EndpointStalled         = 1, /**< The endpoint was stalled during the stream
 149:../../protocol/lufa/LUFA-120730/LUFA/Drivers/USB/Core/AVR8/../AVR8/Endpoint_AVR8.h **** 				                                                 *   transfer by the host or device.
 150:../../protocol/lufa/LUFA-120730/LUFA/Drivers/USB/Core/AVR8/../AVR8/Endpoint_AVR8.h **** 				                                                 */
 151:../../protocol/lufa/LUFA-120730/LUFA/Drivers/USB/Core/AVR8/../AVR8/Endpoint_AVR8.h **** 				ENDPOINT_READYWAIT_DeviceDisconnected      = 2,	/**< Device was disconnected from the host whil
 152:../../protocol/lufa/LUFA-120730/LUFA/Drivers/USB/Core/AVR8/../AVR8/Endpoint_AVR8.h **** 				                                                 *   waiting for the endpoint to become ready.
 153:../../protocol/lufa/LUFA-120730/LUFA/Drivers/USB/Core/AVR8/../AVR8/Endpoint_AVR8.h **** 				                                                 */
 154:../../protocol/lufa/LUFA-120730/LUFA/Drivers/USB/Core/AVR8/../AVR8/Endpoint_AVR8.h **** 				ENDPOINT_READYWAIT_BusSuspended            = 3, /**< The USB bus has been suspended by the host
 155:../../protocol/lufa/LUFA-120730/LUFA/Drivers/USB/Core/AVR8/../AVR8/Endpoint_AVR8.h **** 				                                                 *   no USB endpoint traffic can occur until th
 156:../../protocol/lufa/LUFA-120730/LUFA/Drivers/USB/Core/AVR8/../AVR8/Endpoint_AVR8.h **** 				                                                 *   has resumed.
 157:../../protocol/lufa/LUFA-120730/LUFA/Drivers/USB/Core/AVR8/../AVR8/Endpoint_AVR8.h **** 				                                                 */
 158:../../protocol/lufa/LUFA-120730/LUFA/Drivers/USB/Core/AVR8/../AVR8/Endpoint_AVR8.h **** 				ENDPOINT_READYWAIT_Timeout                 = 4, /**< The host failed to accept or send the next
 159:../../protocol/lufa/LUFA-120730/LUFA/Drivers/USB/Core/AVR8/../AVR8/Endpoint_AVR8.h **** 				                                                 *   within the software timeout period set by 
 160:../../protocol/lufa/LUFA-120730/LUFA/Drivers/USB/Core/AVR8/../AVR8/Endpoint_AVR8.h **** 				                                                 *   \ref USB_STREAM_TIMEOUT_MS macro.
 161:../../protocol/lufa/LUFA-120730/LUFA/Drivers/USB/Core/AVR8/../AVR8/Endpoint_AVR8.h **** 				                                                 */
 162:../../protocol/lufa/LUFA-120730/LUFA/Drivers/USB/Core/AVR8/../AVR8/Endpoint_AVR8.h **** 			};
 163:../../protocol/lufa/LUFA-120730/LUFA/Drivers/USB/Core/AVR8/../AVR8/Endpoint_AVR8.h **** 
 164:../../protocol/lufa/LUFA-120730/LUFA/Drivers/USB/Core/AVR8/../AVR8/Endpoint_AVR8.h **** 		/* Inline Functions: */
 165:../../protocol/lufa/LUFA-120730/LUFA/Drivers/USB/Core/AVR8/../AVR8/Endpoint_AVR8.h **** 			/** Configures the specified endpoint address with the given endpoint type, bank size and number
 166:../../protocol/lufa/LUFA-120730/LUFA/Drivers/USB/Core/AVR8/../AVR8/Endpoint_AVR8.h **** 			 *  banks. Once configured, the endpoint may be read from or written to, depending on its direct
 167:../../protocol/lufa/LUFA-120730/LUFA/Drivers/USB/Core/AVR8/../AVR8/Endpoint_AVR8.h **** 			 *
 168:../../protocol/lufa/LUFA-120730/LUFA/Drivers/USB/Core/AVR8/../AVR8/Endpoint_AVR8.h **** 			 *  \param[in] Address    Endpoint address to configure.
 169:../../protocol/lufa/LUFA-120730/LUFA/Drivers/USB/Core/AVR8/../AVR8/Endpoint_AVR8.h **** 			 *
 170:../../protocol/lufa/LUFA-120730/LUFA/Drivers/USB/Core/AVR8/../AVR8/Endpoint_AVR8.h **** 			 *  \param[in] Type       Type of endpoint to configure, a \c EP_TYPE_* mask. Not all endpoint t
 171:../../protocol/lufa/LUFA-120730/LUFA/Drivers/USB/Core/AVR8/../AVR8/Endpoint_AVR8.h **** 			 *                        are available on Low Speed USB devices - refer to the USB 2.0 specific
 172:../../protocol/lufa/LUFA-120730/LUFA/Drivers/USB/Core/AVR8/../AVR8/Endpoint_AVR8.h **** 			 *
 173:../../protocol/lufa/LUFA-120730/LUFA/Drivers/USB/Core/AVR8/../AVR8/Endpoint_AVR8.h **** 			 *  \param[in] Size       Size of the endpoint's bank, where packets are stored before they are 
 174:../../protocol/lufa/LUFA-120730/LUFA/Drivers/USB/Core/AVR8/../AVR8/Endpoint_AVR8.h **** 			 *                        to the USB host, or after they have been received from the USB host (d
 175:../../protocol/lufa/LUFA-120730/LUFA/Drivers/USB/Core/AVR8/../AVR8/Endpoint_AVR8.h **** 			 *                        the endpoint's data direction). The bank size must indicate the maximu
 176:../../protocol/lufa/LUFA-120730/LUFA/Drivers/USB/Core/AVR8/../AVR8/Endpoint_AVR8.h **** 			 *                        that the endpoint can handle.
 177:../../protocol/lufa/LUFA-120730/LUFA/Drivers/USB/Core/AVR8/../AVR8/Endpoint_AVR8.h **** 			 *
 178:../../protocol/lufa/LUFA-120730/LUFA/Drivers/USB/Core/AVR8/../AVR8/Endpoint_AVR8.h **** 			 *  \param[in] Banks      Number of banks to use for the endpoint being configured.
 179:../../protocol/lufa/LUFA-120730/LUFA/Drivers/USB/Core/AVR8/../AVR8/Endpoint_AVR8.h **** 			 *
 180:../../protocol/lufa/LUFA-120730/LUFA/Drivers/USB/Core/AVR8/../AVR8/Endpoint_AVR8.h **** 			 *  \attention When the \c ORDERED_EP_CONFIG compile time option is used, Endpoints <b>must</b> 
 181:../../protocol/lufa/LUFA-120730/LUFA/Drivers/USB/Core/AVR8/../AVR8/Endpoint_AVR8.h **** 			 *             ascending order, or bank corruption will occur.
 182:../../protocol/lufa/LUFA-120730/LUFA/Drivers/USB/Core/AVR8/../AVR8/Endpoint_AVR8.h **** 			 *
 183:../../protocol/lufa/LUFA-120730/LUFA/Drivers/USB/Core/AVR8/../AVR8/Endpoint_AVR8.h **** 			 *  \note Different endpoints may have different maximum packet sizes based on the endpoint's in
 184:../../protocol/lufa/LUFA-120730/LUFA/Drivers/USB/Core/AVR8/../AVR8/Endpoint_AVR8.h **** 			 *        refer to the chosen microcontroller model's datasheet to determine the maximum bank si
 185:../../protocol/lufa/LUFA-120730/LUFA/Drivers/USB/Core/AVR8/../AVR8/Endpoint_AVR8.h **** 			 *        \n\n
 186:../../protocol/lufa/LUFA-120730/LUFA/Drivers/USB/Core/AVR8/../AVR8/Endpoint_AVR8.h **** 			 *
 187:../../protocol/lufa/LUFA-120730/LUFA/Drivers/USB/Core/AVR8/../AVR8/Endpoint_AVR8.h **** 			 *  \note The default control endpoint should not be manually configured by the user application
 188:../../protocol/lufa/LUFA-120730/LUFA/Drivers/USB/Core/AVR8/../AVR8/Endpoint_AVR8.h **** 			 *        it is automatically configured by the library internally.
 189:../../protocol/lufa/LUFA-120730/LUFA/Drivers/USB/Core/AVR8/../AVR8/Endpoint_AVR8.h **** 			 *        \n\n
 190:../../protocol/lufa/LUFA-120730/LUFA/Drivers/USB/Core/AVR8/../AVR8/Endpoint_AVR8.h **** 			 *
 191:../../protocol/lufa/LUFA-120730/LUFA/Drivers/USB/Core/AVR8/../AVR8/Endpoint_AVR8.h **** 			 *  \note This routine will automatically select the specified endpoint upon success. Upon failu
 192:../../protocol/lufa/LUFA-120730/LUFA/Drivers/USB/Core/AVR8/../AVR8/Endpoint_AVR8.h **** 			 *        which failed to reconfigure correctly will be selected.
 193:../../protocol/lufa/LUFA-120730/LUFA/Drivers/USB/Core/AVR8/../AVR8/Endpoint_AVR8.h **** 			 *
 194:../../protocol/lufa/LUFA-120730/LUFA/Drivers/USB/Core/AVR8/../AVR8/Endpoint_AVR8.h **** 			 *  \return Boolean \c true if the configuration succeeded, \c false otherwise.
 195:../../protocol/lufa/LUFA-120730/LUFA/Drivers/USB/Core/AVR8/../AVR8/Endpoint_AVR8.h **** 			 */
 196:../../protocol/lufa/LUFA-120730/LUFA/Drivers/USB/Core/AVR8/../AVR8/Endpoint_AVR8.h **** 			static inline bool Endpoint_ConfigureEndpoint(const uint8_t Address,
 197:../../protocol/lufa/LUFA-120730/LUFA/Drivers/USB/Core/AVR8/../AVR8/Endpoint_AVR8.h **** 			                                              const uint8_t Type,
 198:../../protocol/lufa/LUFA-120730/LUFA/Drivers/USB/Core/AVR8/../AVR8/Endpoint_AVR8.h **** 			                                              const uint16_t Size,
 199:../../protocol/lufa/LUFA-120730/LUFA/Drivers/USB/Core/AVR8/../AVR8/Endpoint_AVR8.h **** 			                                              const uint8_t Banks) ATTR_ALWAYS_INLINE;
 200:../../protocol/lufa/LUFA-120730/LUFA/Drivers/USB/Core/AVR8/../AVR8/Endpoint_AVR8.h **** 			static inline bool Endpoint_ConfigureEndpoint(const uint8_t Address,
 201:../../protocol/lufa/LUFA-120730/LUFA/Drivers/USB/Core/AVR8/../AVR8/Endpoint_AVR8.h **** 			                                              const uint8_t Type,
 202:../../protocol/lufa/LUFA-120730/LUFA/Drivers/USB/Core/AVR8/../AVR8/Endpoint_AVR8.h **** 			                                              const uint16_t Size,
 203:../../protocol/lufa/LUFA-120730/LUFA/Drivers/USB/Core/AVR8/../AVR8/Endpoint_AVR8.h **** 			                                              const uint8_t Banks)
 204:../../protocol/lufa/LUFA-120730/LUFA/Drivers/USB/Core/AVR8/../AVR8/Endpoint_AVR8.h **** 			{
 205:../../protocol/lufa/LUFA-120730/LUFA/Drivers/USB/Core/AVR8/../AVR8/Endpoint_AVR8.h **** 				uint8_t Number = (Address & ENDPOINT_EPNUM_MASK);
 206:../../protocol/lufa/LUFA-120730/LUFA/Drivers/USB/Core/AVR8/../AVR8/Endpoint_AVR8.h **** 			
 207:../../protocol/lufa/LUFA-120730/LUFA/Drivers/USB/Core/AVR8/../AVR8/Endpoint_AVR8.h **** 				if (Number >= ENDPOINT_TOTAL_ENDPOINTS)
 208:../../protocol/lufa/LUFA-120730/LUFA/Drivers/USB/Core/AVR8/../AVR8/Endpoint_AVR8.h **** 				  return false;
 209:../../protocol/lufa/LUFA-120730/LUFA/Drivers/USB/Core/AVR8/../AVR8/Endpoint_AVR8.h **** 			
 210:../../protocol/lufa/LUFA-120730/LUFA/Drivers/USB/Core/AVR8/../AVR8/Endpoint_AVR8.h **** 				return Endpoint_ConfigureEndpoint_Prv(Number,
 211:../../protocol/lufa/LUFA-120730/LUFA/Drivers/USB/Core/AVR8/../AVR8/Endpoint_AVR8.h **** 				                                      ((Type << EPTYPE0) | ((Address & ENDPOINT_DIR_IN) ? (1 <<
 212:../../protocol/lufa/LUFA-120730/LUFA/Drivers/USB/Core/AVR8/../AVR8/Endpoint_AVR8.h **** 				                                      ((1 << ALLOC) | ((Banks > 1) ? (1 << EPBK0) : 0) | Endpoi
 213:../../protocol/lufa/LUFA-120730/LUFA/Drivers/USB/Core/AVR8/../AVR8/Endpoint_AVR8.h **** 			}
 214:../../protocol/lufa/LUFA-120730/LUFA/Drivers/USB/Core/AVR8/../AVR8/Endpoint_AVR8.h **** 
 215:../../protocol/lufa/LUFA-120730/LUFA/Drivers/USB/Core/AVR8/../AVR8/Endpoint_AVR8.h **** 			/** Indicates the number of bytes currently stored in the current endpoint's selected bank.
 216:../../protocol/lufa/LUFA-120730/LUFA/Drivers/USB/Core/AVR8/../AVR8/Endpoint_AVR8.h **** 			 *
 217:../../protocol/lufa/LUFA-120730/LUFA/Drivers/USB/Core/AVR8/../AVR8/Endpoint_AVR8.h **** 			 *  \ingroup Group_EndpointRW_AVR8
 218:../../protocol/lufa/LUFA-120730/LUFA/Drivers/USB/Core/AVR8/../AVR8/Endpoint_AVR8.h **** 			 *
 219:../../protocol/lufa/LUFA-120730/LUFA/Drivers/USB/Core/AVR8/../AVR8/Endpoint_AVR8.h **** 			 *  \return Total number of bytes in the currently selected Endpoint's FIFO buffer.
 220:../../protocol/lufa/LUFA-120730/LUFA/Drivers/USB/Core/AVR8/../AVR8/Endpoint_AVR8.h **** 			 */
 221:../../protocol/lufa/LUFA-120730/LUFA/Drivers/USB/Core/AVR8/../AVR8/Endpoint_AVR8.h **** 			static inline uint16_t Endpoint_BytesInEndpoint(void) ATTR_WARN_UNUSED_RESULT ATTR_ALWAYS_INLINE
 222:../../protocol/lufa/LUFA-120730/LUFA/Drivers/USB/Core/AVR8/../AVR8/Endpoint_AVR8.h **** 			static inline uint16_t Endpoint_BytesInEndpoint(void)
 223:../../protocol/lufa/LUFA-120730/LUFA/Drivers/USB/Core/AVR8/../AVR8/Endpoint_AVR8.h **** 			{
 224:../../protocol/lufa/LUFA-120730/LUFA/Drivers/USB/Core/AVR8/../AVR8/Endpoint_AVR8.h **** 				#if (defined(USB_SERIES_6_AVR) || defined(USB_SERIES_7_AVR)) && !defined(__AVR_ATmega32U6__)
 225:../../protocol/lufa/LUFA-120730/LUFA/Drivers/USB/Core/AVR8/../AVR8/Endpoint_AVR8.h **** 					return UEBCX;
 226:../../protocol/lufa/LUFA-120730/LUFA/Drivers/USB/Core/AVR8/../AVR8/Endpoint_AVR8.h **** 				#elif defined(USB_SERIES_4_AVR) || defined(__AVR_ATmega32U6__)
 227:../../protocol/lufa/LUFA-120730/LUFA/Drivers/USB/Core/AVR8/../AVR8/Endpoint_AVR8.h **** 					return (((uint16_t)UEBCHX << 8) | UEBCLX);
 228:../../protocol/lufa/LUFA-120730/LUFA/Drivers/USB/Core/AVR8/../AVR8/Endpoint_AVR8.h **** 				#elif defined(USB_SERIES_2_AVR)
 229:../../protocol/lufa/LUFA-120730/LUFA/Drivers/USB/Core/AVR8/../AVR8/Endpoint_AVR8.h **** 					return UEBCLX;
 230:../../protocol/lufa/LUFA-120730/LUFA/Drivers/USB/Core/AVR8/../AVR8/Endpoint_AVR8.h **** 				#endif
 231:../../protocol/lufa/LUFA-120730/LUFA/Drivers/USB/Core/AVR8/../AVR8/Endpoint_AVR8.h **** 			}
 232:../../protocol/lufa/LUFA-120730/LUFA/Drivers/USB/Core/AVR8/../AVR8/Endpoint_AVR8.h **** 
 233:../../protocol/lufa/LUFA-120730/LUFA/Drivers/USB/Core/AVR8/../AVR8/Endpoint_AVR8.h **** 			/** Determines the currently selected endpoint's direction.
 234:../../protocol/lufa/LUFA-120730/LUFA/Drivers/USB/Core/AVR8/../AVR8/Endpoint_AVR8.h **** 			 *
 235:../../protocol/lufa/LUFA-120730/LUFA/Drivers/USB/Core/AVR8/../AVR8/Endpoint_AVR8.h **** 			 *  \return The currently selected endpoint's direction, as a \c ENDPOINT_DIR_* mask.
 236:../../protocol/lufa/LUFA-120730/LUFA/Drivers/USB/Core/AVR8/../AVR8/Endpoint_AVR8.h **** 			 */
 237:../../protocol/lufa/LUFA-120730/LUFA/Drivers/USB/Core/AVR8/../AVR8/Endpoint_AVR8.h **** 			static inline uint8_t Endpoint_GetEndpointDirection(void) ATTR_WARN_UNUSED_RESULT ATTR_ALWAYS_IN
 238:../../protocol/lufa/LUFA-120730/LUFA/Drivers/USB/Core/AVR8/../AVR8/Endpoint_AVR8.h **** 			static inline uint8_t Endpoint_GetEndpointDirection(void)
 239:../../protocol/lufa/LUFA-120730/LUFA/Drivers/USB/Core/AVR8/../AVR8/Endpoint_AVR8.h **** 			{
 240:../../protocol/lufa/LUFA-120730/LUFA/Drivers/USB/Core/AVR8/../AVR8/Endpoint_AVR8.h **** 				return (UECFG0X & (1 << EPDIR)) ? ENDPOINT_DIR_IN : ENDPOINT_DIR_OUT;
 241:../../protocol/lufa/LUFA-120730/LUFA/Drivers/USB/Core/AVR8/../AVR8/Endpoint_AVR8.h **** 			}
 242:../../protocol/lufa/LUFA-120730/LUFA/Drivers/USB/Core/AVR8/../AVR8/Endpoint_AVR8.h **** 
 243:../../protocol/lufa/LUFA-120730/LUFA/Drivers/USB/Core/AVR8/../AVR8/Endpoint_AVR8.h **** 			/** Get the endpoint address of the currently selected endpoint. This is typically used to save
 244:../../protocol/lufa/LUFA-120730/LUFA/Drivers/USB/Core/AVR8/../AVR8/Endpoint_AVR8.h **** 			 *  the currently selected endpoint so that it can be restored after another endpoint has been
 245:../../protocol/lufa/LUFA-120730/LUFA/Drivers/USB/Core/AVR8/../AVR8/Endpoint_AVR8.h **** 			 *  manipulated.
 246:../../protocol/lufa/LUFA-120730/LUFA/Drivers/USB/Core/AVR8/../AVR8/Endpoint_AVR8.h **** 			 *
 247:../../protocol/lufa/LUFA-120730/LUFA/Drivers/USB/Core/AVR8/../AVR8/Endpoint_AVR8.h **** 			 *  \return Index of the currently selected endpoint.
 248:../../protocol/lufa/LUFA-120730/LUFA/Drivers/USB/Core/AVR8/../AVR8/Endpoint_AVR8.h **** 			 */
 249:../../protocol/lufa/LUFA-120730/LUFA/Drivers/USB/Core/AVR8/../AVR8/Endpoint_AVR8.h **** 			static inline uint8_t Endpoint_GetCurrentEndpoint(void) ATTR_WARN_UNUSED_RESULT ATTR_ALWAYS_INLI
 250:../../protocol/lufa/LUFA-120730/LUFA/Drivers/USB/Core/AVR8/../AVR8/Endpoint_AVR8.h **** 			static inline uint8_t Endpoint_GetCurrentEndpoint(void)
 251:../../protocol/lufa/LUFA-120730/LUFA/Drivers/USB/Core/AVR8/../AVR8/Endpoint_AVR8.h **** 			{
 252:../../protocol/lufa/LUFA-120730/LUFA/Drivers/USB/Core/AVR8/../AVR8/Endpoint_AVR8.h **** 				#if !defined(CONTROL_ONLY_DEVICE)
 253:../../protocol/lufa/LUFA-120730/LUFA/Drivers/USB/Core/AVR8/../AVR8/Endpoint_AVR8.h **** 					return ((UENUM & ENDPOINT_EPNUM_MASK) | Endpoint_GetEndpointDirection());
 254:../../protocol/lufa/LUFA-120730/LUFA/Drivers/USB/Core/AVR8/../AVR8/Endpoint_AVR8.h **** 				#else
 255:../../protocol/lufa/LUFA-120730/LUFA/Drivers/USB/Core/AVR8/../AVR8/Endpoint_AVR8.h **** 					return ENDPOINT_CONTROLEP;
 256:../../protocol/lufa/LUFA-120730/LUFA/Drivers/USB/Core/AVR8/../AVR8/Endpoint_AVR8.h **** 				#endif
 257:../../protocol/lufa/LUFA-120730/LUFA/Drivers/USB/Core/AVR8/../AVR8/Endpoint_AVR8.h **** 			}
 258:../../protocol/lufa/LUFA-120730/LUFA/Drivers/USB/Core/AVR8/../AVR8/Endpoint_AVR8.h **** 
 259:../../protocol/lufa/LUFA-120730/LUFA/Drivers/USB/Core/AVR8/../AVR8/Endpoint_AVR8.h **** 			/** Selects the given endpoint address.
 260:../../protocol/lufa/LUFA-120730/LUFA/Drivers/USB/Core/AVR8/../AVR8/Endpoint_AVR8.h **** 			 *
 261:../../protocol/lufa/LUFA-120730/LUFA/Drivers/USB/Core/AVR8/../AVR8/Endpoint_AVR8.h **** 			 *  Any endpoint operations which do not require the endpoint address to be indicated will opera
 262:../../protocol/lufa/LUFA-120730/LUFA/Drivers/USB/Core/AVR8/../AVR8/Endpoint_AVR8.h **** 			 *  the currently selected endpoint.
 263:../../protocol/lufa/LUFA-120730/LUFA/Drivers/USB/Core/AVR8/../AVR8/Endpoint_AVR8.h **** 			 *
 264:../../protocol/lufa/LUFA-120730/LUFA/Drivers/USB/Core/AVR8/../AVR8/Endpoint_AVR8.h **** 			 *  \param[in] Address Endpoint address to select.
 265:../../protocol/lufa/LUFA-120730/LUFA/Drivers/USB/Core/AVR8/../AVR8/Endpoint_AVR8.h **** 			 */
 266:../../protocol/lufa/LUFA-120730/LUFA/Drivers/USB/Core/AVR8/../AVR8/Endpoint_AVR8.h **** 			static inline void Endpoint_SelectEndpoint(const uint8_t Address) ATTR_ALWAYS_INLINE;
 267:../../protocol/lufa/LUFA-120730/LUFA/Drivers/USB/Core/AVR8/../AVR8/Endpoint_AVR8.h **** 			static inline void Endpoint_SelectEndpoint(const uint8_t Address)
 268:../../protocol/lufa/LUFA-120730/LUFA/Drivers/USB/Core/AVR8/../AVR8/Endpoint_AVR8.h **** 			{
 269:../../protocol/lufa/LUFA-120730/LUFA/Drivers/USB/Core/AVR8/../AVR8/Endpoint_AVR8.h **** 				#if !defined(CONTROL_ONLY_DEVICE)
 270:../../protocol/lufa/LUFA-120730/LUFA/Drivers/USB/Core/AVR8/../AVR8/Endpoint_AVR8.h **** 					UENUM = (Address & ENDPOINT_EPNUM_MASK);
 271:../../protocol/lufa/LUFA-120730/LUFA/Drivers/USB/Core/AVR8/../AVR8/Endpoint_AVR8.h **** 				#endif
 272:../../protocol/lufa/LUFA-120730/LUFA/Drivers/USB/Core/AVR8/../AVR8/Endpoint_AVR8.h **** 			}
 273:../../protocol/lufa/LUFA-120730/LUFA/Drivers/USB/Core/AVR8/../AVR8/Endpoint_AVR8.h **** 
 274:../../protocol/lufa/LUFA-120730/LUFA/Drivers/USB/Core/AVR8/../AVR8/Endpoint_AVR8.h **** 			/** Resets the endpoint bank FIFO. This clears all the endpoint banks and resets the USB control
 275:../../protocol/lufa/LUFA-120730/LUFA/Drivers/USB/Core/AVR8/../AVR8/Endpoint_AVR8.h **** 			 *  data In and Out pointers to the bank's contents.
 276:../../protocol/lufa/LUFA-120730/LUFA/Drivers/USB/Core/AVR8/../AVR8/Endpoint_AVR8.h **** 			 *
 277:../../protocol/lufa/LUFA-120730/LUFA/Drivers/USB/Core/AVR8/../AVR8/Endpoint_AVR8.h **** 			 *  \param[in] Address  Endpoint address whose FIFO buffers are to be reset.
 278:../../protocol/lufa/LUFA-120730/LUFA/Drivers/USB/Core/AVR8/../AVR8/Endpoint_AVR8.h **** 			 */
 279:../../protocol/lufa/LUFA-120730/LUFA/Drivers/USB/Core/AVR8/../AVR8/Endpoint_AVR8.h **** 			static inline void Endpoint_ResetEndpoint(const uint8_t Address) ATTR_ALWAYS_INLINE;
 280:../../protocol/lufa/LUFA-120730/LUFA/Drivers/USB/Core/AVR8/../AVR8/Endpoint_AVR8.h **** 			static inline void Endpoint_ResetEndpoint(const uint8_t Address)
 281:../../protocol/lufa/LUFA-120730/LUFA/Drivers/USB/Core/AVR8/../AVR8/Endpoint_AVR8.h **** 			{
 282:../../protocol/lufa/LUFA-120730/LUFA/Drivers/USB/Core/AVR8/../AVR8/Endpoint_AVR8.h **** 				UERST = (1 << (Address & ENDPOINT_EPNUM_MASK));
 283:../../protocol/lufa/LUFA-120730/LUFA/Drivers/USB/Core/AVR8/../AVR8/Endpoint_AVR8.h **** 				UERST = 0;
 284:../../protocol/lufa/LUFA-120730/LUFA/Drivers/USB/Core/AVR8/../AVR8/Endpoint_AVR8.h **** 			}
 285:../../protocol/lufa/LUFA-120730/LUFA/Drivers/USB/Core/AVR8/../AVR8/Endpoint_AVR8.h **** 
 286:../../protocol/lufa/LUFA-120730/LUFA/Drivers/USB/Core/AVR8/../AVR8/Endpoint_AVR8.h **** 			/** Enables the currently selected endpoint so that data can be sent and received through it to
 287:../../protocol/lufa/LUFA-120730/LUFA/Drivers/USB/Core/AVR8/../AVR8/Endpoint_AVR8.h **** 			 *  and from a host.
 288:../../protocol/lufa/LUFA-120730/LUFA/Drivers/USB/Core/AVR8/../AVR8/Endpoint_AVR8.h **** 			 *
 289:../../protocol/lufa/LUFA-120730/LUFA/Drivers/USB/Core/AVR8/../AVR8/Endpoint_AVR8.h **** 			 *  \note Endpoints must first be configured properly via \ref Endpoint_ConfigureEndpoint().
 290:../../protocol/lufa/LUFA-120730/LUFA/Drivers/USB/Core/AVR8/../AVR8/Endpoint_AVR8.h **** 			 */
 291:../../protocol/lufa/LUFA-120730/LUFA/Drivers/USB/Core/AVR8/../AVR8/Endpoint_AVR8.h **** 			static inline void Endpoint_EnableEndpoint(void) ATTR_ALWAYS_INLINE;
 292:../../protocol/lufa/LUFA-120730/LUFA/Drivers/USB/Core/AVR8/../AVR8/Endpoint_AVR8.h **** 			static inline void Endpoint_EnableEndpoint(void)
 293:../../protocol/lufa/LUFA-120730/LUFA/Drivers/USB/Core/AVR8/../AVR8/Endpoint_AVR8.h **** 			{
 294:../../protocol/lufa/LUFA-120730/LUFA/Drivers/USB/Core/AVR8/../AVR8/Endpoint_AVR8.h **** 				UECONX |= (1 << EPEN);
 295:../../protocol/lufa/LUFA-120730/LUFA/Drivers/USB/Core/AVR8/../AVR8/Endpoint_AVR8.h **** 			}
 296:../../protocol/lufa/LUFA-120730/LUFA/Drivers/USB/Core/AVR8/../AVR8/Endpoint_AVR8.h **** 
 297:../../protocol/lufa/LUFA-120730/LUFA/Drivers/USB/Core/AVR8/../AVR8/Endpoint_AVR8.h **** 			/** Disables the currently selected endpoint so that data cannot be sent and received through it
 298:../../protocol/lufa/LUFA-120730/LUFA/Drivers/USB/Core/AVR8/../AVR8/Endpoint_AVR8.h **** 			 *  to and from a host.
 299:../../protocol/lufa/LUFA-120730/LUFA/Drivers/USB/Core/AVR8/../AVR8/Endpoint_AVR8.h **** 			 */
 300:../../protocol/lufa/LUFA-120730/LUFA/Drivers/USB/Core/AVR8/../AVR8/Endpoint_AVR8.h **** 			static inline void Endpoint_DisableEndpoint(void) ATTR_ALWAYS_INLINE;
 301:../../protocol/lufa/LUFA-120730/LUFA/Drivers/USB/Core/AVR8/../AVR8/Endpoint_AVR8.h **** 			static inline void Endpoint_DisableEndpoint(void)
 302:../../protocol/lufa/LUFA-120730/LUFA/Drivers/USB/Core/AVR8/../AVR8/Endpoint_AVR8.h **** 			{
 303:../../protocol/lufa/LUFA-120730/LUFA/Drivers/USB/Core/AVR8/../AVR8/Endpoint_AVR8.h **** 				UECONX &= ~(1 << EPEN);
 304:../../protocol/lufa/LUFA-120730/LUFA/Drivers/USB/Core/AVR8/../AVR8/Endpoint_AVR8.h **** 			}
 305:../../protocol/lufa/LUFA-120730/LUFA/Drivers/USB/Core/AVR8/../AVR8/Endpoint_AVR8.h **** 
 306:../../protocol/lufa/LUFA-120730/LUFA/Drivers/USB/Core/AVR8/../AVR8/Endpoint_AVR8.h **** 			/** Determines if the currently selected endpoint is enabled, but not necessarily configured.
 307:../../protocol/lufa/LUFA-120730/LUFA/Drivers/USB/Core/AVR8/../AVR8/Endpoint_AVR8.h **** 			 *
 308:../../protocol/lufa/LUFA-120730/LUFA/Drivers/USB/Core/AVR8/../AVR8/Endpoint_AVR8.h **** 			 * \return Boolean \c true if the currently selected endpoint is enabled, \c false otherwise.
 309:../../protocol/lufa/LUFA-120730/LUFA/Drivers/USB/Core/AVR8/../AVR8/Endpoint_AVR8.h **** 			 */
 310:../../protocol/lufa/LUFA-120730/LUFA/Drivers/USB/Core/AVR8/../AVR8/Endpoint_AVR8.h **** 			static inline bool Endpoint_IsEnabled(void) ATTR_WARN_UNUSED_RESULT ATTR_ALWAYS_INLINE;
 311:../../protocol/lufa/LUFA-120730/LUFA/Drivers/USB/Core/AVR8/../AVR8/Endpoint_AVR8.h **** 			static inline bool Endpoint_IsEnabled(void)
 312:../../protocol/lufa/LUFA-120730/LUFA/Drivers/USB/Core/AVR8/../AVR8/Endpoint_AVR8.h **** 			{
 313:../../protocol/lufa/LUFA-120730/LUFA/Drivers/USB/Core/AVR8/../AVR8/Endpoint_AVR8.h **** 				return ((UECONX & (1 << EPEN)) ? true : false);
 314:../../protocol/lufa/LUFA-120730/LUFA/Drivers/USB/Core/AVR8/../AVR8/Endpoint_AVR8.h **** 			}
 315:../../protocol/lufa/LUFA-120730/LUFA/Drivers/USB/Core/AVR8/../AVR8/Endpoint_AVR8.h **** 
 316:../../protocol/lufa/LUFA-120730/LUFA/Drivers/USB/Core/AVR8/../AVR8/Endpoint_AVR8.h **** 			/** Retrieves the number of busy banks in the currently selected endpoint, which have been queue
 317:../../protocol/lufa/LUFA-120730/LUFA/Drivers/USB/Core/AVR8/../AVR8/Endpoint_AVR8.h **** 			 *  transmission via the \ref Endpoint_ClearIN() command, or are awaiting acknowledgement via th
 318:../../protocol/lufa/LUFA-120730/LUFA/Drivers/USB/Core/AVR8/../AVR8/Endpoint_AVR8.h **** 			 *  \ref Endpoint_ClearOUT() command.
 319:../../protocol/lufa/LUFA-120730/LUFA/Drivers/USB/Core/AVR8/../AVR8/Endpoint_AVR8.h **** 			 *
 320:../../protocol/lufa/LUFA-120730/LUFA/Drivers/USB/Core/AVR8/../AVR8/Endpoint_AVR8.h **** 			 *  \ingroup Group_EndpointPacketManagement_AVR8
 321:../../protocol/lufa/LUFA-120730/LUFA/Drivers/USB/Core/AVR8/../AVR8/Endpoint_AVR8.h **** 			 *
 322:../../protocol/lufa/LUFA-120730/LUFA/Drivers/USB/Core/AVR8/../AVR8/Endpoint_AVR8.h **** 			 *  \return Total number of busy banks in the selected endpoint.
 323:../../protocol/lufa/LUFA-120730/LUFA/Drivers/USB/Core/AVR8/../AVR8/Endpoint_AVR8.h **** 			 */
 324:../../protocol/lufa/LUFA-120730/LUFA/Drivers/USB/Core/AVR8/../AVR8/Endpoint_AVR8.h **** 			static inline uint8_t Endpoint_GetBusyBanks(void) ATTR_ALWAYS_INLINE ATTR_WARN_UNUSED_RESULT;
 325:../../protocol/lufa/LUFA-120730/LUFA/Drivers/USB/Core/AVR8/../AVR8/Endpoint_AVR8.h **** 			static inline uint8_t Endpoint_GetBusyBanks(void)
 326:../../protocol/lufa/LUFA-120730/LUFA/Drivers/USB/Core/AVR8/../AVR8/Endpoint_AVR8.h **** 			{
 327:../../protocol/lufa/LUFA-120730/LUFA/Drivers/USB/Core/AVR8/../AVR8/Endpoint_AVR8.h **** 				return (UESTA0X & (0x03 << NBUSYBK0));
 328:../../protocol/lufa/LUFA-120730/LUFA/Drivers/USB/Core/AVR8/../AVR8/Endpoint_AVR8.h **** 			}
 329:../../protocol/lufa/LUFA-120730/LUFA/Drivers/USB/Core/AVR8/../AVR8/Endpoint_AVR8.h **** 
 330:../../protocol/lufa/LUFA-120730/LUFA/Drivers/USB/Core/AVR8/../AVR8/Endpoint_AVR8.h **** 			/** Aborts all pending IN transactions on the currently selected endpoint, once the bank
 331:../../protocol/lufa/LUFA-120730/LUFA/Drivers/USB/Core/AVR8/../AVR8/Endpoint_AVR8.h **** 			 *  has been queued for transmission to the host via \ref Endpoint_ClearIN(). This function
 332:../../protocol/lufa/LUFA-120730/LUFA/Drivers/USB/Core/AVR8/../AVR8/Endpoint_AVR8.h **** 			 *  will terminate all queued transactions, resetting the endpoint banks ready for a new
 333:../../protocol/lufa/LUFA-120730/LUFA/Drivers/USB/Core/AVR8/../AVR8/Endpoint_AVR8.h **** 			 *  packet.
 334:../../protocol/lufa/LUFA-120730/LUFA/Drivers/USB/Core/AVR8/../AVR8/Endpoint_AVR8.h **** 			 *
 335:../../protocol/lufa/LUFA-120730/LUFA/Drivers/USB/Core/AVR8/../AVR8/Endpoint_AVR8.h **** 			 *  \ingroup Group_EndpointPacketManagement_AVR8
 336:../../protocol/lufa/LUFA-120730/LUFA/Drivers/USB/Core/AVR8/../AVR8/Endpoint_AVR8.h **** 			 */
 337:../../protocol/lufa/LUFA-120730/LUFA/Drivers/USB/Core/AVR8/../AVR8/Endpoint_AVR8.h **** 			static inline void Endpoint_AbortPendingIN(void)
 338:../../protocol/lufa/LUFA-120730/LUFA/Drivers/USB/Core/AVR8/../AVR8/Endpoint_AVR8.h **** 			{
 339:../../protocol/lufa/LUFA-120730/LUFA/Drivers/USB/Core/AVR8/../AVR8/Endpoint_AVR8.h **** 				while (Endpoint_GetBusyBanks() != 0)
 340:../../protocol/lufa/LUFA-120730/LUFA/Drivers/USB/Core/AVR8/../AVR8/Endpoint_AVR8.h **** 				{
 341:../../protocol/lufa/LUFA-120730/LUFA/Drivers/USB/Core/AVR8/../AVR8/Endpoint_AVR8.h **** 					UEINTX |= (1 << RXOUTI);
 342:../../protocol/lufa/LUFA-120730/LUFA/Drivers/USB/Core/AVR8/../AVR8/Endpoint_AVR8.h **** 					while (UEINTX & (1 << RXOUTI));
 343:../../protocol/lufa/LUFA-120730/LUFA/Drivers/USB/Core/AVR8/../AVR8/Endpoint_AVR8.h **** 				}
 344:../../protocol/lufa/LUFA-120730/LUFA/Drivers/USB/Core/AVR8/../AVR8/Endpoint_AVR8.h **** 			}
 345:../../protocol/lufa/LUFA-120730/LUFA/Drivers/USB/Core/AVR8/../AVR8/Endpoint_AVR8.h **** 
 346:../../protocol/lufa/LUFA-120730/LUFA/Drivers/USB/Core/AVR8/../AVR8/Endpoint_AVR8.h **** 			/** Determines if the currently selected endpoint may be read from (if data is waiting in the en
 347:../../protocol/lufa/LUFA-120730/LUFA/Drivers/USB/Core/AVR8/../AVR8/Endpoint_AVR8.h **** 			 *  bank and the endpoint is an OUT direction, or if the bank is not yet full if the endpoint is
 348:../../protocol/lufa/LUFA-120730/LUFA/Drivers/USB/Core/AVR8/../AVR8/Endpoint_AVR8.h **** 			 *  direction). This function will return false if an error has occurred in the endpoint, if the
 349:../../protocol/lufa/LUFA-120730/LUFA/Drivers/USB/Core/AVR8/../AVR8/Endpoint_AVR8.h **** 			 *  is an OUT direction and no packet (or an empty packet) has been received, or if the endpoint
 350:../../protocol/lufa/LUFA-120730/LUFA/Drivers/USB/Core/AVR8/../AVR8/Endpoint_AVR8.h **** 			 *  direction and the endpoint bank is full.
 351:../../protocol/lufa/LUFA-120730/LUFA/Drivers/USB/Core/AVR8/../AVR8/Endpoint_AVR8.h **** 			 *
 352:../../protocol/lufa/LUFA-120730/LUFA/Drivers/USB/Core/AVR8/../AVR8/Endpoint_AVR8.h **** 			 *  \ingroup Group_EndpointPacketManagement_AVR8
 353:../../protocol/lufa/LUFA-120730/LUFA/Drivers/USB/Core/AVR8/../AVR8/Endpoint_AVR8.h **** 			 *
 354:../../protocol/lufa/LUFA-120730/LUFA/Drivers/USB/Core/AVR8/../AVR8/Endpoint_AVR8.h **** 			 *  \return Boolean \c true if the currently selected endpoint may be read from or written to, d
 355:../../protocol/lufa/LUFA-120730/LUFA/Drivers/USB/Core/AVR8/../AVR8/Endpoint_AVR8.h **** 			 *          on its direction.
 356:../../protocol/lufa/LUFA-120730/LUFA/Drivers/USB/Core/AVR8/../AVR8/Endpoint_AVR8.h **** 			 */
 357:../../protocol/lufa/LUFA-120730/LUFA/Drivers/USB/Core/AVR8/../AVR8/Endpoint_AVR8.h **** 			static inline bool Endpoint_IsReadWriteAllowed(void) ATTR_WARN_UNUSED_RESULT ATTR_ALWAYS_INLINE;
 358:../../protocol/lufa/LUFA-120730/LUFA/Drivers/USB/Core/AVR8/../AVR8/Endpoint_AVR8.h **** 			static inline bool Endpoint_IsReadWriteAllowed(void)
 359:../../protocol/lufa/LUFA-120730/LUFA/Drivers/USB/Core/AVR8/../AVR8/Endpoint_AVR8.h **** 			{
 360:../../protocol/lufa/LUFA-120730/LUFA/Drivers/USB/Core/AVR8/../AVR8/Endpoint_AVR8.h **** 				return ((UEINTX & (1 << RWAL)) ? true : false);
 361:../../protocol/lufa/LUFA-120730/LUFA/Drivers/USB/Core/AVR8/../AVR8/Endpoint_AVR8.h **** 			}
 362:../../protocol/lufa/LUFA-120730/LUFA/Drivers/USB/Core/AVR8/../AVR8/Endpoint_AVR8.h **** 
 363:../../protocol/lufa/LUFA-120730/LUFA/Drivers/USB/Core/AVR8/../AVR8/Endpoint_AVR8.h **** 			/** Determines if the currently selected endpoint is configured.
 364:../../protocol/lufa/LUFA-120730/LUFA/Drivers/USB/Core/AVR8/../AVR8/Endpoint_AVR8.h **** 			 *
 365:../../protocol/lufa/LUFA-120730/LUFA/Drivers/USB/Core/AVR8/../AVR8/Endpoint_AVR8.h **** 			 *  \return Boolean \c true if the currently selected endpoint has been configured, \c false oth
 366:../../protocol/lufa/LUFA-120730/LUFA/Drivers/USB/Core/AVR8/../AVR8/Endpoint_AVR8.h **** 			 */
 367:../../protocol/lufa/LUFA-120730/LUFA/Drivers/USB/Core/AVR8/../AVR8/Endpoint_AVR8.h **** 			static inline bool Endpoint_IsConfigured(void) ATTR_WARN_UNUSED_RESULT ATTR_ALWAYS_INLINE;
 368:../../protocol/lufa/LUFA-120730/LUFA/Drivers/USB/Core/AVR8/../AVR8/Endpoint_AVR8.h **** 			static inline bool Endpoint_IsConfigured(void)
 369:../../protocol/lufa/LUFA-120730/LUFA/Drivers/USB/Core/AVR8/../AVR8/Endpoint_AVR8.h **** 			{
 370:../../protocol/lufa/LUFA-120730/LUFA/Drivers/USB/Core/AVR8/../AVR8/Endpoint_AVR8.h **** 				return ((UESTA0X & (1 << CFGOK)) ? true : false);
 371:../../protocol/lufa/LUFA-120730/LUFA/Drivers/USB/Core/AVR8/../AVR8/Endpoint_AVR8.h **** 			}
 372:../../protocol/lufa/LUFA-120730/LUFA/Drivers/USB/Core/AVR8/../AVR8/Endpoint_AVR8.h **** 
 373:../../protocol/lufa/LUFA-120730/LUFA/Drivers/USB/Core/AVR8/../AVR8/Endpoint_AVR8.h **** 			/** Returns a mask indicating which INTERRUPT type endpoints have interrupted - i.e. their
 374:../../protocol/lufa/LUFA-120730/LUFA/Drivers/USB/Core/AVR8/../AVR8/Endpoint_AVR8.h **** 			 *  interrupt duration has elapsed. Which endpoints have interrupted can be determined by
 375:../../protocol/lufa/LUFA-120730/LUFA/Drivers/USB/Core/AVR8/../AVR8/Endpoint_AVR8.h **** 			 *  masking the return value against <tt>(1 << <i>{Endpoint Number}</i>)</tt>.
 376:../../protocol/lufa/LUFA-120730/LUFA/Drivers/USB/Core/AVR8/../AVR8/Endpoint_AVR8.h **** 			 *
 377:../../protocol/lufa/LUFA-120730/LUFA/Drivers/USB/Core/AVR8/../AVR8/Endpoint_AVR8.h **** 			 *  \return Mask whose bits indicate which endpoints have interrupted.
 378:../../protocol/lufa/LUFA-120730/LUFA/Drivers/USB/Core/AVR8/../AVR8/Endpoint_AVR8.h **** 			 */
 379:../../protocol/lufa/LUFA-120730/LUFA/Drivers/USB/Core/AVR8/../AVR8/Endpoint_AVR8.h **** 			static inline uint8_t Endpoint_GetEndpointInterrupts(void) ATTR_WARN_UNUSED_RESULT ATTR_ALWAYS_I
 380:../../protocol/lufa/LUFA-120730/LUFA/Drivers/USB/Core/AVR8/../AVR8/Endpoint_AVR8.h **** 			static inline uint8_t Endpoint_GetEndpointInterrupts(void)
 381:../../protocol/lufa/LUFA-120730/LUFA/Drivers/USB/Core/AVR8/../AVR8/Endpoint_AVR8.h **** 			{
 382:../../protocol/lufa/LUFA-120730/LUFA/Drivers/USB/Core/AVR8/../AVR8/Endpoint_AVR8.h **** 				return UEINT;
 383:../../protocol/lufa/LUFA-120730/LUFA/Drivers/USB/Core/AVR8/../AVR8/Endpoint_AVR8.h **** 			}
 384:../../protocol/lufa/LUFA-120730/LUFA/Drivers/USB/Core/AVR8/../AVR8/Endpoint_AVR8.h **** 
 385:../../protocol/lufa/LUFA-120730/LUFA/Drivers/USB/Core/AVR8/../AVR8/Endpoint_AVR8.h **** 			/** Determines if the specified endpoint number has interrupted (valid only for INTERRUPT type
 386:../../protocol/lufa/LUFA-120730/LUFA/Drivers/USB/Core/AVR8/../AVR8/Endpoint_AVR8.h **** 			 *  endpoints).
 387:../../protocol/lufa/LUFA-120730/LUFA/Drivers/USB/Core/AVR8/../AVR8/Endpoint_AVR8.h **** 			 *
 388:../../protocol/lufa/LUFA-120730/LUFA/Drivers/USB/Core/AVR8/../AVR8/Endpoint_AVR8.h **** 			 *  \param[in] Address  Address of the endpoint whose interrupt flag should be tested.
 389:../../protocol/lufa/LUFA-120730/LUFA/Drivers/USB/Core/AVR8/../AVR8/Endpoint_AVR8.h **** 			 *
 390:../../protocol/lufa/LUFA-120730/LUFA/Drivers/USB/Core/AVR8/../AVR8/Endpoint_AVR8.h **** 			 *  \return Boolean \c true if the specified endpoint has interrupted, \c false otherwise.
 391:../../protocol/lufa/LUFA-120730/LUFA/Drivers/USB/Core/AVR8/../AVR8/Endpoint_AVR8.h **** 			 */
 392:../../protocol/lufa/LUFA-120730/LUFA/Drivers/USB/Core/AVR8/../AVR8/Endpoint_AVR8.h **** 			static inline bool Endpoint_HasEndpointInterrupted(const uint8_t Address) ATTR_WARN_UNUSED_RESUL
 393:../../protocol/lufa/LUFA-120730/LUFA/Drivers/USB/Core/AVR8/../AVR8/Endpoint_AVR8.h **** 			static inline bool Endpoint_HasEndpointInterrupted(const uint8_t Address)
 394:../../protocol/lufa/LUFA-120730/LUFA/Drivers/USB/Core/AVR8/../AVR8/Endpoint_AVR8.h **** 			{
 395:../../protocol/lufa/LUFA-120730/LUFA/Drivers/USB/Core/AVR8/../AVR8/Endpoint_AVR8.h **** 				return ((Endpoint_GetEndpointInterrupts() & (1 << (Address & ENDPOINT_EPNUM_MASK))) ? true : fa
 396:../../protocol/lufa/LUFA-120730/LUFA/Drivers/USB/Core/AVR8/../AVR8/Endpoint_AVR8.h **** 			}
 397:../../protocol/lufa/LUFA-120730/LUFA/Drivers/USB/Core/AVR8/../AVR8/Endpoint_AVR8.h **** 
 398:../../protocol/lufa/LUFA-120730/LUFA/Drivers/USB/Core/AVR8/../AVR8/Endpoint_AVR8.h **** 			/** Determines if the selected IN endpoint is ready for a new packet to be sent to the host.
 399:../../protocol/lufa/LUFA-120730/LUFA/Drivers/USB/Core/AVR8/../AVR8/Endpoint_AVR8.h **** 			 *
 400:../../protocol/lufa/LUFA-120730/LUFA/Drivers/USB/Core/AVR8/../AVR8/Endpoint_AVR8.h **** 			 *  \ingroup Group_EndpointPacketManagement_AVR8
 401:../../protocol/lufa/LUFA-120730/LUFA/Drivers/USB/Core/AVR8/../AVR8/Endpoint_AVR8.h **** 			 *
 402:../../protocol/lufa/LUFA-120730/LUFA/Drivers/USB/Core/AVR8/../AVR8/Endpoint_AVR8.h **** 			 *  \return Boolean \c true if the current endpoint is ready for an IN packet, \c false otherwis
 403:../../protocol/lufa/LUFA-120730/LUFA/Drivers/USB/Core/AVR8/../AVR8/Endpoint_AVR8.h **** 			 */
 404:../../protocol/lufa/LUFA-120730/LUFA/Drivers/USB/Core/AVR8/../AVR8/Endpoint_AVR8.h **** 			static inline bool Endpoint_IsINReady(void) ATTR_WARN_UNUSED_RESULT ATTR_ALWAYS_INLINE;
 405:../../protocol/lufa/LUFA-120730/LUFA/Drivers/USB/Core/AVR8/../AVR8/Endpoint_AVR8.h **** 			static inline bool Endpoint_IsINReady(void)
 406:../../protocol/lufa/LUFA-120730/LUFA/Drivers/USB/Core/AVR8/../AVR8/Endpoint_AVR8.h **** 			{
 407:../../protocol/lufa/LUFA-120730/LUFA/Drivers/USB/Core/AVR8/../AVR8/Endpoint_AVR8.h **** 				return ((UEINTX & (1 << TXINI)) ? true : false);
 408:../../protocol/lufa/LUFA-120730/LUFA/Drivers/USB/Core/AVR8/../AVR8/Endpoint_AVR8.h **** 			}
 409:../../protocol/lufa/LUFA-120730/LUFA/Drivers/USB/Core/AVR8/../AVR8/Endpoint_AVR8.h **** 
 410:../../protocol/lufa/LUFA-120730/LUFA/Drivers/USB/Core/AVR8/../AVR8/Endpoint_AVR8.h **** 			/** Determines if the selected OUT endpoint has received new packet from the host.
 411:../../protocol/lufa/LUFA-120730/LUFA/Drivers/USB/Core/AVR8/../AVR8/Endpoint_AVR8.h **** 			 *
 412:../../protocol/lufa/LUFA-120730/LUFA/Drivers/USB/Core/AVR8/../AVR8/Endpoint_AVR8.h **** 			 *  \ingroup Group_EndpointPacketManagement_AVR8
 413:../../protocol/lufa/LUFA-120730/LUFA/Drivers/USB/Core/AVR8/../AVR8/Endpoint_AVR8.h **** 			 *
 414:../../protocol/lufa/LUFA-120730/LUFA/Drivers/USB/Core/AVR8/../AVR8/Endpoint_AVR8.h **** 			 *  \return Boolean \c true if current endpoint is has received an OUT packet, \c false otherwis
 415:../../protocol/lufa/LUFA-120730/LUFA/Drivers/USB/Core/AVR8/../AVR8/Endpoint_AVR8.h **** 			 */
 416:../../protocol/lufa/LUFA-120730/LUFA/Drivers/USB/Core/AVR8/../AVR8/Endpoint_AVR8.h **** 			static inline bool Endpoint_IsOUTReceived(void) ATTR_WARN_UNUSED_RESULT ATTR_ALWAYS_INLINE;
 417:../../protocol/lufa/LUFA-120730/LUFA/Drivers/USB/Core/AVR8/../AVR8/Endpoint_AVR8.h **** 			static inline bool Endpoint_IsOUTReceived(void)
 418:../../protocol/lufa/LUFA-120730/LUFA/Drivers/USB/Core/AVR8/../AVR8/Endpoint_AVR8.h **** 			{
 419:../../protocol/lufa/LUFA-120730/LUFA/Drivers/USB/Core/AVR8/../AVR8/Endpoint_AVR8.h **** 				return ((UEINTX & (1 << RXOUTI)) ? true : false);
 420:../../protocol/lufa/LUFA-120730/LUFA/Drivers/USB/Core/AVR8/../AVR8/Endpoint_AVR8.h **** 			}
 421:../../protocol/lufa/LUFA-120730/LUFA/Drivers/USB/Core/AVR8/../AVR8/Endpoint_AVR8.h **** 
 422:../../protocol/lufa/LUFA-120730/LUFA/Drivers/USB/Core/AVR8/../AVR8/Endpoint_AVR8.h **** 			/** Determines if the current CONTROL type endpoint has received a SETUP packet.
 423:../../protocol/lufa/LUFA-120730/LUFA/Drivers/USB/Core/AVR8/../AVR8/Endpoint_AVR8.h **** 			 *
 424:../../protocol/lufa/LUFA-120730/LUFA/Drivers/USB/Core/AVR8/../AVR8/Endpoint_AVR8.h **** 			 *  \ingroup Group_EndpointPacketManagement_AVR8
 425:../../protocol/lufa/LUFA-120730/LUFA/Drivers/USB/Core/AVR8/../AVR8/Endpoint_AVR8.h **** 			 *
 426:../../protocol/lufa/LUFA-120730/LUFA/Drivers/USB/Core/AVR8/../AVR8/Endpoint_AVR8.h **** 			 *  \return Boolean \c true if the selected endpoint has received a SETUP packet, \c false other
 427:../../protocol/lufa/LUFA-120730/LUFA/Drivers/USB/Core/AVR8/../AVR8/Endpoint_AVR8.h **** 			 */
 428:../../protocol/lufa/LUFA-120730/LUFA/Drivers/USB/Core/AVR8/../AVR8/Endpoint_AVR8.h **** 			static inline bool Endpoint_IsSETUPReceived(void) ATTR_WARN_UNUSED_RESULT ATTR_ALWAYS_INLINE;
 429:../../protocol/lufa/LUFA-120730/LUFA/Drivers/USB/Core/AVR8/../AVR8/Endpoint_AVR8.h **** 			static inline bool Endpoint_IsSETUPReceived(void)
 430:../../protocol/lufa/LUFA-120730/LUFA/Drivers/USB/Core/AVR8/../AVR8/Endpoint_AVR8.h **** 			{
 431:../../protocol/lufa/LUFA-120730/LUFA/Drivers/USB/Core/AVR8/../AVR8/Endpoint_AVR8.h **** 				return ((UEINTX & (1 << RXSTPI)) ? true : false);
 432:../../protocol/lufa/LUFA-120730/LUFA/Drivers/USB/Core/AVR8/../AVR8/Endpoint_AVR8.h **** 			}
 433:../../protocol/lufa/LUFA-120730/LUFA/Drivers/USB/Core/AVR8/../AVR8/Endpoint_AVR8.h **** 
 434:../../protocol/lufa/LUFA-120730/LUFA/Drivers/USB/Core/AVR8/../AVR8/Endpoint_AVR8.h **** 			/** Clears a received SETUP packet on the currently selected CONTROL type endpoint, freeing up t
 435:../../protocol/lufa/LUFA-120730/LUFA/Drivers/USB/Core/AVR8/../AVR8/Endpoint_AVR8.h **** 			 *  endpoint for the next packet.
 436:../../protocol/lufa/LUFA-120730/LUFA/Drivers/USB/Core/AVR8/../AVR8/Endpoint_AVR8.h **** 			 *
 437:../../protocol/lufa/LUFA-120730/LUFA/Drivers/USB/Core/AVR8/../AVR8/Endpoint_AVR8.h **** 			 *  \ingroup Group_EndpointPacketManagement_AVR8
 438:../../protocol/lufa/LUFA-120730/LUFA/Drivers/USB/Core/AVR8/../AVR8/Endpoint_AVR8.h **** 			 *
 439:../../protocol/lufa/LUFA-120730/LUFA/Drivers/USB/Core/AVR8/../AVR8/Endpoint_AVR8.h **** 			 *  \note This is not applicable for non CONTROL type endpoints.
 440:../../protocol/lufa/LUFA-120730/LUFA/Drivers/USB/Core/AVR8/../AVR8/Endpoint_AVR8.h **** 			 */
 441:../../protocol/lufa/LUFA-120730/LUFA/Drivers/USB/Core/AVR8/../AVR8/Endpoint_AVR8.h **** 			static inline void Endpoint_ClearSETUP(void) ATTR_ALWAYS_INLINE;
 442:../../protocol/lufa/LUFA-120730/LUFA/Drivers/USB/Core/AVR8/../AVR8/Endpoint_AVR8.h **** 			static inline void Endpoint_ClearSETUP(void)
 443:../../protocol/lufa/LUFA-120730/LUFA/Drivers/USB/Core/AVR8/../AVR8/Endpoint_AVR8.h **** 			{
 444:../../protocol/lufa/LUFA-120730/LUFA/Drivers/USB/Core/AVR8/../AVR8/Endpoint_AVR8.h **** 				UEINTX &= ~(1 << RXSTPI);
 445:../../protocol/lufa/LUFA-120730/LUFA/Drivers/USB/Core/AVR8/../AVR8/Endpoint_AVR8.h **** 			}
 446:../../protocol/lufa/LUFA-120730/LUFA/Drivers/USB/Core/AVR8/../AVR8/Endpoint_AVR8.h **** 
 447:../../protocol/lufa/LUFA-120730/LUFA/Drivers/USB/Core/AVR8/../AVR8/Endpoint_AVR8.h **** 			/** Sends an IN packet to the host on the currently selected endpoint, freeing up the endpoint f
 448:../../protocol/lufa/LUFA-120730/LUFA/Drivers/USB/Core/AVR8/../AVR8/Endpoint_AVR8.h **** 			 *  next packet and switching to the alternative endpoint bank if double banked.
 449:../../protocol/lufa/LUFA-120730/LUFA/Drivers/USB/Core/AVR8/../AVR8/Endpoint_AVR8.h **** 			 *
 450:../../protocol/lufa/LUFA-120730/LUFA/Drivers/USB/Core/AVR8/../AVR8/Endpoint_AVR8.h **** 			 *  \ingroup Group_EndpointPacketManagement_AVR8
 451:../../protocol/lufa/LUFA-120730/LUFA/Drivers/USB/Core/AVR8/../AVR8/Endpoint_AVR8.h **** 			 */
 452:../../protocol/lufa/LUFA-120730/LUFA/Drivers/USB/Core/AVR8/../AVR8/Endpoint_AVR8.h **** 			static inline void Endpoint_ClearIN(void) ATTR_ALWAYS_INLINE;
 453:../../protocol/lufa/LUFA-120730/LUFA/Drivers/USB/Core/AVR8/../AVR8/Endpoint_AVR8.h **** 			static inline void Endpoint_ClearIN(void)
 454:../../protocol/lufa/LUFA-120730/LUFA/Drivers/USB/Core/AVR8/../AVR8/Endpoint_AVR8.h **** 			{
 455:../../protocol/lufa/LUFA-120730/LUFA/Drivers/USB/Core/AVR8/../AVR8/Endpoint_AVR8.h **** 				#if !defined(CONTROL_ONLY_DEVICE)
 456:../../protocol/lufa/LUFA-120730/LUFA/Drivers/USB/Core/AVR8/../AVR8/Endpoint_AVR8.h **** 					UEINTX &= ~((1 << TXINI) | (1 << FIFOCON));
 457:../../protocol/lufa/LUFA-120730/LUFA/Drivers/USB/Core/AVR8/../AVR8/Endpoint_AVR8.h **** 				#else
 458:../../protocol/lufa/LUFA-120730/LUFA/Drivers/USB/Core/AVR8/../AVR8/Endpoint_AVR8.h **** 					UEINTX &= ~(1 << TXINI);
 459:../../protocol/lufa/LUFA-120730/LUFA/Drivers/USB/Core/AVR8/../AVR8/Endpoint_AVR8.h **** 				#endif
 460:../../protocol/lufa/LUFA-120730/LUFA/Drivers/USB/Core/AVR8/../AVR8/Endpoint_AVR8.h **** 			}
 461:../../protocol/lufa/LUFA-120730/LUFA/Drivers/USB/Core/AVR8/../AVR8/Endpoint_AVR8.h **** 
 462:../../protocol/lufa/LUFA-120730/LUFA/Drivers/USB/Core/AVR8/../AVR8/Endpoint_AVR8.h **** 			/** Acknowledges an OUT packet to the host on the currently selected endpoint, freeing up the en
 463:../../protocol/lufa/LUFA-120730/LUFA/Drivers/USB/Core/AVR8/../AVR8/Endpoint_AVR8.h **** 			 *  for the next packet and switching to the alternative endpoint bank if double banked.
 464:../../protocol/lufa/LUFA-120730/LUFA/Drivers/USB/Core/AVR8/../AVR8/Endpoint_AVR8.h **** 			 *
 465:../../protocol/lufa/LUFA-120730/LUFA/Drivers/USB/Core/AVR8/../AVR8/Endpoint_AVR8.h **** 			 *  \ingroup Group_EndpointPacketManagement_AVR8
 466:../../protocol/lufa/LUFA-120730/LUFA/Drivers/USB/Core/AVR8/../AVR8/Endpoint_AVR8.h **** 			 */
 467:../../protocol/lufa/LUFA-120730/LUFA/Drivers/USB/Core/AVR8/../AVR8/Endpoint_AVR8.h **** 			static inline void Endpoint_ClearOUT(void) ATTR_ALWAYS_INLINE;
 468:../../protocol/lufa/LUFA-120730/LUFA/Drivers/USB/Core/AVR8/../AVR8/Endpoint_AVR8.h **** 			static inline void Endpoint_ClearOUT(void)
 469:../../protocol/lufa/LUFA-120730/LUFA/Drivers/USB/Core/AVR8/../AVR8/Endpoint_AVR8.h **** 			{
 470:../../protocol/lufa/LUFA-120730/LUFA/Drivers/USB/Core/AVR8/../AVR8/Endpoint_AVR8.h **** 				#if !defined(CONTROL_ONLY_DEVICE)
 471:../../protocol/lufa/LUFA-120730/LUFA/Drivers/USB/Core/AVR8/../AVR8/Endpoint_AVR8.h **** 					UEINTX &= ~((1 << RXOUTI) | (1 << FIFOCON));
 472:../../protocol/lufa/LUFA-120730/LUFA/Drivers/USB/Core/AVR8/../AVR8/Endpoint_AVR8.h **** 				#else
 473:../../protocol/lufa/LUFA-120730/LUFA/Drivers/USB/Core/AVR8/../AVR8/Endpoint_AVR8.h **** 					UEINTX &= ~(1 << RXOUTI);
 474:../../protocol/lufa/LUFA-120730/LUFA/Drivers/USB/Core/AVR8/../AVR8/Endpoint_AVR8.h **** 				#endif
 475:../../protocol/lufa/LUFA-120730/LUFA/Drivers/USB/Core/AVR8/../AVR8/Endpoint_AVR8.h **** 			}
 476:../../protocol/lufa/LUFA-120730/LUFA/Drivers/USB/Core/AVR8/../AVR8/Endpoint_AVR8.h **** 
 477:../../protocol/lufa/LUFA-120730/LUFA/Drivers/USB/Core/AVR8/../AVR8/Endpoint_AVR8.h **** 			/** Stalls the current endpoint, indicating to the host that a logical problem occurred with the
 478:../../protocol/lufa/LUFA-120730/LUFA/Drivers/USB/Core/AVR8/../AVR8/Endpoint_AVR8.h **** 			 *  indicated endpoint and that the current transfer sequence should be aborted. This provides a
 479:../../protocol/lufa/LUFA-120730/LUFA/Drivers/USB/Core/AVR8/../AVR8/Endpoint_AVR8.h **** 			 *  way for devices to indicate invalid commands to the host so that the current transfer can be
 480:../../protocol/lufa/LUFA-120730/LUFA/Drivers/USB/Core/AVR8/../AVR8/Endpoint_AVR8.h **** 			 *  aborted and the host can begin its own recovery sequence.
 481:../../protocol/lufa/LUFA-120730/LUFA/Drivers/USB/Core/AVR8/../AVR8/Endpoint_AVR8.h **** 			 *
 482:../../protocol/lufa/LUFA-120730/LUFA/Drivers/USB/Core/AVR8/../AVR8/Endpoint_AVR8.h **** 			 *  The currently selected endpoint remains stalled until either the \ref Endpoint_ClearStall() 
 483:../../protocol/lufa/LUFA-120730/LUFA/Drivers/USB/Core/AVR8/../AVR8/Endpoint_AVR8.h **** 			 *  is called, or the host issues a CLEAR FEATURE request to the device for the currently select
 484:../../protocol/lufa/LUFA-120730/LUFA/Drivers/USB/Core/AVR8/../AVR8/Endpoint_AVR8.h **** 			 *  endpoint.
 485:../../protocol/lufa/LUFA-120730/LUFA/Drivers/USB/Core/AVR8/../AVR8/Endpoint_AVR8.h **** 			 *
 486:../../protocol/lufa/LUFA-120730/LUFA/Drivers/USB/Core/AVR8/../AVR8/Endpoint_AVR8.h **** 			 *  \ingroup Group_EndpointPacketManagement_AVR8
 487:../../protocol/lufa/LUFA-120730/LUFA/Drivers/USB/Core/AVR8/../AVR8/Endpoint_AVR8.h **** 			 */
 488:../../protocol/lufa/LUFA-120730/LUFA/Drivers/USB/Core/AVR8/../AVR8/Endpoint_AVR8.h **** 			static inline void Endpoint_StallTransaction(void) ATTR_ALWAYS_INLINE;
 489:../../protocol/lufa/LUFA-120730/LUFA/Drivers/USB/Core/AVR8/../AVR8/Endpoint_AVR8.h **** 			static inline void Endpoint_StallTransaction(void)
 490:../../protocol/lufa/LUFA-120730/LUFA/Drivers/USB/Core/AVR8/../AVR8/Endpoint_AVR8.h **** 			{
 491:../../protocol/lufa/LUFA-120730/LUFA/Drivers/USB/Core/AVR8/../AVR8/Endpoint_AVR8.h **** 				UECONX |= (1 << STALLRQ);
 492:../../protocol/lufa/LUFA-120730/LUFA/Drivers/USB/Core/AVR8/../AVR8/Endpoint_AVR8.h **** 			}
 493:../../protocol/lufa/LUFA-120730/LUFA/Drivers/USB/Core/AVR8/../AVR8/Endpoint_AVR8.h **** 
 494:../../protocol/lufa/LUFA-120730/LUFA/Drivers/USB/Core/AVR8/../AVR8/Endpoint_AVR8.h **** 			/** Clears the STALL condition on the currently selected endpoint.
 495:../../protocol/lufa/LUFA-120730/LUFA/Drivers/USB/Core/AVR8/../AVR8/Endpoint_AVR8.h **** 			 *
 496:../../protocol/lufa/LUFA-120730/LUFA/Drivers/USB/Core/AVR8/../AVR8/Endpoint_AVR8.h **** 			 *  \ingroup Group_EndpointPacketManagement_AVR8
 497:../../protocol/lufa/LUFA-120730/LUFA/Drivers/USB/Core/AVR8/../AVR8/Endpoint_AVR8.h **** 			 */
 498:../../protocol/lufa/LUFA-120730/LUFA/Drivers/USB/Core/AVR8/../AVR8/Endpoint_AVR8.h **** 			static inline void Endpoint_ClearStall(void) ATTR_ALWAYS_INLINE;
 499:../../protocol/lufa/LUFA-120730/LUFA/Drivers/USB/Core/AVR8/../AVR8/Endpoint_AVR8.h **** 			static inline void Endpoint_ClearStall(void)
 500:../../protocol/lufa/LUFA-120730/LUFA/Drivers/USB/Core/AVR8/../AVR8/Endpoint_AVR8.h **** 			{
 501:../../protocol/lufa/LUFA-120730/LUFA/Drivers/USB/Core/AVR8/../AVR8/Endpoint_AVR8.h **** 				UECONX |= (1 << STALLRQC);
 502:../../protocol/lufa/LUFA-120730/LUFA/Drivers/USB/Core/AVR8/../AVR8/Endpoint_AVR8.h **** 			}
 503:../../protocol/lufa/LUFA-120730/LUFA/Drivers/USB/Core/AVR8/../AVR8/Endpoint_AVR8.h **** 
 504:../../protocol/lufa/LUFA-120730/LUFA/Drivers/USB/Core/AVR8/../AVR8/Endpoint_AVR8.h **** 			/** Determines if the currently selected endpoint is stalled, false otherwise.
 505:../../protocol/lufa/LUFA-120730/LUFA/Drivers/USB/Core/AVR8/../AVR8/Endpoint_AVR8.h **** 			 *
 506:../../protocol/lufa/LUFA-120730/LUFA/Drivers/USB/Core/AVR8/../AVR8/Endpoint_AVR8.h **** 			 *  \ingroup Group_EndpointPacketManagement_AVR8
 507:../../protocol/lufa/LUFA-120730/LUFA/Drivers/USB/Core/AVR8/../AVR8/Endpoint_AVR8.h **** 			 *
 508:../../protocol/lufa/LUFA-120730/LUFA/Drivers/USB/Core/AVR8/../AVR8/Endpoint_AVR8.h **** 			 *  \return Boolean \c true if the currently selected endpoint is stalled, \c false otherwise.
 509:../../protocol/lufa/LUFA-120730/LUFA/Drivers/USB/Core/AVR8/../AVR8/Endpoint_AVR8.h **** 			 */
 510:../../protocol/lufa/LUFA-120730/LUFA/Drivers/USB/Core/AVR8/../AVR8/Endpoint_AVR8.h **** 			static inline bool Endpoint_IsStalled(void) ATTR_WARN_UNUSED_RESULT ATTR_ALWAYS_INLINE;
 511:../../protocol/lufa/LUFA-120730/LUFA/Drivers/USB/Core/AVR8/../AVR8/Endpoint_AVR8.h **** 			static inline bool Endpoint_IsStalled(void)
 512:../../protocol/lufa/LUFA-120730/LUFA/Drivers/USB/Core/AVR8/../AVR8/Endpoint_AVR8.h **** 			{
 513:../../protocol/lufa/LUFA-120730/LUFA/Drivers/USB/Core/AVR8/../AVR8/Endpoint_AVR8.h **** 				return ((UECONX & (1 << STALLRQ)) ? true : false);
 514:../../protocol/lufa/LUFA-120730/LUFA/Drivers/USB/Core/AVR8/../AVR8/Endpoint_AVR8.h **** 			}
 515:../../protocol/lufa/LUFA-120730/LUFA/Drivers/USB/Core/AVR8/../AVR8/Endpoint_AVR8.h **** 
 516:../../protocol/lufa/LUFA-120730/LUFA/Drivers/USB/Core/AVR8/../AVR8/Endpoint_AVR8.h **** 			/** Resets the data toggle of the currently selected endpoint. */
 517:../../protocol/lufa/LUFA-120730/LUFA/Drivers/USB/Core/AVR8/../AVR8/Endpoint_AVR8.h **** 			static inline void Endpoint_ResetDataToggle(void) ATTR_ALWAYS_INLINE;
 518:../../protocol/lufa/LUFA-120730/LUFA/Drivers/USB/Core/AVR8/../AVR8/Endpoint_AVR8.h **** 			static inline void Endpoint_ResetDataToggle(void)
 519:../../protocol/lufa/LUFA-120730/LUFA/Drivers/USB/Core/AVR8/../AVR8/Endpoint_AVR8.h **** 			{
 520:../../protocol/lufa/LUFA-120730/LUFA/Drivers/USB/Core/AVR8/../AVR8/Endpoint_AVR8.h **** 				UECONX |= (1 << RSTDT);
 521:../../protocol/lufa/LUFA-120730/LUFA/Drivers/USB/Core/AVR8/../AVR8/Endpoint_AVR8.h **** 			}
 522:../../protocol/lufa/LUFA-120730/LUFA/Drivers/USB/Core/AVR8/../AVR8/Endpoint_AVR8.h **** 
 523:../../protocol/lufa/LUFA-120730/LUFA/Drivers/USB/Core/AVR8/../AVR8/Endpoint_AVR8.h **** 			/** Sets the direction of the currently selected endpoint.
 524:../../protocol/lufa/LUFA-120730/LUFA/Drivers/USB/Core/AVR8/../AVR8/Endpoint_AVR8.h **** 			 *
 525:../../protocol/lufa/LUFA-120730/LUFA/Drivers/USB/Core/AVR8/../AVR8/Endpoint_AVR8.h **** 			 *  \param[in] DirectionMask  New endpoint direction, as a \c ENDPOINT_DIR_* mask.
 526:../../protocol/lufa/LUFA-120730/LUFA/Drivers/USB/Core/AVR8/../AVR8/Endpoint_AVR8.h **** 			 */
 527:../../protocol/lufa/LUFA-120730/LUFA/Drivers/USB/Core/AVR8/../AVR8/Endpoint_AVR8.h **** 			static inline void Endpoint_SetEndpointDirection(const uint8_t DirectionMask) ATTR_ALWAYS_INLINE
 528:../../protocol/lufa/LUFA-120730/LUFA/Drivers/USB/Core/AVR8/../AVR8/Endpoint_AVR8.h **** 			static inline void Endpoint_SetEndpointDirection(const uint8_t DirectionMask)
 529:../../protocol/lufa/LUFA-120730/LUFA/Drivers/USB/Core/AVR8/../AVR8/Endpoint_AVR8.h **** 			{
 530:../../protocol/lufa/LUFA-120730/LUFA/Drivers/USB/Core/AVR8/../AVR8/Endpoint_AVR8.h **** 				UECFG0X = ((UECFG0X & ~(1 << EPDIR)) | (DirectionMask ? (1 << EPDIR) : 0));
 531:../../protocol/lufa/LUFA-120730/LUFA/Drivers/USB/Core/AVR8/../AVR8/Endpoint_AVR8.h **** 			}
 532:../../protocol/lufa/LUFA-120730/LUFA/Drivers/USB/Core/AVR8/../AVR8/Endpoint_AVR8.h **** 
 533:../../protocol/lufa/LUFA-120730/LUFA/Drivers/USB/Core/AVR8/../AVR8/Endpoint_AVR8.h **** 			/** Reads one byte from the currently selected endpoint's bank, for OUT direction endpoints.
 534:../../protocol/lufa/LUFA-120730/LUFA/Drivers/USB/Core/AVR8/../AVR8/Endpoint_AVR8.h **** 			 *
 535:../../protocol/lufa/LUFA-120730/LUFA/Drivers/USB/Core/AVR8/../AVR8/Endpoint_AVR8.h **** 			 *  \ingroup Group_EndpointPrimitiveRW_AVR8
 536:../../protocol/lufa/LUFA-120730/LUFA/Drivers/USB/Core/AVR8/../AVR8/Endpoint_AVR8.h **** 			 *
 537:../../protocol/lufa/LUFA-120730/LUFA/Drivers/USB/Core/AVR8/../AVR8/Endpoint_AVR8.h **** 			 *  \return Next byte in the currently selected endpoint's FIFO buffer.
 538:../../protocol/lufa/LUFA-120730/LUFA/Drivers/USB/Core/AVR8/../AVR8/Endpoint_AVR8.h **** 			 */
 539:../../protocol/lufa/LUFA-120730/LUFA/Drivers/USB/Core/AVR8/../AVR8/Endpoint_AVR8.h **** 			static inline uint8_t Endpoint_Read_8(void) ATTR_WARN_UNUSED_RESULT ATTR_ALWAYS_INLINE;
 540:../../protocol/lufa/LUFA-120730/LUFA/Drivers/USB/Core/AVR8/../AVR8/Endpoint_AVR8.h **** 			static inline uint8_t Endpoint_Read_8(void)
 541:../../protocol/lufa/LUFA-120730/LUFA/Drivers/USB/Core/AVR8/../AVR8/Endpoint_AVR8.h **** 			{
 542:../../protocol/lufa/LUFA-120730/LUFA/Drivers/USB/Core/AVR8/../AVR8/Endpoint_AVR8.h **** 				return UEDATX;
  59               		.loc 2 542 0 discriminator 2
  60 001c 8091 F100 		lds r24,241
  61               	.LBE180:
  62               	.LBE179:
  51:../../protocol/lufa/LUFA-120730/LUFA/Drivers/USB/Core/DeviceStandardReq.c **** 	#if defined(ARCH_BIG_ENDIAN)
  52:../../protocol/lufa/LUFA-120730/LUFA/Drivers/USB/Core/DeviceStandardReq.c **** 	USB_ControlRequest.bmRequestType = Endpoint_Read_8();
  53:../../protocol/lufa/LUFA-120730/LUFA/Drivers/USB/Core/DeviceStandardReq.c **** 	USB_ControlRequest.bRequest      = Endpoint_Read_8();
  54:../../protocol/lufa/LUFA-120730/LUFA/Drivers/USB/Core/DeviceStandardReq.c **** 	USB_ControlRequest.wValue        = Endpoint_Read_16_LE();
  55:../../protocol/lufa/LUFA-120730/LUFA/Drivers/USB/Core/DeviceStandardReq.c **** 	USB_ControlRequest.wIndex        = Endpoint_Read_16_LE();
  56:../../protocol/lufa/LUFA-120730/LUFA/Drivers/USB/Core/DeviceStandardReq.c **** 	USB_ControlRequest.wLength       = Endpoint_Read_16_LE();
  57:../../protocol/lufa/LUFA-120730/LUFA/Drivers/USB/Core/DeviceStandardReq.c **** 	#else
  58:../../protocol/lufa/LUFA-120730/LUFA/Drivers/USB/Core/DeviceStandardReq.c **** 	uint8_t* RequestHeader = (uint8_t*)&USB_ControlRequest;
  59:../../protocol/lufa/LUFA-120730/LUFA/Drivers/USB/Core/DeviceStandardReq.c **** 
  60:../../protocol/lufa/LUFA-120730/LUFA/Drivers/USB/Core/DeviceStandardReq.c **** 	for (uint8_t RequestHeaderByte = 0; RequestHeaderByte < sizeof(USB_Request_Header_t); RequestHeade
  61:../../protocol/lufa/LUFA-120730/LUFA/Drivers/USB/Core/DeviceStandardReq.c **** 	  *(RequestHeader++) = Endpoint_Read_8();
  63               		.loc 1 61 0 discriminator 2
  64 0020 8193      		st Z+,r24
  65               	.LVL2:
  60:../../protocol/lufa/LUFA-120730/LUFA/Drivers/USB/Core/DeviceStandardReq.c **** 	for (uint8_t RequestHeaderByte = 0; RequestHeaderByte < sizeof(USB_Request_Header_t); RequestHeade
  66               		.loc 1 60 0 discriminator 2
  67 0022 20E0      		ldi r18,hi8(USB_ControlRequest+8)
  68 0024 E030      		cpi r30,lo8(USB_ControlRequest+8)
  69 0026 F207      		cpc r31,r18
  70 0028 01F4      		brne .L3
  71               	.LBE178:
  62:../../protocol/lufa/LUFA-120730/LUFA/Drivers/USB/Core/DeviceStandardReq.c **** 	#endif
  63:../../protocol/lufa/LUFA-120730/LUFA/Drivers/USB/Core/DeviceStandardReq.c **** 
  64:../../protocol/lufa/LUFA-120730/LUFA/Drivers/USB/Core/DeviceStandardReq.c **** 	EVENT_USB_Device_ControlRequest();
  72               		.loc 1 64 0
  73 002a 0E94 0000 		call EVENT_USB_Device_ControlRequest
  74               	.LVL3:
  75               	.LBB181:
  76               	.LBB182:
 431:../../protocol/lufa/LUFA-120730/LUFA/Drivers/USB/Core/AVR8/../AVR8/Endpoint_AVR8.h **** 				return ((UEINTX & (1 << RXSTPI)) ? true : false);
  77               		.loc 2 431 0
  78 002e 8091 E800 		lds r24,232
  79               	.LBE182:
  80               	.LBE181:
  65:../../protocol/lufa/LUFA-120730/LUFA/Drivers/USB/Core/DeviceStandardReq.c **** 
  66:../../protocol/lufa/LUFA-120730/LUFA/Drivers/USB/Core/DeviceStandardReq.c **** 	if (Endpoint_IsSETUPReceived())
  81               		.loc 1 66 0
  82 0032 83FF      		sbrs r24,3
  83 0034 00C0      		rjmp .L4
  84               	.LBB183:
  67:../../protocol/lufa/LUFA-120730/LUFA/Drivers/USB/Core/DeviceStandardReq.c **** 	{
  68:../../protocol/lufa/LUFA-120730/LUFA/Drivers/USB/Core/DeviceStandardReq.c **** 		uint8_t bmRequestType = USB_ControlRequest.bmRequestType;
  85               		.loc 1 68 0
  86 0036 2091 0000 		lds r18,USB_ControlRequest
  87               	.LVL4:
  69:../../protocol/lufa/LUFA-120730/LUFA/Drivers/USB/Core/DeviceStandardReq.c **** 
  70:../../protocol/lufa/LUFA-120730/LUFA/Drivers/USB/Core/DeviceStandardReq.c **** 		switch (USB_ControlRequest.bRequest)
  88               		.loc 1 70 0
  89 003a 3091 0000 		lds r19,USB_ControlRequest+1
  90 003e 832F      		mov r24,r19
  91 0040 90E0      		ldi r25,0
  92 0042 8A30      		cpi r24,10
  93 0044 9105      		cpc r25,__zero_reg__
  94 0046 00F0      		brlo .+2
  95 0048 00C0      		rjmp .L4
  96 004a FC01      		movw r30,r24
  97 004c E050      		subi r30,lo8(-(gs(.L6)))
  98 004e F040      		sbci r31,hi8(-(gs(.L6)))
  99 0050 0C94 0000 		jmp __tablejump2__
 100               		.section	.progmem.gcc_sw_table.USB_Device_ProcessControlRequest,"a",@progbits
 101               		.p2align	1
 102               	.L6:
 103 0000 0000      		.word gs(.L5)
 104 0002 0000      		.word gs(.L7)
 105 0004 0000      		.word gs(.L4)
 106 0006 0000      		.word gs(.L7)
 107 0008 0000      		.word gs(.L4)
 108 000a 0000      		.word gs(.L8)
 109 000c 0000      		.word gs(.L9)
 110 000e 0000      		.word gs(.L4)
 111 0010 0000      		.word gs(.L10)
 112 0012 0000      		.word gs(.L11)
 113               		.section	.text.USB_Device_ProcessControlRequest
 114               	.L5:
  71:../../protocol/lufa/LUFA-120730/LUFA/Drivers/USB/Core/DeviceStandardReq.c **** 		{
  72:../../protocol/lufa/LUFA-120730/LUFA/Drivers/USB/Core/DeviceStandardReq.c **** 			case REQ_GetStatus:
  73:../../protocol/lufa/LUFA-120730/LUFA/Drivers/USB/Core/DeviceStandardReq.c **** 				if ((bmRequestType == (REQDIR_DEVICETOHOST | REQTYPE_STANDARD | REQREC_DEVICE)) ||
 115               		.loc 1 73 0
 116 0054 2038      		cpi r18,lo8(-128)
 117 0056 01F0      		breq .L12
 118               		.loc 1 73 0 is_stmt 0 discriminator 1
 119 0058 2238      		cpi r18,lo8(-126)
 120 005a 01F0      		breq .+2
 121 005c 00C0      		rjmp .L4
 122               	.LVL5:
 123               	.LBB184:
 124               	.LBB185:
 125               	.LBB186:
 126               	.LBB187:
 270:../../protocol/lufa/LUFA-120730/LUFA/Drivers/USB/Core/AVR8/../AVR8/Endpoint_AVR8.h **** 					UENUM = (Address & ENDPOINT_EPNUM_MASK);
 127               		.loc 2 270 0 is_stmt 1
 128 005e 8091 0000 		lds r24,USB_ControlRequest+4
 129 0062 8F70      		andi r24,lo8(15)
 130               	.LVL6:
 131 0064 8093 E900 		sts 233,r24
 132               	.LBE187:
 133               	.LBE186:
 134               	.LBB188:
 135               	.LBB189:
 513:../../protocol/lufa/LUFA-120730/LUFA/Drivers/USB/Core/AVR8/../AVR8/Endpoint_AVR8.h **** 				return ((UECONX & (1 << STALLRQ)) ? true : false);
 136               		.loc 2 513 0
 137 0068 8091 EB00 		lds r24,235
 138               	.LVL7:
 139 006c 85FB      		bst r24,5
 140 006e 8827      		clr r24
 141 0070 80F9      		bld r24,0
 142               	.LVL8:
 143               	.LBE189:
 144               	.LBE188:
 145               	.LBB190:
 146               	.LBB191:
 270:../../protocol/lufa/LUFA-120730/LUFA/Drivers/USB/Core/AVR8/../AVR8/Endpoint_AVR8.h **** 					UENUM = (Address & ENDPOINT_EPNUM_MASK);
 147               		.loc 2 270 0
 148 0072 1092 E900 		sts 233,__zero_reg__
 149               	.LVL9:
 150 0076 00C0      		rjmp .L14
 151               	.LVL10:
 152               	.L12:
 153               	.LBE191:
 154               	.LBE190:
  74:../../protocol/lufa/LUFA-120730/LUFA/Drivers/USB/Core/DeviceStandardReq.c **** 					(bmRequestType == (REQDIR_DEVICETOHOST | REQTYPE_STANDARD | REQREC_ENDPOINT)))
  75:../../protocol/lufa/LUFA-120730/LUFA/Drivers/USB/Core/DeviceStandardReq.c **** 				{
  76:../../protocol/lufa/LUFA-120730/LUFA/Drivers/USB/Core/DeviceStandardReq.c **** 					USB_Device_GetStatus();
  77:../../protocol/lufa/LUFA-120730/LUFA/Drivers/USB/Core/DeviceStandardReq.c **** 				}
  78:../../protocol/lufa/LUFA-120730/LUFA/Drivers/USB/Core/DeviceStandardReq.c **** 
  79:../../protocol/lufa/LUFA-120730/LUFA/Drivers/USB/Core/DeviceStandardReq.c **** 				break;
  80:../../protocol/lufa/LUFA-120730/LUFA/Drivers/USB/Core/DeviceStandardReq.c **** 			case REQ_ClearFeature:
  81:../../protocol/lufa/LUFA-120730/LUFA/Drivers/USB/Core/DeviceStandardReq.c **** 			case REQ_SetFeature:
  82:../../protocol/lufa/LUFA-120730/LUFA/Drivers/USB/Core/DeviceStandardReq.c **** 				if ((bmRequestType == (REQDIR_HOSTTODEVICE | REQTYPE_STANDARD | REQREC_DEVICE)) ||
  83:../../protocol/lufa/LUFA-120730/LUFA/Drivers/USB/Core/DeviceStandardReq.c **** 					(bmRequestType == (REQDIR_HOSTTODEVICE | REQTYPE_STANDARD | REQREC_ENDPOINT)))
  84:../../protocol/lufa/LUFA-120730/LUFA/Drivers/USB/Core/DeviceStandardReq.c **** 				{
  85:../../protocol/lufa/LUFA-120730/LUFA/Drivers/USB/Core/DeviceStandardReq.c **** 					USB_Device_ClearSetFeature();
  86:../../protocol/lufa/LUFA-120730/LUFA/Drivers/USB/Core/DeviceStandardReq.c **** 				}
  87:../../protocol/lufa/LUFA-120730/LUFA/Drivers/USB/Core/DeviceStandardReq.c **** 
  88:../../protocol/lufa/LUFA-120730/LUFA/Drivers/USB/Core/DeviceStandardReq.c **** 				break;
  89:../../protocol/lufa/LUFA-120730/LUFA/Drivers/USB/Core/DeviceStandardReq.c **** 			case REQ_SetAddress:
  90:../../protocol/lufa/LUFA-120730/LUFA/Drivers/USB/Core/DeviceStandardReq.c **** 				if (bmRequestType == (REQDIR_HOSTTODEVICE | REQTYPE_STANDARD | REQREC_DEVICE))
  91:../../protocol/lufa/LUFA-120730/LUFA/Drivers/USB/Core/DeviceStandardReq.c **** 				  USB_Device_SetAddress();
  92:../../protocol/lufa/LUFA-120730/LUFA/Drivers/USB/Core/DeviceStandardReq.c **** 
  93:../../protocol/lufa/LUFA-120730/LUFA/Drivers/USB/Core/DeviceStandardReq.c **** 				break;
  94:../../protocol/lufa/LUFA-120730/LUFA/Drivers/USB/Core/DeviceStandardReq.c **** 			case REQ_GetDescriptor:
  95:../../protocol/lufa/LUFA-120730/LUFA/Drivers/USB/Core/DeviceStandardReq.c **** 				if ((bmRequestType == (REQDIR_DEVICETOHOST | REQTYPE_STANDARD | REQREC_DEVICE)) ||
  96:../../protocol/lufa/LUFA-120730/LUFA/Drivers/USB/Core/DeviceStandardReq.c **** 					(bmRequestType == (REQDIR_DEVICETOHOST | REQTYPE_STANDARD | REQREC_INTERFACE)))
  97:../../protocol/lufa/LUFA-120730/LUFA/Drivers/USB/Core/DeviceStandardReq.c **** 				{
  98:../../protocol/lufa/LUFA-120730/LUFA/Drivers/USB/Core/DeviceStandardReq.c **** 					USB_Device_GetDescriptor();
  99:../../protocol/lufa/LUFA-120730/LUFA/Drivers/USB/Core/DeviceStandardReq.c **** 				}
 100:../../protocol/lufa/LUFA-120730/LUFA/Drivers/USB/Core/DeviceStandardReq.c **** 
 101:../../protocol/lufa/LUFA-120730/LUFA/Drivers/USB/Core/DeviceStandardReq.c **** 				break;
 102:../../protocol/lufa/LUFA-120730/LUFA/Drivers/USB/Core/DeviceStandardReq.c **** 			case REQ_GetConfiguration:
 103:../../protocol/lufa/LUFA-120730/LUFA/Drivers/USB/Core/DeviceStandardReq.c **** 				if (bmRequestType == (REQDIR_DEVICETOHOST | REQTYPE_STANDARD | REQREC_DEVICE))
 104:../../protocol/lufa/LUFA-120730/LUFA/Drivers/USB/Core/DeviceStandardReq.c **** 				  USB_Device_GetConfiguration();
 105:../../protocol/lufa/LUFA-120730/LUFA/Drivers/USB/Core/DeviceStandardReq.c **** 
 106:../../protocol/lufa/LUFA-120730/LUFA/Drivers/USB/Core/DeviceStandardReq.c **** 				break;
 107:../../protocol/lufa/LUFA-120730/LUFA/Drivers/USB/Core/DeviceStandardReq.c **** 			case REQ_SetConfiguration:
 108:../../protocol/lufa/LUFA-120730/LUFA/Drivers/USB/Core/DeviceStandardReq.c **** 				if (bmRequestType == (REQDIR_HOSTTODEVICE | REQTYPE_STANDARD | REQREC_DEVICE))
 109:../../protocol/lufa/LUFA-120730/LUFA/Drivers/USB/Core/DeviceStandardReq.c **** 				  USB_Device_SetConfiguration();
 110:../../protocol/lufa/LUFA-120730/LUFA/Drivers/USB/Core/DeviceStandardReq.c **** 
 111:../../protocol/lufa/LUFA-120730/LUFA/Drivers/USB/Core/DeviceStandardReq.c **** 				break;
 112:../../protocol/lufa/LUFA-120730/LUFA/Drivers/USB/Core/DeviceStandardReq.c **** 		}
 113:../../protocol/lufa/LUFA-120730/LUFA/Drivers/USB/Core/DeviceStandardReq.c **** 	}
 114:../../protocol/lufa/LUFA-120730/LUFA/Drivers/USB/Core/DeviceStandardReq.c **** 
 115:../../protocol/lufa/LUFA-120730/LUFA/Drivers/USB/Core/DeviceStandardReq.c **** 	if (Endpoint_IsSETUPReceived())
 116:../../protocol/lufa/LUFA-120730/LUFA/Drivers/USB/Core/DeviceStandardReq.c **** 	{
 117:../../protocol/lufa/LUFA-120730/LUFA/Drivers/USB/Core/DeviceStandardReq.c **** 		Endpoint_StallTransaction();
 118:../../protocol/lufa/LUFA-120730/LUFA/Drivers/USB/Core/DeviceStandardReq.c **** 		Endpoint_ClearSETUP();
 119:../../protocol/lufa/LUFA-120730/LUFA/Drivers/USB/Core/DeviceStandardReq.c **** 	}
 120:../../protocol/lufa/LUFA-120730/LUFA/Drivers/USB/Core/DeviceStandardReq.c **** }
 121:../../protocol/lufa/LUFA-120730/LUFA/Drivers/USB/Core/DeviceStandardReq.c **** 
 122:../../protocol/lufa/LUFA-120730/LUFA/Drivers/USB/Core/DeviceStandardReq.c **** static void USB_Device_SetAddress(void)
 123:../../protocol/lufa/LUFA-120730/LUFA/Drivers/USB/Core/DeviceStandardReq.c **** {
 124:../../protocol/lufa/LUFA-120730/LUFA/Drivers/USB/Core/DeviceStandardReq.c **** 	uint8_t    DeviceAddress    = (USB_ControlRequest.wValue & 0x7F);
 125:../../protocol/lufa/LUFA-120730/LUFA/Drivers/USB/Core/DeviceStandardReq.c **** 	uint_reg_t CurrentGlobalInt = GetGlobalInterruptMask();
 126:../../protocol/lufa/LUFA-120730/LUFA/Drivers/USB/Core/DeviceStandardReq.c **** 	GlobalInterruptDisable();
 127:../../protocol/lufa/LUFA-120730/LUFA/Drivers/USB/Core/DeviceStandardReq.c **** 
 128:../../protocol/lufa/LUFA-120730/LUFA/Drivers/USB/Core/DeviceStandardReq.c **** 	Endpoint_ClearSETUP();
 129:../../protocol/lufa/LUFA-120730/LUFA/Drivers/USB/Core/DeviceStandardReq.c **** 
 130:../../protocol/lufa/LUFA-120730/LUFA/Drivers/USB/Core/DeviceStandardReq.c **** 	Endpoint_ClearStatusStage();
 131:../../protocol/lufa/LUFA-120730/LUFA/Drivers/USB/Core/DeviceStandardReq.c **** 
 132:../../protocol/lufa/LUFA-120730/LUFA/Drivers/USB/Core/DeviceStandardReq.c **** 	while (!(Endpoint_IsINReady()));
 133:../../protocol/lufa/LUFA-120730/LUFA/Drivers/USB/Core/DeviceStandardReq.c **** 
 134:../../protocol/lufa/LUFA-120730/LUFA/Drivers/USB/Core/DeviceStandardReq.c **** 	USB_Device_SetDeviceAddress(DeviceAddress);
 135:../../protocol/lufa/LUFA-120730/LUFA/Drivers/USB/Core/DeviceStandardReq.c **** 	USB_DeviceState = (DeviceAddress) ? DEVICE_STATE_Addressed : DEVICE_STATE_Default;
 136:../../protocol/lufa/LUFA-120730/LUFA/Drivers/USB/Core/DeviceStandardReq.c **** 
 137:../../protocol/lufa/LUFA-120730/LUFA/Drivers/USB/Core/DeviceStandardReq.c **** 	SetGlobalInterruptMask(CurrentGlobalInt);
 138:../../protocol/lufa/LUFA-120730/LUFA/Drivers/USB/Core/DeviceStandardReq.c **** }
 139:../../protocol/lufa/LUFA-120730/LUFA/Drivers/USB/Core/DeviceStandardReq.c **** 
 140:../../protocol/lufa/LUFA-120730/LUFA/Drivers/USB/Core/DeviceStandardReq.c **** static void USB_Device_SetConfiguration(void)
 141:../../protocol/lufa/LUFA-120730/LUFA/Drivers/USB/Core/DeviceStandardReq.c **** {
 142:../../protocol/lufa/LUFA-120730/LUFA/Drivers/USB/Core/DeviceStandardReq.c **** 	#if defined(FIXED_NUM_CONFIGURATIONS)
 143:../../protocol/lufa/LUFA-120730/LUFA/Drivers/USB/Core/DeviceStandardReq.c **** 	if ((uint8_t)USB_ControlRequest.wValue > FIXED_NUM_CONFIGURATIONS)
 144:../../protocol/lufa/LUFA-120730/LUFA/Drivers/USB/Core/DeviceStandardReq.c **** 	  return;
 145:../../protocol/lufa/LUFA-120730/LUFA/Drivers/USB/Core/DeviceStandardReq.c **** 	#else
 146:../../protocol/lufa/LUFA-120730/LUFA/Drivers/USB/Core/DeviceStandardReq.c **** 	USB_Descriptor_Device_t* DevDescriptorPtr;
 147:../../protocol/lufa/LUFA-120730/LUFA/Drivers/USB/Core/DeviceStandardReq.c **** 
 148:../../protocol/lufa/LUFA-120730/LUFA/Drivers/USB/Core/DeviceStandardReq.c **** 	#if defined(ARCH_HAS_MULTI_ADDRESS_SPACE)
 149:../../protocol/lufa/LUFA-120730/LUFA/Drivers/USB/Core/DeviceStandardReq.c **** 		#if defined(USE_FLASH_DESCRIPTORS)
 150:../../protocol/lufa/LUFA-120730/LUFA/Drivers/USB/Core/DeviceStandardReq.c **** 			#define MemoryAddressSpace  MEMSPACE_FLASH
 151:../../protocol/lufa/LUFA-120730/LUFA/Drivers/USB/Core/DeviceStandardReq.c **** 		#elif defined(USE_EEPROM_DESCRIPTORS)
 152:../../protocol/lufa/LUFA-120730/LUFA/Drivers/USB/Core/DeviceStandardReq.c **** 			#define MemoryAddressSpace  MEMSPACE_EEPROM
 153:../../protocol/lufa/LUFA-120730/LUFA/Drivers/USB/Core/DeviceStandardReq.c **** 		#elif defined(USE_SRAM_DESCRIPTORS)
 154:../../protocol/lufa/LUFA-120730/LUFA/Drivers/USB/Core/DeviceStandardReq.c **** 			#define MemoryAddressSpace  MEMSPACE_SRAM
 155:../../protocol/lufa/LUFA-120730/LUFA/Drivers/USB/Core/DeviceStandardReq.c **** 		#else
 156:../../protocol/lufa/LUFA-120730/LUFA/Drivers/USB/Core/DeviceStandardReq.c **** 			uint8_t MemoryAddressSpace;
 157:../../protocol/lufa/LUFA-120730/LUFA/Drivers/USB/Core/DeviceStandardReq.c **** 		#endif
 158:../../protocol/lufa/LUFA-120730/LUFA/Drivers/USB/Core/DeviceStandardReq.c **** 	#endif
 159:../../protocol/lufa/LUFA-120730/LUFA/Drivers/USB/Core/DeviceStandardReq.c **** 
 160:../../protocol/lufa/LUFA-120730/LUFA/Drivers/USB/Core/DeviceStandardReq.c **** 	if (CALLBACK_USB_GetDescriptor((DTYPE_Device << 8), 0, (void*)&DevDescriptorPtr
 161:../../protocol/lufa/LUFA-120730/LUFA/Drivers/USB/Core/DeviceStandardReq.c **** 	#if defined(ARCH_HAS_MULTI_ADDRESS_SPACE) && \
 162:../../protocol/lufa/LUFA-120730/LUFA/Drivers/USB/Core/DeviceStandardReq.c **** 	    !(defined(USE_FLASH_DESCRIPTORS) || defined(USE_EEPROM_DESCRIPTORS) || defined(USE_RAM_DESCRIP
 163:../../protocol/lufa/LUFA-120730/LUFA/Drivers/USB/Core/DeviceStandardReq.c **** 	                               , &MemoryAddressSpace
 164:../../protocol/lufa/LUFA-120730/LUFA/Drivers/USB/Core/DeviceStandardReq.c **** 	#endif
 165:../../protocol/lufa/LUFA-120730/LUFA/Drivers/USB/Core/DeviceStandardReq.c **** 	                               ) == NO_DESCRIPTOR)
 166:../../protocol/lufa/LUFA-120730/LUFA/Drivers/USB/Core/DeviceStandardReq.c **** 	{
 167:../../protocol/lufa/LUFA-120730/LUFA/Drivers/USB/Core/DeviceStandardReq.c **** 		return;
 168:../../protocol/lufa/LUFA-120730/LUFA/Drivers/USB/Core/DeviceStandardReq.c **** 	}
 169:../../protocol/lufa/LUFA-120730/LUFA/Drivers/USB/Core/DeviceStandardReq.c **** 
 170:../../protocol/lufa/LUFA-120730/LUFA/Drivers/USB/Core/DeviceStandardReq.c **** 	#if defined(ARCH_HAS_MULTI_ADDRESS_SPACE)
 171:../../protocol/lufa/LUFA-120730/LUFA/Drivers/USB/Core/DeviceStandardReq.c **** 	if (MemoryAddressSpace == MEMSPACE_FLASH)
 172:../../protocol/lufa/LUFA-120730/LUFA/Drivers/USB/Core/DeviceStandardReq.c **** 	{
 173:../../protocol/lufa/LUFA-120730/LUFA/Drivers/USB/Core/DeviceStandardReq.c **** 		if (((uint8_t)USB_ControlRequest.wValue > pgm_read_byte(&DevDescriptorPtr->NumberOfConfigurations
 174:../../protocol/lufa/LUFA-120730/LUFA/Drivers/USB/Core/DeviceStandardReq.c **** 		  return;
 175:../../protocol/lufa/LUFA-120730/LUFA/Drivers/USB/Core/DeviceStandardReq.c **** 	}
 176:../../protocol/lufa/LUFA-120730/LUFA/Drivers/USB/Core/DeviceStandardReq.c **** 	else if (MemoryAddressSpace == MEMSPACE_EEPROM)
 177:../../protocol/lufa/LUFA-120730/LUFA/Drivers/USB/Core/DeviceStandardReq.c **** 	{
 178:../../protocol/lufa/LUFA-120730/LUFA/Drivers/USB/Core/DeviceStandardReq.c **** 		if (((uint8_t)USB_ControlRequest.wValue > eeprom_read_byte(&DevDescriptorPtr->NumberOfConfigurati
 179:../../protocol/lufa/LUFA-120730/LUFA/Drivers/USB/Core/DeviceStandardReq.c **** 		  return;
 180:../../protocol/lufa/LUFA-120730/LUFA/Drivers/USB/Core/DeviceStandardReq.c **** 	}
 181:../../protocol/lufa/LUFA-120730/LUFA/Drivers/USB/Core/DeviceStandardReq.c **** 	else
 182:../../protocol/lufa/LUFA-120730/LUFA/Drivers/USB/Core/DeviceStandardReq.c **** 	{
 183:../../protocol/lufa/LUFA-120730/LUFA/Drivers/USB/Core/DeviceStandardReq.c **** 		if ((uint8_t)USB_ControlRequest.wValue > DevDescriptorPtr->NumberOfConfigurations)
 184:../../protocol/lufa/LUFA-120730/LUFA/Drivers/USB/Core/DeviceStandardReq.c **** 		  return;
 185:../../protocol/lufa/LUFA-120730/LUFA/Drivers/USB/Core/DeviceStandardReq.c **** 	}
 186:../../protocol/lufa/LUFA-120730/LUFA/Drivers/USB/Core/DeviceStandardReq.c **** 	#else
 187:../../protocol/lufa/LUFA-120730/LUFA/Drivers/USB/Core/DeviceStandardReq.c **** 	if ((uint8_t)USB_ControlRequest.wValue > DevDescriptorPtr->NumberOfConfigurations)
 188:../../protocol/lufa/LUFA-120730/LUFA/Drivers/USB/Core/DeviceStandardReq.c **** 	  return;
 189:../../protocol/lufa/LUFA-120730/LUFA/Drivers/USB/Core/DeviceStandardReq.c **** 	#endif
 190:../../protocol/lufa/LUFA-120730/LUFA/Drivers/USB/Core/DeviceStandardReq.c **** 	#endif
 191:../../protocol/lufa/LUFA-120730/LUFA/Drivers/USB/Core/DeviceStandardReq.c **** 
 192:../../protocol/lufa/LUFA-120730/LUFA/Drivers/USB/Core/DeviceStandardReq.c **** 	Endpoint_ClearSETUP();
 193:../../protocol/lufa/LUFA-120730/LUFA/Drivers/USB/Core/DeviceStandardReq.c **** 
 194:../../protocol/lufa/LUFA-120730/LUFA/Drivers/USB/Core/DeviceStandardReq.c **** 	USB_Device_ConfigurationNumber = (uint8_t)USB_ControlRequest.wValue;
 195:../../protocol/lufa/LUFA-120730/LUFA/Drivers/USB/Core/DeviceStandardReq.c **** 
 196:../../protocol/lufa/LUFA-120730/LUFA/Drivers/USB/Core/DeviceStandardReq.c **** 	Endpoint_ClearStatusStage();
 197:../../protocol/lufa/LUFA-120730/LUFA/Drivers/USB/Core/DeviceStandardReq.c **** 
 198:../../protocol/lufa/LUFA-120730/LUFA/Drivers/USB/Core/DeviceStandardReq.c **** 	if (USB_Device_ConfigurationNumber)
 199:../../protocol/lufa/LUFA-120730/LUFA/Drivers/USB/Core/DeviceStandardReq.c **** 	  USB_DeviceState = DEVICE_STATE_Configured;
 200:../../protocol/lufa/LUFA-120730/LUFA/Drivers/USB/Core/DeviceStandardReq.c **** 	else
 201:../../protocol/lufa/LUFA-120730/LUFA/Drivers/USB/Core/DeviceStandardReq.c **** 	  USB_DeviceState = (USB_Device_IsAddressSet()) ? DEVICE_STATE_Configured : DEVICE_STATE_Powered;
 202:../../protocol/lufa/LUFA-120730/LUFA/Drivers/USB/Core/DeviceStandardReq.c **** 
 203:../../protocol/lufa/LUFA-120730/LUFA/Drivers/USB/Core/DeviceStandardReq.c **** 	EVENT_USB_Device_ConfigurationChanged();
 204:../../protocol/lufa/LUFA-120730/LUFA/Drivers/USB/Core/DeviceStandardReq.c **** }
 205:../../protocol/lufa/LUFA-120730/LUFA/Drivers/USB/Core/DeviceStandardReq.c **** 
 206:../../protocol/lufa/LUFA-120730/LUFA/Drivers/USB/Core/DeviceStandardReq.c **** static void USB_Device_GetConfiguration(void)
 207:../../protocol/lufa/LUFA-120730/LUFA/Drivers/USB/Core/DeviceStandardReq.c **** {
 208:../../protocol/lufa/LUFA-120730/LUFA/Drivers/USB/Core/DeviceStandardReq.c **** 	Endpoint_ClearSETUP();
 209:../../protocol/lufa/LUFA-120730/LUFA/Drivers/USB/Core/DeviceStandardReq.c **** 
 210:../../protocol/lufa/LUFA-120730/LUFA/Drivers/USB/Core/DeviceStandardReq.c **** 	Endpoint_Write_8(USB_Device_ConfigurationNumber);
 211:../../protocol/lufa/LUFA-120730/LUFA/Drivers/USB/Core/DeviceStandardReq.c **** 	Endpoint_ClearIN();
 212:../../protocol/lufa/LUFA-120730/LUFA/Drivers/USB/Core/DeviceStandardReq.c **** 
 213:../../protocol/lufa/LUFA-120730/LUFA/Drivers/USB/Core/DeviceStandardReq.c **** 	Endpoint_ClearStatusStage();
 214:../../protocol/lufa/LUFA-120730/LUFA/Drivers/USB/Core/DeviceStandardReq.c **** }
 215:../../protocol/lufa/LUFA-120730/LUFA/Drivers/USB/Core/DeviceStandardReq.c **** 
 216:../../protocol/lufa/LUFA-120730/LUFA/Drivers/USB/Core/DeviceStandardReq.c **** #if !defined(NO_INTERNAL_SERIAL) && (USE_INTERNAL_SERIAL != NO_DESCRIPTOR)
 217:../../protocol/lufa/LUFA-120730/LUFA/Drivers/USB/Core/DeviceStandardReq.c **** static void USB_Device_GetInternalSerialDescriptor(void)
 218:../../protocol/lufa/LUFA-120730/LUFA/Drivers/USB/Core/DeviceStandardReq.c **** {
 219:../../protocol/lufa/LUFA-120730/LUFA/Drivers/USB/Core/DeviceStandardReq.c **** 	struct
 220:../../protocol/lufa/LUFA-120730/LUFA/Drivers/USB/Core/DeviceStandardReq.c **** 	{
 221:../../protocol/lufa/LUFA-120730/LUFA/Drivers/USB/Core/DeviceStandardReq.c **** 		USB_Descriptor_Header_t Header;
 222:../../protocol/lufa/LUFA-120730/LUFA/Drivers/USB/Core/DeviceStandardReq.c **** 		uint16_t                UnicodeString[INTERNAL_SERIAL_LENGTH_BITS / 4];
 223:../../protocol/lufa/LUFA-120730/LUFA/Drivers/USB/Core/DeviceStandardReq.c **** 	} SignatureDescriptor;
 224:../../protocol/lufa/LUFA-120730/LUFA/Drivers/USB/Core/DeviceStandardReq.c **** 
 225:../../protocol/lufa/LUFA-120730/LUFA/Drivers/USB/Core/DeviceStandardReq.c **** 	SignatureDescriptor.Header.Type = DTYPE_String;
 226:../../protocol/lufa/LUFA-120730/LUFA/Drivers/USB/Core/DeviceStandardReq.c **** 	SignatureDescriptor.Header.Size = USB_STRING_LEN(INTERNAL_SERIAL_LENGTH_BITS / 4);
 227:../../protocol/lufa/LUFA-120730/LUFA/Drivers/USB/Core/DeviceStandardReq.c **** 
 228:../../protocol/lufa/LUFA-120730/LUFA/Drivers/USB/Core/DeviceStandardReq.c **** 	USB_Device_GetSerialString(SignatureDescriptor.UnicodeString);
 229:../../protocol/lufa/LUFA-120730/LUFA/Drivers/USB/Core/DeviceStandardReq.c **** 
 230:../../protocol/lufa/LUFA-120730/LUFA/Drivers/USB/Core/DeviceStandardReq.c **** 	Endpoint_ClearSETUP();
 231:../../protocol/lufa/LUFA-120730/LUFA/Drivers/USB/Core/DeviceStandardReq.c **** 
 232:../../protocol/lufa/LUFA-120730/LUFA/Drivers/USB/Core/DeviceStandardReq.c **** 	Endpoint_Write_Control_Stream_LE(&SignatureDescriptor, sizeof(SignatureDescriptor));
 233:../../protocol/lufa/LUFA-120730/LUFA/Drivers/USB/Core/DeviceStandardReq.c **** 	Endpoint_ClearOUT();
 234:../../protocol/lufa/LUFA-120730/LUFA/Drivers/USB/Core/DeviceStandardReq.c **** }
 235:../../protocol/lufa/LUFA-120730/LUFA/Drivers/USB/Core/DeviceStandardReq.c **** #endif
 236:../../protocol/lufa/LUFA-120730/LUFA/Drivers/USB/Core/DeviceStandardReq.c **** 
 237:../../protocol/lufa/LUFA-120730/LUFA/Drivers/USB/Core/DeviceStandardReq.c **** static void USB_Device_GetDescriptor(void)
 238:../../protocol/lufa/LUFA-120730/LUFA/Drivers/USB/Core/DeviceStandardReq.c **** {
 239:../../protocol/lufa/LUFA-120730/LUFA/Drivers/USB/Core/DeviceStandardReq.c **** 	const void* DescriptorPointer;
 240:../../protocol/lufa/LUFA-120730/LUFA/Drivers/USB/Core/DeviceStandardReq.c **** 	uint16_t    DescriptorSize;
 241:../../protocol/lufa/LUFA-120730/LUFA/Drivers/USB/Core/DeviceStandardReq.c **** 
 242:../../protocol/lufa/LUFA-120730/LUFA/Drivers/USB/Core/DeviceStandardReq.c **** 	#if defined(ARCH_HAS_MULTI_ADDRESS_SPACE) && \
 243:../../protocol/lufa/LUFA-120730/LUFA/Drivers/USB/Core/DeviceStandardReq.c **** 	    !(defined(USE_FLASH_DESCRIPTORS) || defined(USE_EEPROM_DESCRIPTORS) || defined(USE_RAM_DESCRIP
 244:../../protocol/lufa/LUFA-120730/LUFA/Drivers/USB/Core/DeviceStandardReq.c **** 	uint8_t DescriptorAddressSpace;
 245:../../protocol/lufa/LUFA-120730/LUFA/Drivers/USB/Core/DeviceStandardReq.c **** 	#endif
 246:../../protocol/lufa/LUFA-120730/LUFA/Drivers/USB/Core/DeviceStandardReq.c **** 
 247:../../protocol/lufa/LUFA-120730/LUFA/Drivers/USB/Core/DeviceStandardReq.c **** 	#if !defined(NO_INTERNAL_SERIAL) && (USE_INTERNAL_SERIAL != NO_DESCRIPTOR)
 248:../../protocol/lufa/LUFA-120730/LUFA/Drivers/USB/Core/DeviceStandardReq.c **** 	if (USB_ControlRequest.wValue == ((DTYPE_String << 8) | USE_INTERNAL_SERIAL))
 249:../../protocol/lufa/LUFA-120730/LUFA/Drivers/USB/Core/DeviceStandardReq.c **** 	{
 250:../../protocol/lufa/LUFA-120730/LUFA/Drivers/USB/Core/DeviceStandardReq.c **** 		USB_Device_GetInternalSerialDescriptor();
 251:../../protocol/lufa/LUFA-120730/LUFA/Drivers/USB/Core/DeviceStandardReq.c **** 		return;
 252:../../protocol/lufa/LUFA-120730/LUFA/Drivers/USB/Core/DeviceStandardReq.c **** 	}
 253:../../protocol/lufa/LUFA-120730/LUFA/Drivers/USB/Core/DeviceStandardReq.c **** 	#endif
 254:../../protocol/lufa/LUFA-120730/LUFA/Drivers/USB/Core/DeviceStandardReq.c **** 
 255:../../protocol/lufa/LUFA-120730/LUFA/Drivers/USB/Core/DeviceStandardReq.c **** 	if ((DescriptorSize = CALLBACK_USB_GetDescriptor(USB_ControlRequest.wValue, USB_ControlRequest.wIn
 256:../../protocol/lufa/LUFA-120730/LUFA/Drivers/USB/Core/DeviceStandardReq.c **** 	                                                 &DescriptorPointer
 257:../../protocol/lufa/LUFA-120730/LUFA/Drivers/USB/Core/DeviceStandardReq.c **** 	#if defined(ARCH_HAS_MULTI_ADDRESS_SPACE) && \
 258:../../protocol/lufa/LUFA-120730/LUFA/Drivers/USB/Core/DeviceStandardReq.c **** 	    !(defined(USE_FLASH_DESCRIPTORS) || defined(USE_EEPROM_DESCRIPTORS) || defined(USE_RAM_DESCRIP
 259:../../protocol/lufa/LUFA-120730/LUFA/Drivers/USB/Core/DeviceStandardReq.c **** 	                                                 , &DescriptorAddressSpace
 260:../../protocol/lufa/LUFA-120730/LUFA/Drivers/USB/Core/DeviceStandardReq.c **** 	#endif
 261:../../protocol/lufa/LUFA-120730/LUFA/Drivers/USB/Core/DeviceStandardReq.c **** 													 )) == NO_DESCRIPTOR)
 262:../../protocol/lufa/LUFA-120730/LUFA/Drivers/USB/Core/DeviceStandardReq.c **** 	{
 263:../../protocol/lufa/LUFA-120730/LUFA/Drivers/USB/Core/DeviceStandardReq.c **** 		return;
 264:../../protocol/lufa/LUFA-120730/LUFA/Drivers/USB/Core/DeviceStandardReq.c **** 	}
 265:../../protocol/lufa/LUFA-120730/LUFA/Drivers/USB/Core/DeviceStandardReq.c **** 
 266:../../protocol/lufa/LUFA-120730/LUFA/Drivers/USB/Core/DeviceStandardReq.c **** 	Endpoint_ClearSETUP();
 267:../../protocol/lufa/LUFA-120730/LUFA/Drivers/USB/Core/DeviceStandardReq.c **** 
 268:../../protocol/lufa/LUFA-120730/LUFA/Drivers/USB/Core/DeviceStandardReq.c **** 	#if defined(USE_RAM_DESCRIPTORS) || !defined(ARCH_HAS_MULTI_ADDRESS_SPACE)
 269:../../protocol/lufa/LUFA-120730/LUFA/Drivers/USB/Core/DeviceStandardReq.c **** 	Endpoint_Write_Control_Stream_LE(DescriptorPointer, DescriptorSize);
 270:../../protocol/lufa/LUFA-120730/LUFA/Drivers/USB/Core/DeviceStandardReq.c **** 	#elif defined(USE_EEPROM_DESCRIPTORS)
 271:../../protocol/lufa/LUFA-120730/LUFA/Drivers/USB/Core/DeviceStandardReq.c **** 	Endpoint_Write_Control_EStream_LE(DescriptorPointer, DescriptorSize);
 272:../../protocol/lufa/LUFA-120730/LUFA/Drivers/USB/Core/DeviceStandardReq.c **** 	#elif defined(USE_FLASH_DESCRIPTORS)
 273:../../protocol/lufa/LUFA-120730/LUFA/Drivers/USB/Core/DeviceStandardReq.c **** 	Endpoint_Write_Control_PStream_LE(DescriptorPointer, DescriptorSize);
 274:../../protocol/lufa/LUFA-120730/LUFA/Drivers/USB/Core/DeviceStandardReq.c **** 	#else
 275:../../protocol/lufa/LUFA-120730/LUFA/Drivers/USB/Core/DeviceStandardReq.c **** 	if (DescriptorAddressSpace == MEMSPACE_FLASH)
 276:../../protocol/lufa/LUFA-120730/LUFA/Drivers/USB/Core/DeviceStandardReq.c **** 	  Endpoint_Write_Control_PStream_LE(DescriptorPointer, DescriptorSize);
 277:../../protocol/lufa/LUFA-120730/LUFA/Drivers/USB/Core/DeviceStandardReq.c **** 	else if (DescriptorAddressSpace == MEMSPACE_EEPROM)
 278:../../protocol/lufa/LUFA-120730/LUFA/Drivers/USB/Core/DeviceStandardReq.c **** 	  Endpoint_Write_Control_EStream_LE(DescriptorPointer, DescriptorSize);
 279:../../protocol/lufa/LUFA-120730/LUFA/Drivers/USB/Core/DeviceStandardReq.c **** 	else
 280:../../protocol/lufa/LUFA-120730/LUFA/Drivers/USB/Core/DeviceStandardReq.c **** 	  Endpoint_Write_Control_Stream_LE(DescriptorPointer, DescriptorSize);
 281:../../protocol/lufa/LUFA-120730/LUFA/Drivers/USB/Core/DeviceStandardReq.c **** 	#endif
 282:../../protocol/lufa/LUFA-120730/LUFA/Drivers/USB/Core/DeviceStandardReq.c **** 
 283:../../protocol/lufa/LUFA-120730/LUFA/Drivers/USB/Core/DeviceStandardReq.c **** 	Endpoint_ClearOUT();
 284:../../protocol/lufa/LUFA-120730/LUFA/Drivers/USB/Core/DeviceStandardReq.c **** }
 285:../../protocol/lufa/LUFA-120730/LUFA/Drivers/USB/Core/DeviceStandardReq.c **** 
 286:../../protocol/lufa/LUFA-120730/LUFA/Drivers/USB/Core/DeviceStandardReq.c **** static void USB_Device_GetStatus(void)
 287:../../protocol/lufa/LUFA-120730/LUFA/Drivers/USB/Core/DeviceStandardReq.c **** {
 288:../../protocol/lufa/LUFA-120730/LUFA/Drivers/USB/Core/DeviceStandardReq.c **** 	uint8_t CurrentStatus = 0;
 155               		.loc 1 288 0
 156 0078 8091 0000 		lds r24,USB_Device_CurrentlySelfPowered
 157               	.LVL11:
 289:../../protocol/lufa/LUFA-120730/LUFA/Drivers/USB/Core/DeviceStandardReq.c **** 
 290:../../protocol/lufa/LUFA-120730/LUFA/Drivers/USB/Core/DeviceStandardReq.c **** 	switch (USB_ControlRequest.bmRequestType)
 291:../../protocol/lufa/LUFA-120730/LUFA/Drivers/USB/Core/DeviceStandardReq.c **** 	{
 292:../../protocol/lufa/LUFA-120730/LUFA/Drivers/USB/Core/DeviceStandardReq.c **** 		case (REQDIR_DEVICETOHOST | REQTYPE_STANDARD | REQREC_DEVICE):
 293:../../protocol/lufa/LUFA-120730/LUFA/Drivers/USB/Core/DeviceStandardReq.c **** 			#if !defined(NO_DEVICE_SELF_POWER)
 294:../../protocol/lufa/LUFA-120730/LUFA/Drivers/USB/Core/DeviceStandardReq.c **** 			if (USB_Device_CurrentlySelfPowered)
 295:../../protocol/lufa/LUFA-120730/LUFA/Drivers/USB/Core/DeviceStandardReq.c **** 			  CurrentStatus |= FEATURE_SELFPOWERED_ENABLED;
 296:../../protocol/lufa/LUFA-120730/LUFA/Drivers/USB/Core/DeviceStandardReq.c **** 			#endif
 297:../../protocol/lufa/LUFA-120730/LUFA/Drivers/USB/Core/DeviceStandardReq.c **** 
 298:../../protocol/lufa/LUFA-120730/LUFA/Drivers/USB/Core/DeviceStandardReq.c **** 			#if !defined(NO_DEVICE_REMOTE_WAKEUP)
 299:../../protocol/lufa/LUFA-120730/LUFA/Drivers/USB/Core/DeviceStandardReq.c **** 			if (USB_Device_RemoteWakeupEnabled)
 158               		.loc 1 299 0
 159 007c 9091 0000 		lds r25,USB_Device_RemoteWakeupEnabled
 160 0080 9111      		cpse r25,__zero_reg__
 300:../../protocol/lufa/LUFA-120730/LUFA/Drivers/USB/Core/DeviceStandardReq.c **** 			  CurrentStatus |= FEATURE_REMOTE_WAKEUP_ENABLED;
 161               		.loc 1 300 0
 162 0082 8260      		ori r24,lo8(2)
 163               	.LVL12:
 164               	.L14:
 165               	.LBB192:
 166               	.LBB193:
 444:../../protocol/lufa/LUFA-120730/LUFA/Drivers/USB/Core/AVR8/../AVR8/Endpoint_AVR8.h **** 				UEINTX &= ~(1 << RXSTPI);
 167               		.loc 2 444 0
 168 0084 9091 E800 		lds r25,232
 169 0088 977F      		andi r25,lo8(-9)
 170 008a 9093 E800 		sts 232,r25
 171               	.LVL13:
 172               	.LBE193:
 173               	.LBE192:
 174               	.LBB194:
 175               	.LBB195:
 543:../../protocol/lufa/LUFA-120730/LUFA/Drivers/USB/Core/AVR8/../AVR8/Endpoint_AVR8.h **** 			}
 544:../../protocol/lufa/LUFA-120730/LUFA/Drivers/USB/Core/AVR8/../AVR8/Endpoint_AVR8.h **** 
 545:../../protocol/lufa/LUFA-120730/LUFA/Drivers/USB/Core/AVR8/../AVR8/Endpoint_AVR8.h **** 			/** Writes one byte to the currently selected endpoint's bank, for IN direction endpoints.
 546:../../protocol/lufa/LUFA-120730/LUFA/Drivers/USB/Core/AVR8/../AVR8/Endpoint_AVR8.h **** 			 *
 547:../../protocol/lufa/LUFA-120730/LUFA/Drivers/USB/Core/AVR8/../AVR8/Endpoint_AVR8.h **** 			 *  \ingroup Group_EndpointPrimitiveRW_AVR8
 548:../../protocol/lufa/LUFA-120730/LUFA/Drivers/USB/Core/AVR8/../AVR8/Endpoint_AVR8.h **** 			 *
 549:../../protocol/lufa/LUFA-120730/LUFA/Drivers/USB/Core/AVR8/../AVR8/Endpoint_AVR8.h **** 			 *  \param[in] Data  Data to write into the the currently selected endpoint's FIFO buffer.
 550:../../protocol/lufa/LUFA-120730/LUFA/Drivers/USB/Core/AVR8/../AVR8/Endpoint_AVR8.h **** 			 */
 551:../../protocol/lufa/LUFA-120730/LUFA/Drivers/USB/Core/AVR8/../AVR8/Endpoint_AVR8.h **** 			static inline void Endpoint_Write_8(const uint8_t Data) ATTR_ALWAYS_INLINE;
 552:../../protocol/lufa/LUFA-120730/LUFA/Drivers/USB/Core/AVR8/../AVR8/Endpoint_AVR8.h **** 			static inline void Endpoint_Write_8(const uint8_t Data)
 553:../../protocol/lufa/LUFA-120730/LUFA/Drivers/USB/Core/AVR8/../AVR8/Endpoint_AVR8.h **** 			{
 554:../../protocol/lufa/LUFA-120730/LUFA/Drivers/USB/Core/AVR8/../AVR8/Endpoint_AVR8.h **** 				UEDATX = Data;
 555:../../protocol/lufa/LUFA-120730/LUFA/Drivers/USB/Core/AVR8/../AVR8/Endpoint_AVR8.h **** 			}
 556:../../protocol/lufa/LUFA-120730/LUFA/Drivers/USB/Core/AVR8/../AVR8/Endpoint_AVR8.h **** 
 557:../../protocol/lufa/LUFA-120730/LUFA/Drivers/USB/Core/AVR8/../AVR8/Endpoint_AVR8.h **** 			/** Discards one byte from the currently selected endpoint's bank, for OUT direction endpoints.
 558:../../protocol/lufa/LUFA-120730/LUFA/Drivers/USB/Core/AVR8/../AVR8/Endpoint_AVR8.h **** 			 *
 559:../../protocol/lufa/LUFA-120730/LUFA/Drivers/USB/Core/AVR8/../AVR8/Endpoint_AVR8.h **** 			 *  \ingroup Group_EndpointPrimitiveRW_AVR8
 560:../../protocol/lufa/LUFA-120730/LUFA/Drivers/USB/Core/AVR8/../AVR8/Endpoint_AVR8.h **** 			 */
 561:../../protocol/lufa/LUFA-120730/LUFA/Drivers/USB/Core/AVR8/../AVR8/Endpoint_AVR8.h **** 			static inline void Endpoint_Discard_8(void) ATTR_ALWAYS_INLINE;
 562:../../protocol/lufa/LUFA-120730/LUFA/Drivers/USB/Core/AVR8/../AVR8/Endpoint_AVR8.h **** 			static inline void Endpoint_Discard_8(void)
 563:../../protocol/lufa/LUFA-120730/LUFA/Drivers/USB/Core/AVR8/../AVR8/Endpoint_AVR8.h **** 			{
 564:../../protocol/lufa/LUFA-120730/LUFA/Drivers/USB/Core/AVR8/../AVR8/Endpoint_AVR8.h **** 				uint8_t Dummy;
 565:../../protocol/lufa/LUFA-120730/LUFA/Drivers/USB/Core/AVR8/../AVR8/Endpoint_AVR8.h **** 
 566:../../protocol/lufa/LUFA-120730/LUFA/Drivers/USB/Core/AVR8/../AVR8/Endpoint_AVR8.h **** 				Dummy = UEDATX;
 567:../../protocol/lufa/LUFA-120730/LUFA/Drivers/USB/Core/AVR8/../AVR8/Endpoint_AVR8.h **** 
 568:../../protocol/lufa/LUFA-120730/LUFA/Drivers/USB/Core/AVR8/../AVR8/Endpoint_AVR8.h **** 				(void)Dummy;
 569:../../protocol/lufa/LUFA-120730/LUFA/Drivers/USB/Core/AVR8/../AVR8/Endpoint_AVR8.h **** 			}
 570:../../protocol/lufa/LUFA-120730/LUFA/Drivers/USB/Core/AVR8/../AVR8/Endpoint_AVR8.h **** 
 571:../../protocol/lufa/LUFA-120730/LUFA/Drivers/USB/Core/AVR8/../AVR8/Endpoint_AVR8.h **** 			/** Reads two bytes from the currently selected endpoint's bank in little endian format, for OUT
 572:../../protocol/lufa/LUFA-120730/LUFA/Drivers/USB/Core/AVR8/../AVR8/Endpoint_AVR8.h **** 			 *  direction endpoints.
 573:../../protocol/lufa/LUFA-120730/LUFA/Drivers/USB/Core/AVR8/../AVR8/Endpoint_AVR8.h **** 			 *
 574:../../protocol/lufa/LUFA-120730/LUFA/Drivers/USB/Core/AVR8/../AVR8/Endpoint_AVR8.h **** 			 *  \ingroup Group_EndpointPrimitiveRW_AVR8
 575:../../protocol/lufa/LUFA-120730/LUFA/Drivers/USB/Core/AVR8/../AVR8/Endpoint_AVR8.h **** 			 *
 576:../../protocol/lufa/LUFA-120730/LUFA/Drivers/USB/Core/AVR8/../AVR8/Endpoint_AVR8.h **** 			 *  \return Next two bytes in the currently selected endpoint's FIFO buffer.
 577:../../protocol/lufa/LUFA-120730/LUFA/Drivers/USB/Core/AVR8/../AVR8/Endpoint_AVR8.h **** 			 */
 578:../../protocol/lufa/LUFA-120730/LUFA/Drivers/USB/Core/AVR8/../AVR8/Endpoint_AVR8.h **** 			static inline uint16_t Endpoint_Read_16_LE(void) ATTR_WARN_UNUSED_RESULT ATTR_ALWAYS_INLINE;
 579:../../protocol/lufa/LUFA-120730/LUFA/Drivers/USB/Core/AVR8/../AVR8/Endpoint_AVR8.h **** 			static inline uint16_t Endpoint_Read_16_LE(void)
 580:../../protocol/lufa/LUFA-120730/LUFA/Drivers/USB/Core/AVR8/../AVR8/Endpoint_AVR8.h **** 			{
 581:../../protocol/lufa/LUFA-120730/LUFA/Drivers/USB/Core/AVR8/../AVR8/Endpoint_AVR8.h **** 				union
 582:../../protocol/lufa/LUFA-120730/LUFA/Drivers/USB/Core/AVR8/../AVR8/Endpoint_AVR8.h **** 				{
 583:../../protocol/lufa/LUFA-120730/LUFA/Drivers/USB/Core/AVR8/../AVR8/Endpoint_AVR8.h **** 					uint16_t Value;
 584:../../protocol/lufa/LUFA-120730/LUFA/Drivers/USB/Core/AVR8/../AVR8/Endpoint_AVR8.h **** 					uint8_t  Bytes[2];
 585:../../protocol/lufa/LUFA-120730/LUFA/Drivers/USB/Core/AVR8/../AVR8/Endpoint_AVR8.h **** 				} Data;
 586:../../protocol/lufa/LUFA-120730/LUFA/Drivers/USB/Core/AVR8/../AVR8/Endpoint_AVR8.h **** 
 587:../../protocol/lufa/LUFA-120730/LUFA/Drivers/USB/Core/AVR8/../AVR8/Endpoint_AVR8.h **** 				Data.Bytes[0] = UEDATX;
 588:../../protocol/lufa/LUFA-120730/LUFA/Drivers/USB/Core/AVR8/../AVR8/Endpoint_AVR8.h **** 				Data.Bytes[1] = UEDATX;
 589:../../protocol/lufa/LUFA-120730/LUFA/Drivers/USB/Core/AVR8/../AVR8/Endpoint_AVR8.h **** 
 590:../../protocol/lufa/LUFA-120730/LUFA/Drivers/USB/Core/AVR8/../AVR8/Endpoint_AVR8.h **** 				return Data.Value;
 591:../../protocol/lufa/LUFA-120730/LUFA/Drivers/USB/Core/AVR8/../AVR8/Endpoint_AVR8.h **** 			}
 592:../../protocol/lufa/LUFA-120730/LUFA/Drivers/USB/Core/AVR8/../AVR8/Endpoint_AVR8.h **** 
 593:../../protocol/lufa/LUFA-120730/LUFA/Drivers/USB/Core/AVR8/../AVR8/Endpoint_AVR8.h **** 			/** Reads two bytes from the currently selected endpoint's bank in big endian format, for OUT
 594:../../protocol/lufa/LUFA-120730/LUFA/Drivers/USB/Core/AVR8/../AVR8/Endpoint_AVR8.h **** 			 *  direction endpoints.
 595:../../protocol/lufa/LUFA-120730/LUFA/Drivers/USB/Core/AVR8/../AVR8/Endpoint_AVR8.h **** 			 *
 596:../../protocol/lufa/LUFA-120730/LUFA/Drivers/USB/Core/AVR8/../AVR8/Endpoint_AVR8.h **** 			 *  \ingroup Group_EndpointPrimitiveRW_AVR8
 597:../../protocol/lufa/LUFA-120730/LUFA/Drivers/USB/Core/AVR8/../AVR8/Endpoint_AVR8.h **** 			 *
 598:../../protocol/lufa/LUFA-120730/LUFA/Drivers/USB/Core/AVR8/../AVR8/Endpoint_AVR8.h **** 			 *  \return Next two bytes in the currently selected endpoint's FIFO buffer.
 599:../../protocol/lufa/LUFA-120730/LUFA/Drivers/USB/Core/AVR8/../AVR8/Endpoint_AVR8.h **** 			 */
 600:../../protocol/lufa/LUFA-120730/LUFA/Drivers/USB/Core/AVR8/../AVR8/Endpoint_AVR8.h **** 			static inline uint16_t Endpoint_Read_16_BE(void) ATTR_WARN_UNUSED_RESULT ATTR_ALWAYS_INLINE;
 601:../../protocol/lufa/LUFA-120730/LUFA/Drivers/USB/Core/AVR8/../AVR8/Endpoint_AVR8.h **** 			static inline uint16_t Endpoint_Read_16_BE(void)
 602:../../protocol/lufa/LUFA-120730/LUFA/Drivers/USB/Core/AVR8/../AVR8/Endpoint_AVR8.h **** 			{
 603:../../protocol/lufa/LUFA-120730/LUFA/Drivers/USB/Core/AVR8/../AVR8/Endpoint_AVR8.h **** 				union
 604:../../protocol/lufa/LUFA-120730/LUFA/Drivers/USB/Core/AVR8/../AVR8/Endpoint_AVR8.h **** 				{
 605:../../protocol/lufa/LUFA-120730/LUFA/Drivers/USB/Core/AVR8/../AVR8/Endpoint_AVR8.h **** 					uint16_t Value;
 606:../../protocol/lufa/LUFA-120730/LUFA/Drivers/USB/Core/AVR8/../AVR8/Endpoint_AVR8.h **** 					uint8_t  Bytes[2];
 607:../../protocol/lufa/LUFA-120730/LUFA/Drivers/USB/Core/AVR8/../AVR8/Endpoint_AVR8.h **** 				} Data;
 608:../../protocol/lufa/LUFA-120730/LUFA/Drivers/USB/Core/AVR8/../AVR8/Endpoint_AVR8.h **** 
 609:../../protocol/lufa/LUFA-120730/LUFA/Drivers/USB/Core/AVR8/../AVR8/Endpoint_AVR8.h **** 				Data.Bytes[1] = UEDATX;
 610:../../protocol/lufa/LUFA-120730/LUFA/Drivers/USB/Core/AVR8/../AVR8/Endpoint_AVR8.h **** 				Data.Bytes[0] = UEDATX;
 611:../../protocol/lufa/LUFA-120730/LUFA/Drivers/USB/Core/AVR8/../AVR8/Endpoint_AVR8.h **** 
 612:../../protocol/lufa/LUFA-120730/LUFA/Drivers/USB/Core/AVR8/../AVR8/Endpoint_AVR8.h **** 				return Data.Value;
 613:../../protocol/lufa/LUFA-120730/LUFA/Drivers/USB/Core/AVR8/../AVR8/Endpoint_AVR8.h **** 			}
 614:../../protocol/lufa/LUFA-120730/LUFA/Drivers/USB/Core/AVR8/../AVR8/Endpoint_AVR8.h **** 
 615:../../protocol/lufa/LUFA-120730/LUFA/Drivers/USB/Core/AVR8/../AVR8/Endpoint_AVR8.h **** 			/** Writes two bytes to the currently selected endpoint's bank in little endian format, for IN
 616:../../protocol/lufa/LUFA-120730/LUFA/Drivers/USB/Core/AVR8/../AVR8/Endpoint_AVR8.h **** 			 *  direction endpoints.
 617:../../protocol/lufa/LUFA-120730/LUFA/Drivers/USB/Core/AVR8/../AVR8/Endpoint_AVR8.h **** 			 *
 618:../../protocol/lufa/LUFA-120730/LUFA/Drivers/USB/Core/AVR8/../AVR8/Endpoint_AVR8.h **** 			 *  \ingroup Group_EndpointPrimitiveRW_AVR8
 619:../../protocol/lufa/LUFA-120730/LUFA/Drivers/USB/Core/AVR8/../AVR8/Endpoint_AVR8.h **** 			 *
 620:../../protocol/lufa/LUFA-120730/LUFA/Drivers/USB/Core/AVR8/../AVR8/Endpoint_AVR8.h **** 			 *  \param[in] Data  Data to write to the currently selected endpoint's FIFO buffer.
 621:../../protocol/lufa/LUFA-120730/LUFA/Drivers/USB/Core/AVR8/../AVR8/Endpoint_AVR8.h **** 			 */
 622:../../protocol/lufa/LUFA-120730/LUFA/Drivers/USB/Core/AVR8/../AVR8/Endpoint_AVR8.h **** 			static inline void Endpoint_Write_16_LE(const uint16_t Data) ATTR_ALWAYS_INLINE;
 623:../../protocol/lufa/LUFA-120730/LUFA/Drivers/USB/Core/AVR8/../AVR8/Endpoint_AVR8.h **** 			static inline void Endpoint_Write_16_LE(const uint16_t Data)
 624:../../protocol/lufa/LUFA-120730/LUFA/Drivers/USB/Core/AVR8/../AVR8/Endpoint_AVR8.h **** 			{
 625:../../protocol/lufa/LUFA-120730/LUFA/Drivers/USB/Core/AVR8/../AVR8/Endpoint_AVR8.h **** 				UEDATX = (Data & 0xFF);
 176               		.loc 2 625 0
 177 008e 8093 F100 		sts 241,r24
 626:../../protocol/lufa/LUFA-120730/LUFA/Drivers/USB/Core/AVR8/../AVR8/Endpoint_AVR8.h **** 				UEDATX = (Data >> 8);
 178               		.loc 2 626 0
 179 0092 1092 F100 		sts 241,__zero_reg__
 180 0096 00C0      		rjmp .L65
 181               	.LVL14:
 182               	.L7:
 183               	.LBE195:
 184               	.LBE194:
 185               	.LBE185:
 186               	.LBE184:
  82:../../protocol/lufa/LUFA-120730/LUFA/Drivers/USB/Core/DeviceStandardReq.c **** 				if ((bmRequestType == (REQDIR_HOSTTODEVICE | REQTYPE_STANDARD | REQREC_DEVICE)) ||
 187               		.loc 1 82 0
 188 0098 822F      		mov r24,r18
 189 009a 8D7F      		andi r24,lo8(-3)
 190 009c 01F0      		breq .+2
 191 009e 00C0      		rjmp .L4
 192               	.LBB196:
 193               	.LBB197:
 301:../../protocol/lufa/LUFA-120730/LUFA/Drivers/USB/Core/DeviceStandardReq.c **** 			#endif
 302:../../protocol/lufa/LUFA-120730/LUFA/Drivers/USB/Core/DeviceStandardReq.c **** 			break;
 303:../../protocol/lufa/LUFA-120730/LUFA/Drivers/USB/Core/DeviceStandardReq.c **** 		case (REQDIR_DEVICETOHOST | REQTYPE_STANDARD | REQREC_ENDPOINT):
 304:../../protocol/lufa/LUFA-120730/LUFA/Drivers/USB/Core/DeviceStandardReq.c **** 			#if !defined(CONTROL_ONLY_DEVICE)
 305:../../protocol/lufa/LUFA-120730/LUFA/Drivers/USB/Core/DeviceStandardReq.c **** 			Endpoint_SelectEndpoint((uint8_t)USB_ControlRequest.wIndex & ENDPOINT_EPNUM_MASK);
 306:../../protocol/lufa/LUFA-120730/LUFA/Drivers/USB/Core/DeviceStandardReq.c **** 
 307:../../protocol/lufa/LUFA-120730/LUFA/Drivers/USB/Core/DeviceStandardReq.c **** 			CurrentStatus = Endpoint_IsStalled();
 308:../../protocol/lufa/LUFA-120730/LUFA/Drivers/USB/Core/DeviceStandardReq.c **** 
 309:../../protocol/lufa/LUFA-120730/LUFA/Drivers/USB/Core/DeviceStandardReq.c **** 			Endpoint_SelectEndpoint(ENDPOINT_CONTROLEP);
 310:../../protocol/lufa/LUFA-120730/LUFA/Drivers/USB/Core/DeviceStandardReq.c **** 			#endif
 311:../../protocol/lufa/LUFA-120730/LUFA/Drivers/USB/Core/DeviceStandardReq.c **** 
 312:../../protocol/lufa/LUFA-120730/LUFA/Drivers/USB/Core/DeviceStandardReq.c **** 			break;
 313:../../protocol/lufa/LUFA-120730/LUFA/Drivers/USB/Core/DeviceStandardReq.c **** 		default:
 314:../../protocol/lufa/LUFA-120730/LUFA/Drivers/USB/Core/DeviceStandardReq.c **** 			return;
 315:../../protocol/lufa/LUFA-120730/LUFA/Drivers/USB/Core/DeviceStandardReq.c **** 	}
 316:../../protocol/lufa/LUFA-120730/LUFA/Drivers/USB/Core/DeviceStandardReq.c **** 
 317:../../protocol/lufa/LUFA-120730/LUFA/Drivers/USB/Core/DeviceStandardReq.c **** 	Endpoint_ClearSETUP();
 318:../../protocol/lufa/LUFA-120730/LUFA/Drivers/USB/Core/DeviceStandardReq.c **** 
 319:../../protocol/lufa/LUFA-120730/LUFA/Drivers/USB/Core/DeviceStandardReq.c **** 	Endpoint_Write_16_LE(CurrentStatus);
 320:../../protocol/lufa/LUFA-120730/LUFA/Drivers/USB/Core/DeviceStandardReq.c **** 	Endpoint_ClearIN();
 321:../../protocol/lufa/LUFA-120730/LUFA/Drivers/USB/Core/DeviceStandardReq.c **** 
 322:../../protocol/lufa/LUFA-120730/LUFA/Drivers/USB/Core/DeviceStandardReq.c **** 	Endpoint_ClearStatusStage();
 323:../../protocol/lufa/LUFA-120730/LUFA/Drivers/USB/Core/DeviceStandardReq.c **** }
 324:../../protocol/lufa/LUFA-120730/LUFA/Drivers/USB/Core/DeviceStandardReq.c **** 
 325:../../protocol/lufa/LUFA-120730/LUFA/Drivers/USB/Core/DeviceStandardReq.c **** static void USB_Device_ClearSetFeature(void)
 326:../../protocol/lufa/LUFA-120730/LUFA/Drivers/USB/Core/DeviceStandardReq.c **** {
 327:../../protocol/lufa/LUFA-120730/LUFA/Drivers/USB/Core/DeviceStandardReq.c **** 	switch (USB_ControlRequest.bmRequestType & CONTROL_REQTYPE_RECIPIENT)
 194               		.loc 1 327 0
 195 00a0 2223      		tst r18
 196 00a2 01F0      		breq .L15
 197 00a4 2230      		cpi r18,lo8(2)
 198 00a6 01F0      		breq .L16
 199 00a8 00C0      		rjmp .L4
 200               	.L15:
 328:../../protocol/lufa/LUFA-120730/LUFA/Drivers/USB/Core/DeviceStandardReq.c **** 	{
 329:../../protocol/lufa/LUFA-120730/LUFA/Drivers/USB/Core/DeviceStandardReq.c **** 		#if !defined(NO_DEVICE_REMOTE_WAKEUP)
 330:../../protocol/lufa/LUFA-120730/LUFA/Drivers/USB/Core/DeviceStandardReq.c **** 		case REQREC_DEVICE:
 331:../../protocol/lufa/LUFA-120730/LUFA/Drivers/USB/Core/DeviceStandardReq.c **** 			if ((uint8_t)USB_ControlRequest.wValue == FEATURE_SEL_DeviceRemoteWakeup)
 201               		.loc 1 331 0
 202 00aa 8091 0000 		lds r24,USB_ControlRequest+2
 203 00ae 8130      		cpi r24,lo8(1)
 204 00b0 01F0      		breq .+2
 205 00b2 00C0      		rjmp .L4
 332:../../protocol/lufa/LUFA-120730/LUFA/Drivers/USB/Core/DeviceStandardReq.c **** 			  USB_Device_RemoteWakeupEnabled = (USB_ControlRequest.bRequest == REQ_SetFeature);
 206               		.loc 1 332 0
 207 00b4 3330      		cpi r19,lo8(3)
 208 00b6 01F0      		breq .L17
 209 00b8 80E0      		ldi r24,0
 210               	.L17:
 211 00ba 8093 0000 		sts USB_Device_RemoteWakeupEnabled,r24
 212 00be 00C0      		rjmp .L18
 213               	.L16:
 333:../../protocol/lufa/LUFA-120730/LUFA/Drivers/USB/Core/DeviceStandardReq.c **** 			else
 334:../../protocol/lufa/LUFA-120730/LUFA/Drivers/USB/Core/DeviceStandardReq.c **** 			  return;
 335:../../protocol/lufa/LUFA-120730/LUFA/Drivers/USB/Core/DeviceStandardReq.c **** 
 336:../../protocol/lufa/LUFA-120730/LUFA/Drivers/USB/Core/DeviceStandardReq.c **** 			break;
 337:../../protocol/lufa/LUFA-120730/LUFA/Drivers/USB/Core/DeviceStandardReq.c **** 		#endif
 338:../../protocol/lufa/LUFA-120730/LUFA/Drivers/USB/Core/DeviceStandardReq.c **** 		#if !defined(CONTROL_ONLY_DEVICE)
 339:../../protocol/lufa/LUFA-120730/LUFA/Drivers/USB/Core/DeviceStandardReq.c **** 		case REQREC_ENDPOINT:
 340:../../protocol/lufa/LUFA-120730/LUFA/Drivers/USB/Core/DeviceStandardReq.c **** 			if ((uint8_t)USB_ControlRequest.wValue == FEATURE_SEL_EndpointHalt)
 214               		.loc 1 340 0
 215 00c0 8091 0000 		lds r24,USB_ControlRequest+2
 216 00c4 8111      		cpse r24,__zero_reg__
 217 00c6 00C0      		rjmp .L18
 218               	.LBB198:
 341:../../protocol/lufa/LUFA-120730/LUFA/Drivers/USB/Core/DeviceStandardReq.c **** 			{
 342:../../protocol/lufa/LUFA-120730/LUFA/Drivers/USB/Core/DeviceStandardReq.c **** 				uint8_t EndpointIndex = ((uint8_t)USB_ControlRequest.wIndex & ENDPOINT_EPNUM_MASK);
 219               		.loc 1 342 0
 220 00c8 2091 0000 		lds r18,USB_ControlRequest+4
 221               	.LVL15:
 222 00cc 2F70      		andi r18,lo8(15)
 223               	.LVL16:
 343:../../protocol/lufa/LUFA-120730/LUFA/Drivers/USB/Core/DeviceStandardReq.c **** 
 344:../../protocol/lufa/LUFA-120730/LUFA/Drivers/USB/Core/DeviceStandardReq.c **** 				if (EndpointIndex == ENDPOINT_CONTROLEP)
 224               		.loc 1 344 0
 225 00ce 01F4      		brne .+2
 226 00d0 00C0      		rjmp .L4
 227               	.LVL17:
 228               	.LBB199:
 229               	.LBB200:
 270:../../protocol/lufa/LUFA-120730/LUFA/Drivers/USB/Core/AVR8/../AVR8/Endpoint_AVR8.h **** 					UENUM = (Address & ENDPOINT_EPNUM_MASK);
 230               		.loc 2 270 0
 231 00d2 2093 E900 		sts 233,r18
 232               	.LVL18:
 233               	.LBE200:
 234               	.LBE199:
 235               	.LBB201:
 236               	.LBB202:
 313:../../protocol/lufa/LUFA-120730/LUFA/Drivers/USB/Core/AVR8/../AVR8/Endpoint_AVR8.h **** 				return ((UECONX & (1 << EPEN)) ? true : false);
 237               		.loc 2 313 0
 238 00d6 8091 EB00 		lds r24,235
 239               	.LBE202:
 240               	.LBE201:
 345:../../protocol/lufa/LUFA-120730/LUFA/Drivers/USB/Core/DeviceStandardReq.c **** 				  return;
 346:../../protocol/lufa/LUFA-120730/LUFA/Drivers/USB/Core/DeviceStandardReq.c **** 
 347:../../protocol/lufa/LUFA-120730/LUFA/Drivers/USB/Core/DeviceStandardReq.c **** 				Endpoint_SelectEndpoint(EndpointIndex);
 348:../../protocol/lufa/LUFA-120730/LUFA/Drivers/USB/Core/DeviceStandardReq.c **** 
 349:../../protocol/lufa/LUFA-120730/LUFA/Drivers/USB/Core/DeviceStandardReq.c **** 				if (Endpoint_IsEnabled())
 241               		.loc 1 349 0
 242 00da 80FF      		sbrs r24,0
 243 00dc 00C0      		rjmp .L18
 244               	.LBB203:
 245               	.LBB204:
 491:../../protocol/lufa/LUFA-120730/LUFA/Drivers/USB/Core/AVR8/../AVR8/Endpoint_AVR8.h **** 				UECONX |= (1 << STALLRQ);
 246               		.loc 2 491 0
 247 00de 8091 EB00 		lds r24,235
 248               	.LBE204:
 249               	.LBE203:
 350:../../protocol/lufa/LUFA-120730/LUFA/Drivers/USB/Core/DeviceStandardReq.c **** 				{
 351:../../protocol/lufa/LUFA-120730/LUFA/Drivers/USB/Core/DeviceStandardReq.c **** 					if (USB_ControlRequest.bRequest == REQ_SetFeature)
 250               		.loc 1 351 0
 251 00e2 3330      		cpi r19,lo8(3)
 252 00e4 01F4      		brne .L21
 253               	.LBB206:
 254               	.LBB205:
 491:../../protocol/lufa/LUFA-120730/LUFA/Drivers/USB/Core/AVR8/../AVR8/Endpoint_AVR8.h **** 				UECONX |= (1 << STALLRQ);
 255               		.loc 2 491 0
 256 00e6 8062      		ori r24,lo8(32)
 257 00e8 00C0      		rjmp .L62
 258               	.L21:
 259               	.LBE205:
 260               	.LBE206:
 261               	.LBB207:
 262               	.LBB208:
 501:../../protocol/lufa/LUFA-120730/LUFA/Drivers/USB/Core/AVR8/../AVR8/Endpoint_AVR8.h **** 				UECONX |= (1 << STALLRQC);
 263               		.loc 2 501 0
 264 00ea 8061      		ori r24,lo8(16)
 265 00ec 8093 EB00 		sts 235,r24
 266               	.LVL19:
 267               	.LBE208:
 268               	.LBE207:
 269               	.LBB209:
 270               	.LBB210:
 282:../../protocol/lufa/LUFA-120730/LUFA/Drivers/USB/Core/AVR8/../AVR8/Endpoint_AVR8.h **** 				UERST = (1 << (Address & ENDPOINT_EPNUM_MASK));
 271               		.loc 2 282 0
 272 00f0 81E0      		ldi r24,lo8(1)
 273 00f2 90E0      		ldi r25,0
 274 00f4 022E      		mov r0,r18
 275 00f6 00C0      		rjmp 2f
 276               		1:
 277 00f8 880F      		lsl r24
 278               		2:
 279 00fa 0A94      		dec r0
 280 00fc 02F4      		brpl 1b
 281 00fe 8093 EA00 		sts 234,r24
 283:../../protocol/lufa/LUFA-120730/LUFA/Drivers/USB/Core/AVR8/../AVR8/Endpoint_AVR8.h **** 				UERST = 0;
 282               		.loc 2 283 0
 283 0102 1092 EA00 		sts 234,__zero_reg__
 284               	.LBE210:
 285               	.LBE209:
 286               	.LBB211:
 287               	.LBB212:
 520:../../protocol/lufa/LUFA-120730/LUFA/Drivers/USB/Core/AVR8/../AVR8/Endpoint_AVR8.h **** 				UECONX |= (1 << RSTDT);
 288               		.loc 2 520 0
 289 0106 8091 EB00 		lds r24,235
 290 010a 8860      		ori r24,lo8(8)
 291               	.LVL20:
 292               	.L62:
 293 010c 8093 EB00 		sts 235,r24
 294               	.LVL21:
 295               	.L18:
 296               	.LBE212:
 297               	.LBE211:
 298               	.LBE198:
 299               	.LBB213:
 300               	.LBB214:
 270:../../protocol/lufa/LUFA-120730/LUFA/Drivers/USB/Core/AVR8/../AVR8/Endpoint_AVR8.h **** 					UENUM = (Address & ENDPOINT_EPNUM_MASK);
 301               		.loc 2 270 0
 302 0110 1092 E900 		sts 233,__zero_reg__
 303               	.LBE214:
 304               	.LBE213:
 305               	.LBB215:
 306               	.LBB216:
 444:../../protocol/lufa/LUFA-120730/LUFA/Drivers/USB/Core/AVR8/../AVR8/Endpoint_AVR8.h **** 				UEINTX &= ~(1 << RXSTPI);
 307               		.loc 2 444 0
 308 0114 8091 E800 		lds r24,232
 309 0118 877F      		andi r24,lo8(-9)
 310 011a 00C0      		rjmp .L63
 311               	.LVL22:
 312               	.L8:
 313               	.LBE216:
 314               	.LBE215:
 315               	.LBE197:
 316               	.LBE196:
  90:../../protocol/lufa/LUFA-120730/LUFA/Drivers/USB/Core/DeviceStandardReq.c **** 				if (bmRequestType == (REQDIR_HOSTTODEVICE | REQTYPE_STANDARD | REQREC_DEVICE))
 317               		.loc 1 90 0
 318 011c 2111      		cpse r18,__zero_reg__
 319 011e 00C0      		rjmp .L4
 320               	.LBB217:
 321               	.LBB218:
 124:../../protocol/lufa/LUFA-120730/LUFA/Drivers/USB/Core/DeviceStandardReq.c **** 	uint8_t    DeviceAddress    = (USB_ControlRequest.wValue & 0x7F);
 322               		.loc 1 124 0
 323 0120 1091 0000 		lds r17,USB_ControlRequest+2
 324 0124 1F77      		andi r17,lo8(127)
 325               	.LVL23:
 326               	.LBB219:
 327               	.LBB220:
 328               		.file 3 "../../protocol/lufa/LUFA-120730/LUFA/Drivers/USB/Core/../../../Common/Common.h"
   1:../../protocol/lufa/LUFA-120730/LUFA/Drivers/USB/Core/../../../Common/Common.h **** /*
   2:../../protocol/lufa/LUFA-120730/LUFA/Drivers/USB/Core/../../../Common/Common.h ****              LUFA Library
   3:../../protocol/lufa/LUFA-120730/LUFA/Drivers/USB/Core/../../../Common/Common.h ****      Copyright (C) Dean Camera, 2012.
   4:../../protocol/lufa/LUFA-120730/LUFA/Drivers/USB/Core/../../../Common/Common.h **** 
   5:../../protocol/lufa/LUFA-120730/LUFA/Drivers/USB/Core/../../../Common/Common.h ****   dean [at] fourwalledcubicle [dot] com
   6:../../protocol/lufa/LUFA-120730/LUFA/Drivers/USB/Core/../../../Common/Common.h ****            www.lufa-lib.org
   7:../../protocol/lufa/LUFA-120730/LUFA/Drivers/USB/Core/../../../Common/Common.h **** */
   8:../../protocol/lufa/LUFA-120730/LUFA/Drivers/USB/Core/../../../Common/Common.h **** 
   9:../../protocol/lufa/LUFA-120730/LUFA/Drivers/USB/Core/../../../Common/Common.h **** /*
  10:../../protocol/lufa/LUFA-120730/LUFA/Drivers/USB/Core/../../../Common/Common.h ****   Copyright 2012  Dean Camera (dean [at] fourwalledcubicle [dot] com)
  11:../../protocol/lufa/LUFA-120730/LUFA/Drivers/USB/Core/../../../Common/Common.h **** 
  12:../../protocol/lufa/LUFA-120730/LUFA/Drivers/USB/Core/../../../Common/Common.h ****   Permission to use, copy, modify, distribute, and sell this
  13:../../protocol/lufa/LUFA-120730/LUFA/Drivers/USB/Core/../../../Common/Common.h ****   software and its documentation for any purpose is hereby granted
  14:../../protocol/lufa/LUFA-120730/LUFA/Drivers/USB/Core/../../../Common/Common.h ****   without fee, provided that the above copyright notice appear in
  15:../../protocol/lufa/LUFA-120730/LUFA/Drivers/USB/Core/../../../Common/Common.h ****   all copies and that both that the copyright notice and this
  16:../../protocol/lufa/LUFA-120730/LUFA/Drivers/USB/Core/../../../Common/Common.h ****   permission notice and warranty disclaimer appear in supporting
  17:../../protocol/lufa/LUFA-120730/LUFA/Drivers/USB/Core/../../../Common/Common.h ****   documentation, and that the name of the author not be used in
  18:../../protocol/lufa/LUFA-120730/LUFA/Drivers/USB/Core/../../../Common/Common.h ****   advertising or publicity pertaining to distribution of the
  19:../../protocol/lufa/LUFA-120730/LUFA/Drivers/USB/Core/../../../Common/Common.h ****   software without specific, written prior permission.
  20:../../protocol/lufa/LUFA-120730/LUFA/Drivers/USB/Core/../../../Common/Common.h **** 
  21:../../protocol/lufa/LUFA-120730/LUFA/Drivers/USB/Core/../../../Common/Common.h ****   The author disclaim all warranties with regard to this
  22:../../protocol/lufa/LUFA-120730/LUFA/Drivers/USB/Core/../../../Common/Common.h ****   software, including all implied warranties of merchantability
  23:../../protocol/lufa/LUFA-120730/LUFA/Drivers/USB/Core/../../../Common/Common.h ****   and fitness.  In no event shall the author be liable for any
  24:../../protocol/lufa/LUFA-120730/LUFA/Drivers/USB/Core/../../../Common/Common.h ****   special, indirect or consequential damages or any damages
  25:../../protocol/lufa/LUFA-120730/LUFA/Drivers/USB/Core/../../../Common/Common.h ****   whatsoever resulting from loss of use, data or profits, whether
  26:../../protocol/lufa/LUFA-120730/LUFA/Drivers/USB/Core/../../../Common/Common.h ****   in an action of contract, negligence or other tortious action,
  27:../../protocol/lufa/LUFA-120730/LUFA/Drivers/USB/Core/../../../Common/Common.h ****   arising out of or in connection with the use or performance of
  28:../../protocol/lufa/LUFA-120730/LUFA/Drivers/USB/Core/../../../Common/Common.h ****   this software.
  29:../../protocol/lufa/LUFA-120730/LUFA/Drivers/USB/Core/../../../Common/Common.h **** */
  30:../../protocol/lufa/LUFA-120730/LUFA/Drivers/USB/Core/../../../Common/Common.h **** 
  31:../../protocol/lufa/LUFA-120730/LUFA/Drivers/USB/Core/../../../Common/Common.h **** /** \dir
  32:../../protocol/lufa/LUFA-120730/LUFA/Drivers/USB/Core/../../../Common/Common.h ****  *  \brief Common library header files.
  33:../../protocol/lufa/LUFA-120730/LUFA/Drivers/USB/Core/../../../Common/Common.h ****  *
  34:../../protocol/lufa/LUFA-120730/LUFA/Drivers/USB/Core/../../../Common/Common.h ****  *  This folder contains header files which are common to all parts of the LUFA library. They may b
  35:../../protocol/lufa/LUFA-120730/LUFA/Drivers/USB/Core/../../../Common/Common.h ****  *  user applications.
  36:../../protocol/lufa/LUFA-120730/LUFA/Drivers/USB/Core/../../../Common/Common.h ****  */
  37:../../protocol/lufa/LUFA-120730/LUFA/Drivers/USB/Core/../../../Common/Common.h **** 
  38:../../protocol/lufa/LUFA-120730/LUFA/Drivers/USB/Core/../../../Common/Common.h **** /** \file
  39:../../protocol/lufa/LUFA-120730/LUFA/Drivers/USB/Core/../../../Common/Common.h ****  *  \brief Common library convenience headers, macros and functions.
  40:../../protocol/lufa/LUFA-120730/LUFA/Drivers/USB/Core/../../../Common/Common.h ****  *
  41:../../protocol/lufa/LUFA-120730/LUFA/Drivers/USB/Core/../../../Common/Common.h ****  *  \copydetails Group_Common
  42:../../protocol/lufa/LUFA-120730/LUFA/Drivers/USB/Core/../../../Common/Common.h ****  */
  43:../../protocol/lufa/LUFA-120730/LUFA/Drivers/USB/Core/../../../Common/Common.h **** 
  44:../../protocol/lufa/LUFA-120730/LUFA/Drivers/USB/Core/../../../Common/Common.h **** /** \defgroup Group_Common Common Utility Headers - LUFA/Drivers/Common/Common.h
  45:../../protocol/lufa/LUFA-120730/LUFA/Drivers/USB/Core/../../../Common/Common.h ****  *  \brief Common library convenience headers, macros and functions.
  46:../../protocol/lufa/LUFA-120730/LUFA/Drivers/USB/Core/../../../Common/Common.h ****  *
  47:../../protocol/lufa/LUFA-120730/LUFA/Drivers/USB/Core/../../../Common/Common.h ****  *  Common utility headers containing macros, functions, enums and types which are common to all
  48:../../protocol/lufa/LUFA-120730/LUFA/Drivers/USB/Core/../../../Common/Common.h ****  *  aspects of the library.
  49:../../protocol/lufa/LUFA-120730/LUFA/Drivers/USB/Core/../../../Common/Common.h ****  *
  50:../../protocol/lufa/LUFA-120730/LUFA/Drivers/USB/Core/../../../Common/Common.h ****  *  @{
  51:../../protocol/lufa/LUFA-120730/LUFA/Drivers/USB/Core/../../../Common/Common.h ****  */
  52:../../protocol/lufa/LUFA-120730/LUFA/Drivers/USB/Core/../../../Common/Common.h **** 
  53:../../protocol/lufa/LUFA-120730/LUFA/Drivers/USB/Core/../../../Common/Common.h **** /** \defgroup Group_GlobalInt Global Interrupt Macros
  54:../../protocol/lufa/LUFA-120730/LUFA/Drivers/USB/Core/../../../Common/Common.h ****  *  \brief Convenience macros for the management of interrupts globally within the device.
  55:../../protocol/lufa/LUFA-120730/LUFA/Drivers/USB/Core/../../../Common/Common.h ****  *
  56:../../protocol/lufa/LUFA-120730/LUFA/Drivers/USB/Core/../../../Common/Common.h ****  *  Macros and functions to create and control global interrupts within the device.
  57:../../protocol/lufa/LUFA-120730/LUFA/Drivers/USB/Core/../../../Common/Common.h ****  */
  58:../../protocol/lufa/LUFA-120730/LUFA/Drivers/USB/Core/../../../Common/Common.h **** 
  59:../../protocol/lufa/LUFA-120730/LUFA/Drivers/USB/Core/../../../Common/Common.h **** #ifndef __LUFA_COMMON_H__
  60:../../protocol/lufa/LUFA-120730/LUFA/Drivers/USB/Core/../../../Common/Common.h **** #define __LUFA_COMMON_H__
  61:../../protocol/lufa/LUFA-120730/LUFA/Drivers/USB/Core/../../../Common/Common.h **** 
  62:../../protocol/lufa/LUFA-120730/LUFA/Drivers/USB/Core/../../../Common/Common.h **** 	/* Macros: */
  63:../../protocol/lufa/LUFA-120730/LUFA/Drivers/USB/Core/../../../Common/Common.h **** 		#define __INCLUDE_FROM_COMMON_H
  64:../../protocol/lufa/LUFA-120730/LUFA/Drivers/USB/Core/../../../Common/Common.h **** 
  65:../../protocol/lufa/LUFA-120730/LUFA/Drivers/USB/Core/../../../Common/Common.h **** 	/* Includes: */
  66:../../protocol/lufa/LUFA-120730/LUFA/Drivers/USB/Core/../../../Common/Common.h **** 		#include <stdint.h>
  67:../../protocol/lufa/LUFA-120730/LUFA/Drivers/USB/Core/../../../Common/Common.h **** 		#include <stdbool.h>
  68:../../protocol/lufa/LUFA-120730/LUFA/Drivers/USB/Core/../../../Common/Common.h **** 		#include <string.h>
  69:../../protocol/lufa/LUFA-120730/LUFA/Drivers/USB/Core/../../../Common/Common.h **** 		#include <stddef.h>
  70:../../protocol/lufa/LUFA-120730/LUFA/Drivers/USB/Core/../../../Common/Common.h **** 
  71:../../protocol/lufa/LUFA-120730/LUFA/Drivers/USB/Core/../../../Common/Common.h **** 		#include "Architectures.h"
  72:../../protocol/lufa/LUFA-120730/LUFA/Drivers/USB/Core/../../../Common/Common.h **** 		#include "BoardTypes.h"
  73:../../protocol/lufa/LUFA-120730/LUFA/Drivers/USB/Core/../../../Common/Common.h **** 		#include "ArchitectureSpecific.h"
  74:../../protocol/lufa/LUFA-120730/LUFA/Drivers/USB/Core/../../../Common/Common.h **** 		#include "CompilerSpecific.h"
  75:../../protocol/lufa/LUFA-120730/LUFA/Drivers/USB/Core/../../../Common/Common.h **** 		#include "Attributes.h"
  76:../../protocol/lufa/LUFA-120730/LUFA/Drivers/USB/Core/../../../Common/Common.h **** 
  77:../../protocol/lufa/LUFA-120730/LUFA/Drivers/USB/Core/../../../Common/Common.h **** 		#if defined(USE_LUFA_CONFIG_HEADER)
  78:../../protocol/lufa/LUFA-120730/LUFA/Drivers/USB/Core/../../../Common/Common.h **** 			#include "LUFAConfig.h"
  79:../../protocol/lufa/LUFA-120730/LUFA/Drivers/USB/Core/../../../Common/Common.h **** 		#endif
  80:../../protocol/lufa/LUFA-120730/LUFA/Drivers/USB/Core/../../../Common/Common.h **** 
  81:../../protocol/lufa/LUFA-120730/LUFA/Drivers/USB/Core/../../../Common/Common.h **** 	/* Enable C linkage for C++ Compilers: */
  82:../../protocol/lufa/LUFA-120730/LUFA/Drivers/USB/Core/../../../Common/Common.h **** 		#if defined(__cplusplus)
  83:../../protocol/lufa/LUFA-120730/LUFA/Drivers/USB/Core/../../../Common/Common.h **** 			extern "C" {
  84:../../protocol/lufa/LUFA-120730/LUFA/Drivers/USB/Core/../../../Common/Common.h **** 		#endif
  85:../../protocol/lufa/LUFA-120730/LUFA/Drivers/USB/Core/../../../Common/Common.h **** 
  86:../../protocol/lufa/LUFA-120730/LUFA/Drivers/USB/Core/../../../Common/Common.h **** 	/* Architecture specific utility includes: */
  87:../../protocol/lufa/LUFA-120730/LUFA/Drivers/USB/Core/../../../Common/Common.h **** 		#if defined(__DOXYGEN__)
  88:../../protocol/lufa/LUFA-120730/LUFA/Drivers/USB/Core/../../../Common/Common.h **** 			/** Type define for an unsigned integer the same width as the selected architecture's machine re
  89:../../protocol/lufa/LUFA-120730/LUFA/Drivers/USB/Core/../../../Common/Common.h **** 			 *  This is distinct from the non-specific standard int data type, whose width is machine depend
  90:../../protocol/lufa/LUFA-120730/LUFA/Drivers/USB/Core/../../../Common/Common.h **** 			 *  which may not reflect the actual machine register width on some targets (e.g. AVR8).
  91:../../protocol/lufa/LUFA-120730/LUFA/Drivers/USB/Core/../../../Common/Common.h **** 			 */
  92:../../protocol/lufa/LUFA-120730/LUFA/Drivers/USB/Core/../../../Common/Common.h **** 			typedef MACHINE_REG_t uint_reg_t;
  93:../../protocol/lufa/LUFA-120730/LUFA/Drivers/USB/Core/../../../Common/Common.h **** 		#elif (ARCH == ARCH_AVR8)
  94:../../protocol/lufa/LUFA-120730/LUFA/Drivers/USB/Core/../../../Common/Common.h **** 			#include <avr/io.h>
  95:../../protocol/lufa/LUFA-120730/LUFA/Drivers/USB/Core/../../../Common/Common.h **** 			#include <avr/interrupt.h>
  96:../../protocol/lufa/LUFA-120730/LUFA/Drivers/USB/Core/../../../Common/Common.h **** 			#include <avr/pgmspace.h>
  97:../../protocol/lufa/LUFA-120730/LUFA/Drivers/USB/Core/../../../Common/Common.h **** 			#include <avr/eeprom.h>
  98:../../protocol/lufa/LUFA-120730/LUFA/Drivers/USB/Core/../../../Common/Common.h **** 			#include <avr/boot.h>
  99:../../protocol/lufa/LUFA-120730/LUFA/Drivers/USB/Core/../../../Common/Common.h **** 			#include <math.h>
 100:../../protocol/lufa/LUFA-120730/LUFA/Drivers/USB/Core/../../../Common/Common.h **** 			#include <util/delay.h>
 101:../../protocol/lufa/LUFA-120730/LUFA/Drivers/USB/Core/../../../Common/Common.h **** 
 102:../../protocol/lufa/LUFA-120730/LUFA/Drivers/USB/Core/../../../Common/Common.h **** 			typedef uint8_t uint_reg_t;
 103:../../protocol/lufa/LUFA-120730/LUFA/Drivers/USB/Core/../../../Common/Common.h **** 
 104:../../protocol/lufa/LUFA-120730/LUFA/Drivers/USB/Core/../../../Common/Common.h **** 			#define ARCH_HAS_EEPROM_ADDRESS_SPACE
 105:../../protocol/lufa/LUFA-120730/LUFA/Drivers/USB/Core/../../../Common/Common.h **** 			#define ARCH_HAS_FLASH_ADDRESS_SPACE
 106:../../protocol/lufa/LUFA-120730/LUFA/Drivers/USB/Core/../../../Common/Common.h **** 			#define ARCH_HAS_MULTI_ADDRESS_SPACE
 107:../../protocol/lufa/LUFA-120730/LUFA/Drivers/USB/Core/../../../Common/Common.h **** 			#define ARCH_LITTLE_ENDIAN
 108:../../protocol/lufa/LUFA-120730/LUFA/Drivers/USB/Core/../../../Common/Common.h **** 
 109:../../protocol/lufa/LUFA-120730/LUFA/Drivers/USB/Core/../../../Common/Common.h **** 			#include "Endianness.h"
 110:../../protocol/lufa/LUFA-120730/LUFA/Drivers/USB/Core/../../../Common/Common.h **** 		#elif (ARCH == ARCH_UC3)
 111:../../protocol/lufa/LUFA-120730/LUFA/Drivers/USB/Core/../../../Common/Common.h **** 			#include <avr32/io.h>
 112:../../protocol/lufa/LUFA-120730/LUFA/Drivers/USB/Core/../../../Common/Common.h **** 			#include <math.h>
 113:../../protocol/lufa/LUFA-120730/LUFA/Drivers/USB/Core/../../../Common/Common.h **** 
 114:../../protocol/lufa/LUFA-120730/LUFA/Drivers/USB/Core/../../../Common/Common.h **** 			// === TODO: Find abstracted way to handle these ===
 115:../../protocol/lufa/LUFA-120730/LUFA/Drivers/USB/Core/../../../Common/Common.h **** 			#define PROGMEM                  
 116:../../protocol/lufa/LUFA-120730/LUFA/Drivers/USB/Core/../../../Common/Common.h **** 			#define pgm_read_byte(x)         *x
 117:../../protocol/lufa/LUFA-120730/LUFA/Drivers/USB/Core/../../../Common/Common.h **** 			#define memcmp_P(...)            memcmp(__VA_ARGS__)
 118:../../protocol/lufa/LUFA-120730/LUFA/Drivers/USB/Core/../../../Common/Common.h **** 			#define memcpy_P(...)            memcpy(__VA_ARGS__)
 119:../../protocol/lufa/LUFA-120730/LUFA/Drivers/USB/Core/../../../Common/Common.h **** 			// =================================================
 120:../../protocol/lufa/LUFA-120730/LUFA/Drivers/USB/Core/../../../Common/Common.h **** 
 121:../../protocol/lufa/LUFA-120730/LUFA/Drivers/USB/Core/../../../Common/Common.h **** 			typedef uint32_t uint_reg_t;
 122:../../protocol/lufa/LUFA-120730/LUFA/Drivers/USB/Core/../../../Common/Common.h **** 
 123:../../protocol/lufa/LUFA-120730/LUFA/Drivers/USB/Core/../../../Common/Common.h **** 			#define ARCH_BIG_ENDIAN
 124:../../protocol/lufa/LUFA-120730/LUFA/Drivers/USB/Core/../../../Common/Common.h **** 
 125:../../protocol/lufa/LUFA-120730/LUFA/Drivers/USB/Core/../../../Common/Common.h **** 			#include "Endianness.h"
 126:../../protocol/lufa/LUFA-120730/LUFA/Drivers/USB/Core/../../../Common/Common.h **** 		#elif (ARCH == ARCH_XMEGA)
 127:../../protocol/lufa/LUFA-120730/LUFA/Drivers/USB/Core/../../../Common/Common.h **** 			#include <avr/io.h>
 128:../../protocol/lufa/LUFA-120730/LUFA/Drivers/USB/Core/../../../Common/Common.h **** 			#include <avr/interrupt.h>
 129:../../protocol/lufa/LUFA-120730/LUFA/Drivers/USB/Core/../../../Common/Common.h **** 			#include <avr/pgmspace.h>
 130:../../protocol/lufa/LUFA-120730/LUFA/Drivers/USB/Core/../../../Common/Common.h **** 			#include <avr/eeprom.h>
 131:../../protocol/lufa/LUFA-120730/LUFA/Drivers/USB/Core/../../../Common/Common.h **** 			#include <math.h>
 132:../../protocol/lufa/LUFA-120730/LUFA/Drivers/USB/Core/../../../Common/Common.h **** 			#include <util/delay.h>
 133:../../protocol/lufa/LUFA-120730/LUFA/Drivers/USB/Core/../../../Common/Common.h **** 
 134:../../protocol/lufa/LUFA-120730/LUFA/Drivers/USB/Core/../../../Common/Common.h **** 			typedef uint8_t uint_reg_t;
 135:../../protocol/lufa/LUFA-120730/LUFA/Drivers/USB/Core/../../../Common/Common.h **** 
 136:../../protocol/lufa/LUFA-120730/LUFA/Drivers/USB/Core/../../../Common/Common.h **** 			#define ARCH_HAS_EEPROM_ADDRESS_SPACE
 137:../../protocol/lufa/LUFA-120730/LUFA/Drivers/USB/Core/../../../Common/Common.h **** 			#define ARCH_HAS_FLASH_ADDRESS_SPACE
 138:../../protocol/lufa/LUFA-120730/LUFA/Drivers/USB/Core/../../../Common/Common.h **** 			#define ARCH_HAS_MULTI_ADDRESS_SPACE
 139:../../protocol/lufa/LUFA-120730/LUFA/Drivers/USB/Core/../../../Common/Common.h **** 			#define ARCH_LITTLE_ENDIAN
 140:../../protocol/lufa/LUFA-120730/LUFA/Drivers/USB/Core/../../../Common/Common.h **** 
 141:../../protocol/lufa/LUFA-120730/LUFA/Drivers/USB/Core/../../../Common/Common.h **** 			#include "Endianness.h"
 142:../../protocol/lufa/LUFA-120730/LUFA/Drivers/USB/Core/../../../Common/Common.h **** 		#else
 143:../../protocol/lufa/LUFA-120730/LUFA/Drivers/USB/Core/../../../Common/Common.h **** 			#error Unknown device architecture specified.
 144:../../protocol/lufa/LUFA-120730/LUFA/Drivers/USB/Core/../../../Common/Common.h **** 		#endif
 145:../../protocol/lufa/LUFA-120730/LUFA/Drivers/USB/Core/../../../Common/Common.h **** 
 146:../../protocol/lufa/LUFA-120730/LUFA/Drivers/USB/Core/../../../Common/Common.h **** 	/* Public Interface - May be used in end-application: */
 147:../../protocol/lufa/LUFA-120730/LUFA/Drivers/USB/Core/../../../Common/Common.h **** 		/* Macros: */
 148:../../protocol/lufa/LUFA-120730/LUFA/Drivers/USB/Core/../../../Common/Common.h **** 			/** Macro for encasing other multi-statement macros. This should be used along with an opening b
 149:../../protocol/lufa/LUFA-120730/LUFA/Drivers/USB/Core/../../../Common/Common.h **** 			 *  before the start of any multi-statement macro, so that the macros contents as a whole are tr
 150:../../protocol/lufa/LUFA-120730/LUFA/Drivers/USB/Core/../../../Common/Common.h **** 			 *  as a discrete block and not as a list of separate statements which may cause problems when u
 151:../../protocol/lufa/LUFA-120730/LUFA/Drivers/USB/Core/../../../Common/Common.h **** 			 *  a block (such as inline \c if statements).
 152:../../protocol/lufa/LUFA-120730/LUFA/Drivers/USB/Core/../../../Common/Common.h **** 			 */
 153:../../protocol/lufa/LUFA-120730/LUFA/Drivers/USB/Core/../../../Common/Common.h **** 			#define MACROS                  do
 154:../../protocol/lufa/LUFA-120730/LUFA/Drivers/USB/Core/../../../Common/Common.h **** 
 155:../../protocol/lufa/LUFA-120730/LUFA/Drivers/USB/Core/../../../Common/Common.h **** 			/** Macro for encasing other multi-statement macros. This should be used along with a preceding 
 156:../../protocol/lufa/LUFA-120730/LUFA/Drivers/USB/Core/../../../Common/Common.h **** 			 *  brace at the end of any multi-statement macro, so that the macros contents as a whole are tr
 157:../../protocol/lufa/LUFA-120730/LUFA/Drivers/USB/Core/../../../Common/Common.h **** 			 *  as a discrete block and not as a list of separate statements which may cause problems when u
 158:../../protocol/lufa/LUFA-120730/LUFA/Drivers/USB/Core/../../../Common/Common.h **** 			 *  a block (such as inline \c if statements).
 159:../../protocol/lufa/LUFA-120730/LUFA/Drivers/USB/Core/../../../Common/Common.h **** 			 */
 160:../../protocol/lufa/LUFA-120730/LUFA/Drivers/USB/Core/../../../Common/Common.h **** 			#define MACROE                  while (0)
 161:../../protocol/lufa/LUFA-120730/LUFA/Drivers/USB/Core/../../../Common/Common.h **** 
 162:../../protocol/lufa/LUFA-120730/LUFA/Drivers/USB/Core/../../../Common/Common.h **** 			/** Convenience macro to determine the larger of two values.
 163:../../protocol/lufa/LUFA-120730/LUFA/Drivers/USB/Core/../../../Common/Common.h **** 			 *
 164:../../protocol/lufa/LUFA-120730/LUFA/Drivers/USB/Core/../../../Common/Common.h **** 			 *  \attention This macro should only be used with operands that do not have side effects from b
 165:../../protocol/lufa/LUFA-120730/LUFA/Drivers/USB/Core/../../../Common/Common.h **** 			 *             multiple times.
 166:../../protocol/lufa/LUFA-120730/LUFA/Drivers/USB/Core/../../../Common/Common.h **** 			 *
 167:../../protocol/lufa/LUFA-120730/LUFA/Drivers/USB/Core/../../../Common/Common.h **** 			 *  \param[in] x  First value to compare
 168:../../protocol/lufa/LUFA-120730/LUFA/Drivers/USB/Core/../../../Common/Common.h **** 			 *  \param[in] y  First value to compare
 169:../../protocol/lufa/LUFA-120730/LUFA/Drivers/USB/Core/../../../Common/Common.h **** 			 *
 170:../../protocol/lufa/LUFA-120730/LUFA/Drivers/USB/Core/../../../Common/Common.h **** 			 *  \return The larger of the two input parameters
 171:../../protocol/lufa/LUFA-120730/LUFA/Drivers/USB/Core/../../../Common/Common.h **** 			 */
 172:../../protocol/lufa/LUFA-120730/LUFA/Drivers/USB/Core/../../../Common/Common.h **** 			#if !defined(MAX) || defined(__DOXYGEN__)
 173:../../protocol/lufa/LUFA-120730/LUFA/Drivers/USB/Core/../../../Common/Common.h **** 				#define MAX(x, y)               (((x) > (y)) ? (x) : (y))
 174:../../protocol/lufa/LUFA-120730/LUFA/Drivers/USB/Core/../../../Common/Common.h **** 			#endif
 175:../../protocol/lufa/LUFA-120730/LUFA/Drivers/USB/Core/../../../Common/Common.h **** 
 176:../../protocol/lufa/LUFA-120730/LUFA/Drivers/USB/Core/../../../Common/Common.h **** 			/** Convenience macro to determine the smaller of two values.
 177:../../protocol/lufa/LUFA-120730/LUFA/Drivers/USB/Core/../../../Common/Common.h **** 			 *
 178:../../protocol/lufa/LUFA-120730/LUFA/Drivers/USB/Core/../../../Common/Common.h **** 			 *  \attention This macro should only be used with operands that do not have side effects from b
 179:../../protocol/lufa/LUFA-120730/LUFA/Drivers/USB/Core/../../../Common/Common.h **** 			 *             multiple times.
 180:../../protocol/lufa/LUFA-120730/LUFA/Drivers/USB/Core/../../../Common/Common.h **** 			 *
 181:../../protocol/lufa/LUFA-120730/LUFA/Drivers/USB/Core/../../../Common/Common.h **** 			 *  \param[in] x  First value to compare
 182:../../protocol/lufa/LUFA-120730/LUFA/Drivers/USB/Core/../../../Common/Common.h **** 			 *  \param[in] y  First value to compare
 183:../../protocol/lufa/LUFA-120730/LUFA/Drivers/USB/Core/../../../Common/Common.h **** 			 *
 184:../../protocol/lufa/LUFA-120730/LUFA/Drivers/USB/Core/../../../Common/Common.h **** 			 *  \return The smaller of the two input parameters
 185:../../protocol/lufa/LUFA-120730/LUFA/Drivers/USB/Core/../../../Common/Common.h **** 			 */
 186:../../protocol/lufa/LUFA-120730/LUFA/Drivers/USB/Core/../../../Common/Common.h **** 			#if !defined(MIN) || defined(__DOXYGEN__)
 187:../../protocol/lufa/LUFA-120730/LUFA/Drivers/USB/Core/../../../Common/Common.h **** 				#define MIN(x, y)               (((x) < (y)) ? (x) : (y))
 188:../../protocol/lufa/LUFA-120730/LUFA/Drivers/USB/Core/../../../Common/Common.h **** 			#endif
 189:../../protocol/lufa/LUFA-120730/LUFA/Drivers/USB/Core/../../../Common/Common.h **** 
 190:../../protocol/lufa/LUFA-120730/LUFA/Drivers/USB/Core/../../../Common/Common.h **** 			#if !defined(STRINGIFY) || defined(__DOXYGEN__)
 191:../../protocol/lufa/LUFA-120730/LUFA/Drivers/USB/Core/../../../Common/Common.h **** 				/** Converts the given input into a string, via the C Preprocessor. This macro puts literal quo
 192:../../protocol/lufa/LUFA-120730/LUFA/Drivers/USB/Core/../../../Common/Common.h **** 				 *  marks around the input, converting the source into a string literal.
 193:../../protocol/lufa/LUFA-120730/LUFA/Drivers/USB/Core/../../../Common/Common.h **** 				 *
 194:../../protocol/lufa/LUFA-120730/LUFA/Drivers/USB/Core/../../../Common/Common.h **** 				 *  \param[in] x  Input to convert into a string literal.
 195:../../protocol/lufa/LUFA-120730/LUFA/Drivers/USB/Core/../../../Common/Common.h **** 				 *
 196:../../protocol/lufa/LUFA-120730/LUFA/Drivers/USB/Core/../../../Common/Common.h **** 				 *  \return String version of the input.
 197:../../protocol/lufa/LUFA-120730/LUFA/Drivers/USB/Core/../../../Common/Common.h **** 				 */
 198:../../protocol/lufa/LUFA-120730/LUFA/Drivers/USB/Core/../../../Common/Common.h **** 				#define STRINGIFY(x)            #x
 199:../../protocol/lufa/LUFA-120730/LUFA/Drivers/USB/Core/../../../Common/Common.h **** 
 200:../../protocol/lufa/LUFA-120730/LUFA/Drivers/USB/Core/../../../Common/Common.h **** 				/** Converts the given input into a string after macro expansion, via the C Preprocessor. This 
 201:../../protocol/lufa/LUFA-120730/LUFA/Drivers/USB/Core/../../../Common/Common.h **** 				 *  literal quotation marks around the expanded input, converting the source into a string lite
 202:../../protocol/lufa/LUFA-120730/LUFA/Drivers/USB/Core/../../../Common/Common.h **** 				 *
 203:../../protocol/lufa/LUFA-120730/LUFA/Drivers/USB/Core/../../../Common/Common.h **** 				 *  \param[in] x  Input to expand and convert into a string literal.
 204:../../protocol/lufa/LUFA-120730/LUFA/Drivers/USB/Core/../../../Common/Common.h **** 				 *
 205:../../protocol/lufa/LUFA-120730/LUFA/Drivers/USB/Core/../../../Common/Common.h **** 				 *  \return String version of the expanded input.
 206:../../protocol/lufa/LUFA-120730/LUFA/Drivers/USB/Core/../../../Common/Common.h **** 				 */
 207:../../protocol/lufa/LUFA-120730/LUFA/Drivers/USB/Core/../../../Common/Common.h **** 				#define STRINGIFY_EXPANDED(x)   STRINGIFY(x)
 208:../../protocol/lufa/LUFA-120730/LUFA/Drivers/USB/Core/../../../Common/Common.h **** 			#endif
 209:../../protocol/lufa/LUFA-120730/LUFA/Drivers/USB/Core/../../../Common/Common.h **** 
 210:../../protocol/lufa/LUFA-120730/LUFA/Drivers/USB/Core/../../../Common/Common.h **** 			#if !defined(ISR) || defined(__DOXYGEN__)
 211:../../protocol/lufa/LUFA-120730/LUFA/Drivers/USB/Core/../../../Common/Common.h **** 				/** Macro for the definition of interrupt service routines, so that the compiler can insert the
 212:../../protocol/lufa/LUFA-120730/LUFA/Drivers/USB/Core/../../../Common/Common.h **** 				 *  prologue and epilogue code to properly manage the interrupt routine without affecting the m
 213:../../protocol/lufa/LUFA-120730/LUFA/Drivers/USB/Core/../../../Common/Common.h **** 				 *  state with unintentional side-effects.
 214:../../protocol/lufa/LUFA-120730/LUFA/Drivers/USB/Core/../../../Common/Common.h **** 				 *
 215:../../protocol/lufa/LUFA-120730/LUFA/Drivers/USB/Core/../../../Common/Common.h **** 				 *  Interrupt handlers written using this macro may still need to be registered with the microc
 216:../../protocol/lufa/LUFA-120730/LUFA/Drivers/USB/Core/../../../Common/Common.h **** 				 *  Interrupt Controller (if present) before they will properly handle incoming interrupt event
 217:../../protocol/lufa/LUFA-120730/LUFA/Drivers/USB/Core/../../../Common/Common.h **** 				 *
 218:../../protocol/lufa/LUFA-120730/LUFA/Drivers/USB/Core/../../../Common/Common.h **** 				 *  \note This macro is only supplied on some architectures, where the standard library does no
 219:../../protocol/lufa/LUFA-120730/LUFA/Drivers/USB/Core/../../../Common/Common.h **** 				 *        definition. If an existing definition exists, the alternative definition here will be
 220:../../protocol/lufa/LUFA-120730/LUFA/Drivers/USB/Core/../../../Common/Common.h **** 				 *
 221:../../protocol/lufa/LUFA-120730/LUFA/Drivers/USB/Core/../../../Common/Common.h **** 				 *  \ingroup Group_GlobalInt
 222:../../protocol/lufa/LUFA-120730/LUFA/Drivers/USB/Core/../../../Common/Common.h **** 				 *
 223:../../protocol/lufa/LUFA-120730/LUFA/Drivers/USB/Core/../../../Common/Common.h **** 				 *  \param[in] Name  Unique name of the interrupt service routine.
 224:../../protocol/lufa/LUFA-120730/LUFA/Drivers/USB/Core/../../../Common/Common.h **** 				 */
 225:../../protocol/lufa/LUFA-120730/LUFA/Drivers/USB/Core/../../../Common/Common.h **** 				#define ISR(Name, ...)          void Name (void) __attribute__((__interrupt__)) __VA_ARGS__; vo
 226:../../protocol/lufa/LUFA-120730/LUFA/Drivers/USB/Core/../../../Common/Common.h **** 			#endif
 227:../../protocol/lufa/LUFA-120730/LUFA/Drivers/USB/Core/../../../Common/Common.h **** 
 228:../../protocol/lufa/LUFA-120730/LUFA/Drivers/USB/Core/../../../Common/Common.h **** 		/* Inline Functions: */
 229:../../protocol/lufa/LUFA-120730/LUFA/Drivers/USB/Core/../../../Common/Common.h **** 			/** Function to reverse the individual bits in a byte - i.e. bit 7 is moved to bit 0, bit 6 to b
 230:../../protocol/lufa/LUFA-120730/LUFA/Drivers/USB/Core/../../../Common/Common.h **** 			 *  etc.
 231:../../protocol/lufa/LUFA-120730/LUFA/Drivers/USB/Core/../../../Common/Common.h **** 			 *
 232:../../protocol/lufa/LUFA-120730/LUFA/Drivers/USB/Core/../../../Common/Common.h **** 			 *  \param[in] Byte  Byte of data whose bits are to be reversed.
 233:../../protocol/lufa/LUFA-120730/LUFA/Drivers/USB/Core/../../../Common/Common.h **** 			 *
 234:../../protocol/lufa/LUFA-120730/LUFA/Drivers/USB/Core/../../../Common/Common.h **** 			 *  \return Input data with the individual bits reversed (mirrored).
 235:../../protocol/lufa/LUFA-120730/LUFA/Drivers/USB/Core/../../../Common/Common.h **** 			 */
 236:../../protocol/lufa/LUFA-120730/LUFA/Drivers/USB/Core/../../../Common/Common.h **** 			static inline uint8_t BitReverse(uint8_t Byte) ATTR_WARN_UNUSED_RESULT ATTR_CONST;
 237:../../protocol/lufa/LUFA-120730/LUFA/Drivers/USB/Core/../../../Common/Common.h **** 			static inline uint8_t BitReverse(uint8_t Byte)
 238:../../protocol/lufa/LUFA-120730/LUFA/Drivers/USB/Core/../../../Common/Common.h **** 			{
 239:../../protocol/lufa/LUFA-120730/LUFA/Drivers/USB/Core/../../../Common/Common.h **** 				Byte = (((Byte & 0xF0) >> 4) | ((Byte & 0x0F) << 4));
 240:../../protocol/lufa/LUFA-120730/LUFA/Drivers/USB/Core/../../../Common/Common.h **** 				Byte = (((Byte & 0xCC) >> 2) | ((Byte & 0x33) << 2));
 241:../../protocol/lufa/LUFA-120730/LUFA/Drivers/USB/Core/../../../Common/Common.h **** 				Byte = (((Byte & 0xAA) >> 1) | ((Byte & 0x55) << 1));
 242:../../protocol/lufa/LUFA-120730/LUFA/Drivers/USB/Core/../../../Common/Common.h **** 
 243:../../protocol/lufa/LUFA-120730/LUFA/Drivers/USB/Core/../../../Common/Common.h **** 				return Byte;
 244:../../protocol/lufa/LUFA-120730/LUFA/Drivers/USB/Core/../../../Common/Common.h **** 			}
 245:../../protocol/lufa/LUFA-120730/LUFA/Drivers/USB/Core/../../../Common/Common.h **** 
 246:../../protocol/lufa/LUFA-120730/LUFA/Drivers/USB/Core/../../../Common/Common.h **** 			/** Function to perform a blocking delay for a specified number of milliseconds. The actual dela
 247:../../protocol/lufa/LUFA-120730/LUFA/Drivers/USB/Core/../../../Common/Common.h **** 			 *  at a minimum the specified number of milliseconds, however due to loop overhead and internal
 248:../../protocol/lufa/LUFA-120730/LUFA/Drivers/USB/Core/../../../Common/Common.h **** 			 *  may be slightly higher.
 249:../../protocol/lufa/LUFA-120730/LUFA/Drivers/USB/Core/../../../Common/Common.h **** 			 *
 250:../../protocol/lufa/LUFA-120730/LUFA/Drivers/USB/Core/../../../Common/Common.h **** 			 *  \param[in] Milliseconds  Number of milliseconds to delay
 251:../../protocol/lufa/LUFA-120730/LUFA/Drivers/USB/Core/../../../Common/Common.h **** 			 */
 252:../../protocol/lufa/LUFA-120730/LUFA/Drivers/USB/Core/../../../Common/Common.h **** 			static inline void Delay_MS(uint16_t Milliseconds) ATTR_ALWAYS_INLINE;
 253:../../protocol/lufa/LUFA-120730/LUFA/Drivers/USB/Core/../../../Common/Common.h **** 			static inline void Delay_MS(uint16_t Milliseconds)
 254:../../protocol/lufa/LUFA-120730/LUFA/Drivers/USB/Core/../../../Common/Common.h **** 			{
 255:../../protocol/lufa/LUFA-120730/LUFA/Drivers/USB/Core/../../../Common/Common.h **** 				#if (ARCH == ARCH_AVR8)
 256:../../protocol/lufa/LUFA-120730/LUFA/Drivers/USB/Core/../../../Common/Common.h **** 				if (GCC_IS_COMPILE_CONST(Milliseconds))
 257:../../protocol/lufa/LUFA-120730/LUFA/Drivers/USB/Core/../../../Common/Common.h **** 				{
 258:../../protocol/lufa/LUFA-120730/LUFA/Drivers/USB/Core/../../../Common/Common.h **** 					_delay_ms(Milliseconds);
 259:../../protocol/lufa/LUFA-120730/LUFA/Drivers/USB/Core/../../../Common/Common.h **** 				}
 260:../../protocol/lufa/LUFA-120730/LUFA/Drivers/USB/Core/../../../Common/Common.h **** 				else
 261:../../protocol/lufa/LUFA-120730/LUFA/Drivers/USB/Core/../../../Common/Common.h **** 				{
 262:../../protocol/lufa/LUFA-120730/LUFA/Drivers/USB/Core/../../../Common/Common.h **** 					while (Milliseconds--)
 263:../../protocol/lufa/LUFA-120730/LUFA/Drivers/USB/Core/../../../Common/Common.h **** 					  _delay_ms(1);
 264:../../protocol/lufa/LUFA-120730/LUFA/Drivers/USB/Core/../../../Common/Common.h **** 				}
 265:../../protocol/lufa/LUFA-120730/LUFA/Drivers/USB/Core/../../../Common/Common.h **** 				#elif (ARCH == ARCH_UC3)
 266:../../protocol/lufa/LUFA-120730/LUFA/Drivers/USB/Core/../../../Common/Common.h **** 				while (Milliseconds--)
 267:../../protocol/lufa/LUFA-120730/LUFA/Drivers/USB/Core/../../../Common/Common.h **** 				{
 268:../../protocol/lufa/LUFA-120730/LUFA/Drivers/USB/Core/../../../Common/Common.h **** 					__builtin_mtsr(AVR32_COUNT, 0);
 269:../../protocol/lufa/LUFA-120730/LUFA/Drivers/USB/Core/../../../Common/Common.h **** 					while ((uint32_t)__builtin_mfsr(AVR32_COUNT) < (F_CPU / 1000));
 270:../../protocol/lufa/LUFA-120730/LUFA/Drivers/USB/Core/../../../Common/Common.h **** 				}
 271:../../protocol/lufa/LUFA-120730/LUFA/Drivers/USB/Core/../../../Common/Common.h **** 				#elif (ARCH == ARCH_XMEGA)
 272:../../protocol/lufa/LUFA-120730/LUFA/Drivers/USB/Core/../../../Common/Common.h **** 				if (GCC_IS_COMPILE_CONST(Milliseconds))
 273:../../protocol/lufa/LUFA-120730/LUFA/Drivers/USB/Core/../../../Common/Common.h **** 				{
 274:../../protocol/lufa/LUFA-120730/LUFA/Drivers/USB/Core/../../../Common/Common.h **** 					_delay_ms(Milliseconds);
 275:../../protocol/lufa/LUFA-120730/LUFA/Drivers/USB/Core/../../../Common/Common.h **** 				}
 276:../../protocol/lufa/LUFA-120730/LUFA/Drivers/USB/Core/../../../Common/Common.h **** 				else
 277:../../protocol/lufa/LUFA-120730/LUFA/Drivers/USB/Core/../../../Common/Common.h **** 				{
 278:../../protocol/lufa/LUFA-120730/LUFA/Drivers/USB/Core/../../../Common/Common.h **** 					while (Milliseconds--)
 279:../../protocol/lufa/LUFA-120730/LUFA/Drivers/USB/Core/../../../Common/Common.h **** 					  _delay_ms(1);
 280:../../protocol/lufa/LUFA-120730/LUFA/Drivers/USB/Core/../../../Common/Common.h **** 				}
 281:../../protocol/lufa/LUFA-120730/LUFA/Drivers/USB/Core/../../../Common/Common.h **** 				#endif
 282:../../protocol/lufa/LUFA-120730/LUFA/Drivers/USB/Core/../../../Common/Common.h **** 			}
 283:../../protocol/lufa/LUFA-120730/LUFA/Drivers/USB/Core/../../../Common/Common.h **** 
 284:../../protocol/lufa/LUFA-120730/LUFA/Drivers/USB/Core/../../../Common/Common.h **** 			/** Retrieves a mask which contains the current state of the global interrupts for the device. T
 285:../../protocol/lufa/LUFA-120730/LUFA/Drivers/USB/Core/../../../Common/Common.h **** 			 *  value can be stored before altering the global interrupt enable state, before restoring the
 286:../../protocol/lufa/LUFA-120730/LUFA/Drivers/USB/Core/../../../Common/Common.h **** 			 *  flag(s) back to their previous values after a critical section using \ref SetGlobalInterrupt
 287:../../protocol/lufa/LUFA-120730/LUFA/Drivers/USB/Core/../../../Common/Common.h **** 			 *
 288:../../protocol/lufa/LUFA-120730/LUFA/Drivers/USB/Core/../../../Common/Common.h **** 			 *  \ingroup Group_GlobalInt
 289:../../protocol/lufa/LUFA-120730/LUFA/Drivers/USB/Core/../../../Common/Common.h **** 			 *
 290:../../protocol/lufa/LUFA-120730/LUFA/Drivers/USB/Core/../../../Common/Common.h **** 			 *  \return  Mask containing the current Global Interrupt Enable Mask bit(s).
 291:../../protocol/lufa/LUFA-120730/LUFA/Drivers/USB/Core/../../../Common/Common.h **** 			 */
 292:../../protocol/lufa/LUFA-120730/LUFA/Drivers/USB/Core/../../../Common/Common.h **** 			static inline uint_reg_t GetGlobalInterruptMask(void) ATTR_ALWAYS_INLINE ATTR_WARN_UNUSED_RESULT
 293:../../protocol/lufa/LUFA-120730/LUFA/Drivers/USB/Core/../../../Common/Common.h **** 			static inline uint_reg_t GetGlobalInterruptMask(void)
 294:../../protocol/lufa/LUFA-120730/LUFA/Drivers/USB/Core/../../../Common/Common.h **** 			{
 295:../../protocol/lufa/LUFA-120730/LUFA/Drivers/USB/Core/../../../Common/Common.h **** 				GCC_MEMORY_BARRIER();
 329               		.loc 3 295 0
 296:../../protocol/lufa/LUFA-120730/LUFA/Drivers/USB/Core/../../../Common/Common.h **** 
 297:../../protocol/lufa/LUFA-120730/LUFA/Drivers/USB/Core/../../../Common/Common.h **** 				#if (ARCH == ARCH_AVR8)
 298:../../protocol/lufa/LUFA-120730/LUFA/Drivers/USB/Core/../../../Common/Common.h **** 				return SREG;
 330               		.loc 3 298 0
 331 0126 0FB7      		in r16,__SREG__
 332               	.LBE220:
 333               	.LBE219:
 334               	.LBB221:
 335               	.LBB222:
 299:../../protocol/lufa/LUFA-120730/LUFA/Drivers/USB/Core/../../../Common/Common.h **** 				#elif (ARCH == ARCH_UC3)
 300:../../protocol/lufa/LUFA-120730/LUFA/Drivers/USB/Core/../../../Common/Common.h **** 				return __builtin_mfsr(AVR32_SR);
 301:../../protocol/lufa/LUFA-120730/LUFA/Drivers/USB/Core/../../../Common/Common.h **** 				#elif (ARCH == ARCH_XMEGA)
 302:../../protocol/lufa/LUFA-120730/LUFA/Drivers/USB/Core/../../../Common/Common.h **** 				return SREG;
 303:../../protocol/lufa/LUFA-120730/LUFA/Drivers/USB/Core/../../../Common/Common.h **** 				#endif
 304:../../protocol/lufa/LUFA-120730/LUFA/Drivers/USB/Core/../../../Common/Common.h **** 			}
 305:../../protocol/lufa/LUFA-120730/LUFA/Drivers/USB/Core/../../../Common/Common.h **** 
 306:../../protocol/lufa/LUFA-120730/LUFA/Drivers/USB/Core/../../../Common/Common.h **** 			/** Sets the global interrupt enable state of the microcontroller to the mask passed into the fu
 307:../../protocol/lufa/LUFA-120730/LUFA/Drivers/USB/Core/../../../Common/Common.h **** 			 *  This can be combined with \ref GetGlobalInterruptMask() to save and restore the Global Inter
 308:../../protocol/lufa/LUFA-120730/LUFA/Drivers/USB/Core/../../../Common/Common.h **** 			 *  Mask bit(s) of the device after a critical section has completed.
 309:../../protocol/lufa/LUFA-120730/LUFA/Drivers/USB/Core/../../../Common/Common.h **** 			 *
 310:../../protocol/lufa/LUFA-120730/LUFA/Drivers/USB/Core/../../../Common/Common.h **** 			 *  \ingroup Group_GlobalInt
 311:../../protocol/lufa/LUFA-120730/LUFA/Drivers/USB/Core/../../../Common/Common.h **** 			 *
 312:../../protocol/lufa/LUFA-120730/LUFA/Drivers/USB/Core/../../../Common/Common.h **** 			 *  \param[in] GlobalIntState  Global Interrupt Enable Mask value to use
 313:../../protocol/lufa/LUFA-120730/LUFA/Drivers/USB/Core/../../../Common/Common.h **** 			 */
 314:../../protocol/lufa/LUFA-120730/LUFA/Drivers/USB/Core/../../../Common/Common.h **** 			static inline void SetGlobalInterruptMask(const uint_reg_t GlobalIntState) ATTR_ALWAYS_INLINE;
 315:../../protocol/lufa/LUFA-120730/LUFA/Drivers/USB/Core/../../../Common/Common.h **** 			static inline void SetGlobalInterruptMask(const uint_reg_t GlobalIntState)
 316:../../protocol/lufa/LUFA-120730/LUFA/Drivers/USB/Core/../../../Common/Common.h **** 			{
 317:../../protocol/lufa/LUFA-120730/LUFA/Drivers/USB/Core/../../../Common/Common.h **** 				GCC_MEMORY_BARRIER();
 318:../../protocol/lufa/LUFA-120730/LUFA/Drivers/USB/Core/../../../Common/Common.h **** 
 319:../../protocol/lufa/LUFA-120730/LUFA/Drivers/USB/Core/../../../Common/Common.h **** 				#if (ARCH == ARCH_AVR8)
 320:../../protocol/lufa/LUFA-120730/LUFA/Drivers/USB/Core/../../../Common/Common.h **** 				SREG = GlobalIntState;
 321:../../protocol/lufa/LUFA-120730/LUFA/Drivers/USB/Core/../../../Common/Common.h **** 				#elif (ARCH == ARCH_UC3)
 322:../../protocol/lufa/LUFA-120730/LUFA/Drivers/USB/Core/../../../Common/Common.h **** 				if (GlobalIntState & AVR32_SR_GM)
 323:../../protocol/lufa/LUFA-120730/LUFA/Drivers/USB/Core/../../../Common/Common.h **** 				  __builtin_ssrf(AVR32_SR_GM_OFFSET);
 324:../../protocol/lufa/LUFA-120730/LUFA/Drivers/USB/Core/../../../Common/Common.h **** 				else
 325:../../protocol/lufa/LUFA-120730/LUFA/Drivers/USB/Core/../../../Common/Common.h **** 				  __builtin_csrf(AVR32_SR_GM_OFFSET);
 326:../../protocol/lufa/LUFA-120730/LUFA/Drivers/USB/Core/../../../Common/Common.h **** 				#elif (ARCH == ARCH_XMEGA)
 327:../../protocol/lufa/LUFA-120730/LUFA/Drivers/USB/Core/../../../Common/Common.h **** 				SREG = GlobalIntState;
 328:../../protocol/lufa/LUFA-120730/LUFA/Drivers/USB/Core/../../../Common/Common.h **** 				#endif
 329:../../protocol/lufa/LUFA-120730/LUFA/Drivers/USB/Core/../../../Common/Common.h **** 
 330:../../protocol/lufa/LUFA-120730/LUFA/Drivers/USB/Core/../../../Common/Common.h **** 				GCC_MEMORY_BARRIER();
 331:../../protocol/lufa/LUFA-120730/LUFA/Drivers/USB/Core/../../../Common/Common.h **** 			}
 332:../../protocol/lufa/LUFA-120730/LUFA/Drivers/USB/Core/../../../Common/Common.h **** 
 333:../../protocol/lufa/LUFA-120730/LUFA/Drivers/USB/Core/../../../Common/Common.h **** 			/** Enables global interrupt handling for the device, allowing interrupts to be handled.
 334:../../protocol/lufa/LUFA-120730/LUFA/Drivers/USB/Core/../../../Common/Common.h **** 			 *
 335:../../protocol/lufa/LUFA-120730/LUFA/Drivers/USB/Core/../../../Common/Common.h **** 			 *  \ingroup Group_GlobalInt
 336:../../protocol/lufa/LUFA-120730/LUFA/Drivers/USB/Core/../../../Common/Common.h **** 			 */
 337:../../protocol/lufa/LUFA-120730/LUFA/Drivers/USB/Core/../../../Common/Common.h **** 			static inline void GlobalInterruptEnable(void) ATTR_ALWAYS_INLINE;
 338:../../protocol/lufa/LUFA-120730/LUFA/Drivers/USB/Core/../../../Common/Common.h **** 			static inline void GlobalInterruptEnable(void)
 339:../../protocol/lufa/LUFA-120730/LUFA/Drivers/USB/Core/../../../Common/Common.h **** 			{
 340:../../protocol/lufa/LUFA-120730/LUFA/Drivers/USB/Core/../../../Common/Common.h **** 				GCC_MEMORY_BARRIER();
 341:../../protocol/lufa/LUFA-120730/LUFA/Drivers/USB/Core/../../../Common/Common.h **** 
 342:../../protocol/lufa/LUFA-120730/LUFA/Drivers/USB/Core/../../../Common/Common.h **** 				#if (ARCH == ARCH_AVR8)
 343:../../protocol/lufa/LUFA-120730/LUFA/Drivers/USB/Core/../../../Common/Common.h **** 				sei();
 344:../../protocol/lufa/LUFA-120730/LUFA/Drivers/USB/Core/../../../Common/Common.h **** 				#elif (ARCH == ARCH_UC3)
 345:../../protocol/lufa/LUFA-120730/LUFA/Drivers/USB/Core/../../../Common/Common.h **** 				__builtin_csrf(AVR32_SR_GM_OFFSET);
 346:../../protocol/lufa/LUFA-120730/LUFA/Drivers/USB/Core/../../../Common/Common.h **** 				#elif (ARCH == ARCH_XMEGA)
 347:../../protocol/lufa/LUFA-120730/LUFA/Drivers/USB/Core/../../../Common/Common.h **** 				sei();
 348:../../protocol/lufa/LUFA-120730/LUFA/Drivers/USB/Core/../../../Common/Common.h **** 				#endif
 349:../../protocol/lufa/LUFA-120730/LUFA/Drivers/USB/Core/../../../Common/Common.h **** 
 350:../../protocol/lufa/LUFA-120730/LUFA/Drivers/USB/Core/../../../Common/Common.h **** 				GCC_MEMORY_BARRIER();
 351:../../protocol/lufa/LUFA-120730/LUFA/Drivers/USB/Core/../../../Common/Common.h **** 			}
 352:../../protocol/lufa/LUFA-120730/LUFA/Drivers/USB/Core/../../../Common/Common.h **** 
 353:../../protocol/lufa/LUFA-120730/LUFA/Drivers/USB/Core/../../../Common/Common.h **** 			/** Disabled global interrupt handling for the device, preventing interrupts from being handled.
 354:../../protocol/lufa/LUFA-120730/LUFA/Drivers/USB/Core/../../../Common/Common.h **** 			 *
 355:../../protocol/lufa/LUFA-120730/LUFA/Drivers/USB/Core/../../../Common/Common.h **** 			 *  \ingroup Group_GlobalInt
 356:../../protocol/lufa/LUFA-120730/LUFA/Drivers/USB/Core/../../../Common/Common.h **** 			 */
 357:../../protocol/lufa/LUFA-120730/LUFA/Drivers/USB/Core/../../../Common/Common.h **** 			static inline void GlobalInterruptDisable(void) ATTR_ALWAYS_INLINE;
 358:../../protocol/lufa/LUFA-120730/LUFA/Drivers/USB/Core/../../../Common/Common.h **** 			static inline void GlobalInterruptDisable(void)
 359:../../protocol/lufa/LUFA-120730/LUFA/Drivers/USB/Core/../../../Common/Common.h **** 			{
 360:../../protocol/lufa/LUFA-120730/LUFA/Drivers/USB/Core/../../../Common/Common.h **** 				GCC_MEMORY_BARRIER();
 336               		.loc 3 360 0
 361:../../protocol/lufa/LUFA-120730/LUFA/Drivers/USB/Core/../../../Common/Common.h **** 
 362:../../protocol/lufa/LUFA-120730/LUFA/Drivers/USB/Core/../../../Common/Common.h **** 				#if (ARCH == ARCH_AVR8)
 363:../../protocol/lufa/LUFA-120730/LUFA/Drivers/USB/Core/../../../Common/Common.h **** 				cli();
 337               		.loc 3 363 0
 338               	/* #APP */
 339               	 ;  363 "../../protocol/lufa/LUFA-120730/LUFA/Drivers/USB/Core/../../../Common/Common.h" 1
 340 0128 F894      		cli
 341               	 ;  0 "" 2
 364:../../protocol/lufa/LUFA-120730/LUFA/Drivers/USB/Core/../../../Common/Common.h **** 				#elif (ARCH == ARCH_UC3)
 365:../../protocol/lufa/LUFA-120730/LUFA/Drivers/USB/Core/../../../Common/Common.h **** 				__builtin_ssrf(AVR32_SR_GM_OFFSET);
 366:../../protocol/lufa/LUFA-120730/LUFA/Drivers/USB/Core/../../../Common/Common.h **** 				#elif (ARCH == ARCH_XMEGA)
 367:../../protocol/lufa/LUFA-120730/LUFA/Drivers/USB/Core/../../../Common/Common.h **** 				cli();
 368:../../protocol/lufa/LUFA-120730/LUFA/Drivers/USB/Core/../../../Common/Common.h **** 				#endif
 369:../../protocol/lufa/LUFA-120730/LUFA/Drivers/USB/Core/../../../Common/Common.h **** 
 370:../../protocol/lufa/LUFA-120730/LUFA/Drivers/USB/Core/../../../Common/Common.h **** 				GCC_MEMORY_BARRIER();
 342               		.loc 3 370 0
 343               	/* #NOAPP */
 344               	.LBE222:
 345               	.LBE221:
 346               	.LBB223:
 347               	.LBB224:
 444:../../protocol/lufa/LUFA-120730/LUFA/Drivers/USB/Core/AVR8/../AVR8/Endpoint_AVR8.h **** 				UEINTX &= ~(1 << RXSTPI);
 348               		.loc 2 444 0
 349 012a 8091 E800 		lds r24,232
 350 012e 877F      		andi r24,lo8(-9)
 351 0130 8093 E800 		sts 232,r24
 352               	.LBE224:
 353               	.LBE223:
 130:../../protocol/lufa/LUFA-120730/LUFA/Drivers/USB/Core/DeviceStandardReq.c **** 	Endpoint_ClearStatusStage();
 354               		.loc 1 130 0
 355 0134 0E94 0000 		call Endpoint_ClearStatusStage
 356               	.LVL24:
 357               	.L23:
 358               	.LBB225:
 359               	.LBB226:
 407:../../protocol/lufa/LUFA-120730/LUFA/Drivers/USB/Core/AVR8/../AVR8/Endpoint_AVR8.h **** 				return ((UEINTX & (1 << TXINI)) ? true : false);
 360               		.loc 2 407 0
 361 0138 8091 E800 		lds r24,232
 362               	.LBE226:
 363               	.LBE225:
 132:../../protocol/lufa/LUFA-120730/LUFA/Drivers/USB/Core/DeviceStandardReq.c **** 	while (!(Endpoint_IsINReady()));
 364               		.loc 1 132 0
 365 013c 80FF      		sbrs r24,0
 366 013e 00C0      		rjmp .L23
 367               	.LVL25:
 368               	.LBB227:
 369               	.LBB228:
 370               		.file 4 "../../protocol/lufa/LUFA-120730/LUFA/Drivers/USB/Core/AVR8/../AVR8/Device_AVR8.h"
   1:../../protocol/lufa/LUFA-120730/LUFA/Drivers/USB/Core/AVR8/../AVR8/Device_AVR8.h **** /*
   2:../../protocol/lufa/LUFA-120730/LUFA/Drivers/USB/Core/AVR8/../AVR8/Device_AVR8.h ****              LUFA Library
   3:../../protocol/lufa/LUFA-120730/LUFA/Drivers/USB/Core/AVR8/../AVR8/Device_AVR8.h ****      Copyright (C) Dean Camera, 2012.
   4:../../protocol/lufa/LUFA-120730/LUFA/Drivers/USB/Core/AVR8/../AVR8/Device_AVR8.h **** 
   5:../../protocol/lufa/LUFA-120730/LUFA/Drivers/USB/Core/AVR8/../AVR8/Device_AVR8.h ****   dean [at] fourwalledcubicle [dot] com
   6:../../protocol/lufa/LUFA-120730/LUFA/Drivers/USB/Core/AVR8/../AVR8/Device_AVR8.h ****            www.lufa-lib.org
   7:../../protocol/lufa/LUFA-120730/LUFA/Drivers/USB/Core/AVR8/../AVR8/Device_AVR8.h **** */
   8:../../protocol/lufa/LUFA-120730/LUFA/Drivers/USB/Core/AVR8/../AVR8/Device_AVR8.h **** 
   9:../../protocol/lufa/LUFA-120730/LUFA/Drivers/USB/Core/AVR8/../AVR8/Device_AVR8.h **** /*
  10:../../protocol/lufa/LUFA-120730/LUFA/Drivers/USB/Core/AVR8/../AVR8/Device_AVR8.h ****   Copyright 2012  Dean Camera (dean [at] fourwalledcubicle [dot] com)
  11:../../protocol/lufa/LUFA-120730/LUFA/Drivers/USB/Core/AVR8/../AVR8/Device_AVR8.h **** 
  12:../../protocol/lufa/LUFA-120730/LUFA/Drivers/USB/Core/AVR8/../AVR8/Device_AVR8.h ****   Permission to use, copy, modify, distribute, and sell this
  13:../../protocol/lufa/LUFA-120730/LUFA/Drivers/USB/Core/AVR8/../AVR8/Device_AVR8.h ****   software and its documentation for any purpose is hereby granted
  14:../../protocol/lufa/LUFA-120730/LUFA/Drivers/USB/Core/AVR8/../AVR8/Device_AVR8.h ****   without fee, provided that the above copyright notice appear in
  15:../../protocol/lufa/LUFA-120730/LUFA/Drivers/USB/Core/AVR8/../AVR8/Device_AVR8.h ****   all copies and that both that the copyright notice and this
  16:../../protocol/lufa/LUFA-120730/LUFA/Drivers/USB/Core/AVR8/../AVR8/Device_AVR8.h ****   permission notice and warranty disclaimer appear in supporting
  17:../../protocol/lufa/LUFA-120730/LUFA/Drivers/USB/Core/AVR8/../AVR8/Device_AVR8.h ****   documentation, and that the name of the author not be used in
  18:../../protocol/lufa/LUFA-120730/LUFA/Drivers/USB/Core/AVR8/../AVR8/Device_AVR8.h ****   advertising or publicity pertaining to distribution of the
  19:../../protocol/lufa/LUFA-120730/LUFA/Drivers/USB/Core/AVR8/../AVR8/Device_AVR8.h ****   software without specific, written prior permission.
  20:../../protocol/lufa/LUFA-120730/LUFA/Drivers/USB/Core/AVR8/../AVR8/Device_AVR8.h **** 
  21:../../protocol/lufa/LUFA-120730/LUFA/Drivers/USB/Core/AVR8/../AVR8/Device_AVR8.h ****   The author disclaim all warranties with regard to this
  22:../../protocol/lufa/LUFA-120730/LUFA/Drivers/USB/Core/AVR8/../AVR8/Device_AVR8.h ****   software, including all implied warranties of merchantability
  23:../../protocol/lufa/LUFA-120730/LUFA/Drivers/USB/Core/AVR8/../AVR8/Device_AVR8.h ****   and fitness.  In no event shall the author be liable for any
  24:../../protocol/lufa/LUFA-120730/LUFA/Drivers/USB/Core/AVR8/../AVR8/Device_AVR8.h ****   special, indirect or consequential damages or any damages
  25:../../protocol/lufa/LUFA-120730/LUFA/Drivers/USB/Core/AVR8/../AVR8/Device_AVR8.h ****   whatsoever resulting from loss of use, data or profits, whether
  26:../../protocol/lufa/LUFA-120730/LUFA/Drivers/USB/Core/AVR8/../AVR8/Device_AVR8.h ****   in an action of contract, negligence or other tortious action,
  27:../../protocol/lufa/LUFA-120730/LUFA/Drivers/USB/Core/AVR8/../AVR8/Device_AVR8.h ****   arising out of or in connection with the use or performance of
  28:../../protocol/lufa/LUFA-120730/LUFA/Drivers/USB/Core/AVR8/../AVR8/Device_AVR8.h ****   this software.
  29:../../protocol/lufa/LUFA-120730/LUFA/Drivers/USB/Core/AVR8/../AVR8/Device_AVR8.h **** */
  30:../../protocol/lufa/LUFA-120730/LUFA/Drivers/USB/Core/AVR8/../AVR8/Device_AVR8.h **** 
  31:../../protocol/lufa/LUFA-120730/LUFA/Drivers/USB/Core/AVR8/../AVR8/Device_AVR8.h **** /** \file
  32:../../protocol/lufa/LUFA-120730/LUFA/Drivers/USB/Core/AVR8/../AVR8/Device_AVR8.h ****  *  \brief USB Device definitions for the AVR8 microcontrollers.
  33:../../protocol/lufa/LUFA-120730/LUFA/Drivers/USB/Core/AVR8/../AVR8/Device_AVR8.h ****  *  \copydetails Group_Device_AVR8
  34:../../protocol/lufa/LUFA-120730/LUFA/Drivers/USB/Core/AVR8/../AVR8/Device_AVR8.h ****  *
  35:../../protocol/lufa/LUFA-120730/LUFA/Drivers/USB/Core/AVR8/../AVR8/Device_AVR8.h ****  *  \note This file should not be included directly. It is automatically included as needed by the 
  36:../../protocol/lufa/LUFA-120730/LUFA/Drivers/USB/Core/AVR8/../AVR8/Device_AVR8.h ****  *        dispatch header located in LUFA/Drivers/USB/USB.h.
  37:../../protocol/lufa/LUFA-120730/LUFA/Drivers/USB/Core/AVR8/../AVR8/Device_AVR8.h ****  */
  38:../../protocol/lufa/LUFA-120730/LUFA/Drivers/USB/Core/AVR8/../AVR8/Device_AVR8.h **** 
  39:../../protocol/lufa/LUFA-120730/LUFA/Drivers/USB/Core/AVR8/../AVR8/Device_AVR8.h **** /** \ingroup Group_Device
  40:../../protocol/lufa/LUFA-120730/LUFA/Drivers/USB/Core/AVR8/../AVR8/Device_AVR8.h ****  *  \defgroup Group_Device_AVR8 Device Management (AVR8)
  41:../../protocol/lufa/LUFA-120730/LUFA/Drivers/USB/Core/AVR8/../AVR8/Device_AVR8.h ****  *  \brief USB Device definitions for the AVR8 microcontrollers.
  42:../../protocol/lufa/LUFA-120730/LUFA/Drivers/USB/Core/AVR8/../AVR8/Device_AVR8.h ****  *
  43:../../protocol/lufa/LUFA-120730/LUFA/Drivers/USB/Core/AVR8/../AVR8/Device_AVR8.h ****  *  Architecture specific USB Device definitions for the Atmel 8-bit AVR microcontrollers.
  44:../../protocol/lufa/LUFA-120730/LUFA/Drivers/USB/Core/AVR8/../AVR8/Device_AVR8.h ****  *
  45:../../protocol/lufa/LUFA-120730/LUFA/Drivers/USB/Core/AVR8/../AVR8/Device_AVR8.h ****  *  @{
  46:../../protocol/lufa/LUFA-120730/LUFA/Drivers/USB/Core/AVR8/../AVR8/Device_AVR8.h ****  */
  47:../../protocol/lufa/LUFA-120730/LUFA/Drivers/USB/Core/AVR8/../AVR8/Device_AVR8.h **** 
  48:../../protocol/lufa/LUFA-120730/LUFA/Drivers/USB/Core/AVR8/../AVR8/Device_AVR8.h **** #ifndef __USBDEVICE_AVR8_H__
  49:../../protocol/lufa/LUFA-120730/LUFA/Drivers/USB/Core/AVR8/../AVR8/Device_AVR8.h **** #define __USBDEVICE_AVR8_H__
  50:../../protocol/lufa/LUFA-120730/LUFA/Drivers/USB/Core/AVR8/../AVR8/Device_AVR8.h **** 
  51:../../protocol/lufa/LUFA-120730/LUFA/Drivers/USB/Core/AVR8/../AVR8/Device_AVR8.h **** 	/* Includes: */
  52:../../protocol/lufa/LUFA-120730/LUFA/Drivers/USB/Core/AVR8/../AVR8/Device_AVR8.h **** 		#include "../../../../Common/Common.h"
  53:../../protocol/lufa/LUFA-120730/LUFA/Drivers/USB/Core/AVR8/../AVR8/Device_AVR8.h **** 		#include "../USBController.h"
  54:../../protocol/lufa/LUFA-120730/LUFA/Drivers/USB/Core/AVR8/../AVR8/Device_AVR8.h **** 		#include "../StdDescriptors.h"
  55:../../protocol/lufa/LUFA-120730/LUFA/Drivers/USB/Core/AVR8/../AVR8/Device_AVR8.h **** 		#include "../USBInterrupt.h"
  56:../../protocol/lufa/LUFA-120730/LUFA/Drivers/USB/Core/AVR8/../AVR8/Device_AVR8.h **** 		#include "../Endpoint.h"
  57:../../protocol/lufa/LUFA-120730/LUFA/Drivers/USB/Core/AVR8/../AVR8/Device_AVR8.h **** 
  58:../../protocol/lufa/LUFA-120730/LUFA/Drivers/USB/Core/AVR8/../AVR8/Device_AVR8.h **** 	/* Enable C linkage for C++ Compilers: */
  59:../../protocol/lufa/LUFA-120730/LUFA/Drivers/USB/Core/AVR8/../AVR8/Device_AVR8.h **** 		#if defined(__cplusplus)
  60:../../protocol/lufa/LUFA-120730/LUFA/Drivers/USB/Core/AVR8/../AVR8/Device_AVR8.h **** 			extern "C" {
  61:../../protocol/lufa/LUFA-120730/LUFA/Drivers/USB/Core/AVR8/../AVR8/Device_AVR8.h **** 		#endif
  62:../../protocol/lufa/LUFA-120730/LUFA/Drivers/USB/Core/AVR8/../AVR8/Device_AVR8.h **** 
  63:../../protocol/lufa/LUFA-120730/LUFA/Drivers/USB/Core/AVR8/../AVR8/Device_AVR8.h **** 	/* Preprocessor Checks: */
  64:../../protocol/lufa/LUFA-120730/LUFA/Drivers/USB/Core/AVR8/../AVR8/Device_AVR8.h **** 		#if !defined(__INCLUDE_FROM_USB_DRIVER)
  65:../../protocol/lufa/LUFA-120730/LUFA/Drivers/USB/Core/AVR8/../AVR8/Device_AVR8.h **** 			#error Do not include this file directly. Include LUFA/Drivers/USB/USB.h instead.
  66:../../protocol/lufa/LUFA-120730/LUFA/Drivers/USB/Core/AVR8/../AVR8/Device_AVR8.h **** 		#endif
  67:../../protocol/lufa/LUFA-120730/LUFA/Drivers/USB/Core/AVR8/../AVR8/Device_AVR8.h **** 
  68:../../protocol/lufa/LUFA-120730/LUFA/Drivers/USB/Core/AVR8/../AVR8/Device_AVR8.h **** 		#if (defined(USE_RAM_DESCRIPTORS) && defined(USE_EEPROM_DESCRIPTORS))
  69:../../protocol/lufa/LUFA-120730/LUFA/Drivers/USB/Core/AVR8/../AVR8/Device_AVR8.h **** 			#error USE_RAM_DESCRIPTORS and USE_EEPROM_DESCRIPTORS are mutually exclusive.
  70:../../protocol/lufa/LUFA-120730/LUFA/Drivers/USB/Core/AVR8/../AVR8/Device_AVR8.h **** 		#endif
  71:../../protocol/lufa/LUFA-120730/LUFA/Drivers/USB/Core/AVR8/../AVR8/Device_AVR8.h **** 
  72:../../protocol/lufa/LUFA-120730/LUFA/Drivers/USB/Core/AVR8/../AVR8/Device_AVR8.h **** 		#if (defined(USE_FLASH_DESCRIPTORS) && defined(USE_EEPROM_DESCRIPTORS))
  73:../../protocol/lufa/LUFA-120730/LUFA/Drivers/USB/Core/AVR8/../AVR8/Device_AVR8.h **** 			#error USE_FLASH_DESCRIPTORS and USE_EEPROM_DESCRIPTORS are mutually exclusive.
  74:../../protocol/lufa/LUFA-120730/LUFA/Drivers/USB/Core/AVR8/../AVR8/Device_AVR8.h **** 		#endif
  75:../../protocol/lufa/LUFA-120730/LUFA/Drivers/USB/Core/AVR8/../AVR8/Device_AVR8.h **** 
  76:../../protocol/lufa/LUFA-120730/LUFA/Drivers/USB/Core/AVR8/../AVR8/Device_AVR8.h **** 		#if (defined(USE_FLASH_DESCRIPTORS) && defined(USE_RAM_DESCRIPTORS))
  77:../../protocol/lufa/LUFA-120730/LUFA/Drivers/USB/Core/AVR8/../AVR8/Device_AVR8.h **** 			#error USE_FLASH_DESCRIPTORS and USE_RAM_DESCRIPTORS are mutually exclusive.
  78:../../protocol/lufa/LUFA-120730/LUFA/Drivers/USB/Core/AVR8/../AVR8/Device_AVR8.h **** 		#endif
  79:../../protocol/lufa/LUFA-120730/LUFA/Drivers/USB/Core/AVR8/../AVR8/Device_AVR8.h **** 
  80:../../protocol/lufa/LUFA-120730/LUFA/Drivers/USB/Core/AVR8/../AVR8/Device_AVR8.h **** 	/* Public Interface - May be used in end-application: */
  81:../../protocol/lufa/LUFA-120730/LUFA/Drivers/USB/Core/AVR8/../AVR8/Device_AVR8.h **** 		/* Macros: */
  82:../../protocol/lufa/LUFA-120730/LUFA/Drivers/USB/Core/AVR8/../AVR8/Device_AVR8.h **** 			/** \name USB Device Mode Option Masks */
  83:../../protocol/lufa/LUFA-120730/LUFA/Drivers/USB/Core/AVR8/../AVR8/Device_AVR8.h **** 			//@{
  84:../../protocol/lufa/LUFA-120730/LUFA/Drivers/USB/Core/AVR8/../AVR8/Device_AVR8.h **** 			#if defined(USB_SERIES_4_AVR) || defined(USB_SERIES_6_AVR) || defined(USB_SERIES_7_AVR) || defin
  85:../../protocol/lufa/LUFA-120730/LUFA/Drivers/USB/Core/AVR8/../AVR8/Device_AVR8.h **** 				/** Mask for the Options parameter of the \ref USB_Init() function. This indicates that the
  86:../../protocol/lufa/LUFA-120730/LUFA/Drivers/USB/Core/AVR8/../AVR8/Device_AVR8.h **** 				 *  USB interface should be initialized in low speed (1.5Mb/s) mode.
  87:../../protocol/lufa/LUFA-120730/LUFA/Drivers/USB/Core/AVR8/../AVR8/Device_AVR8.h **** 				 *
  88:../../protocol/lufa/LUFA-120730/LUFA/Drivers/USB/Core/AVR8/../AVR8/Device_AVR8.h **** 				 *  \note Low Speed mode is not available on all USB AVR models.
  89:../../protocol/lufa/LUFA-120730/LUFA/Drivers/USB/Core/AVR8/../AVR8/Device_AVR8.h **** 				 *        \n
  90:../../protocol/lufa/LUFA-120730/LUFA/Drivers/USB/Core/AVR8/../AVR8/Device_AVR8.h **** 				 *
  91:../../protocol/lufa/LUFA-120730/LUFA/Drivers/USB/Core/AVR8/../AVR8/Device_AVR8.h **** 				 *  \note Restrictions apply on the number, size and type of endpoints which can be used
  92:../../protocol/lufa/LUFA-120730/LUFA/Drivers/USB/Core/AVR8/../AVR8/Device_AVR8.h **** 				 *        when running in low speed mode - please refer to the USB 2.0 specification.
  93:../../protocol/lufa/LUFA-120730/LUFA/Drivers/USB/Core/AVR8/../AVR8/Device_AVR8.h **** 				 */
  94:../../protocol/lufa/LUFA-120730/LUFA/Drivers/USB/Core/AVR8/../AVR8/Device_AVR8.h **** 				#define USB_DEVICE_OPT_LOWSPEED            (1 << 0)
  95:../../protocol/lufa/LUFA-120730/LUFA/Drivers/USB/Core/AVR8/../AVR8/Device_AVR8.h **** 			#endif
  96:../../protocol/lufa/LUFA-120730/LUFA/Drivers/USB/Core/AVR8/../AVR8/Device_AVR8.h **** 
  97:../../protocol/lufa/LUFA-120730/LUFA/Drivers/USB/Core/AVR8/../AVR8/Device_AVR8.h **** 			/** Mask for the Options parameter of the \ref USB_Init() function. This indicates that the
  98:../../protocol/lufa/LUFA-120730/LUFA/Drivers/USB/Core/AVR8/../AVR8/Device_AVR8.h **** 			 *  USB interface should be initialized in full speed (12Mb/s) mode.
  99:../../protocol/lufa/LUFA-120730/LUFA/Drivers/USB/Core/AVR8/../AVR8/Device_AVR8.h **** 			 */
 100:../../protocol/lufa/LUFA-120730/LUFA/Drivers/USB/Core/AVR8/../AVR8/Device_AVR8.h **** 			#define USB_DEVICE_OPT_FULLSPEED               (0 << 0)
 101:../../protocol/lufa/LUFA-120730/LUFA/Drivers/USB/Core/AVR8/../AVR8/Device_AVR8.h **** 			//@}
 102:../../protocol/lufa/LUFA-120730/LUFA/Drivers/USB/Core/AVR8/../AVR8/Device_AVR8.h **** 
 103:../../protocol/lufa/LUFA-120730/LUFA/Drivers/USB/Core/AVR8/../AVR8/Device_AVR8.h **** 			#if (!defined(NO_INTERNAL_SERIAL) && \
 104:../../protocol/lufa/LUFA-120730/LUFA/Drivers/USB/Core/AVR8/../AVR8/Device_AVR8.h **** 			     (defined(USB_SERIES_7_AVR) || defined(USB_SERIES_6_AVR) || \
 105:../../protocol/lufa/LUFA-120730/LUFA/Drivers/USB/Core/AVR8/../AVR8/Device_AVR8.h **** 			      defined(USB_SERIES_4_AVR) || defined(USB_SERIES_2_AVR) || \
 106:../../protocol/lufa/LUFA-120730/LUFA/Drivers/USB/Core/AVR8/../AVR8/Device_AVR8.h **** 				  defined(__DOXYGEN__)))
 107:../../protocol/lufa/LUFA-120730/LUFA/Drivers/USB/Core/AVR8/../AVR8/Device_AVR8.h **** 				/** String descriptor index for the device's unique serial number string descriptor within the 
 108:../../protocol/lufa/LUFA-120730/LUFA/Drivers/USB/Core/AVR8/../AVR8/Device_AVR8.h **** 				 *  This unique serial number is used by the host to associate resources to the device (such as
 109:../../protocol/lufa/LUFA-120730/LUFA/Drivers/USB/Core/AVR8/../AVR8/Device_AVR8.h **** 				 *  number allocations) to a device regardless of the port it is plugged in to on the host. Som
 110:../../protocol/lufa/LUFA-120730/LUFA/Drivers/USB/Core/AVR8/../AVR8/Device_AVR8.h **** 				 *  a unique serial number internally, and setting the device descriptors serial number string 
 111:../../protocol/lufa/LUFA-120730/LUFA/Drivers/USB/Core/AVR8/../AVR8/Device_AVR8.h **** 				 *  will cause it to use the internal serial number.
 112:../../protocol/lufa/LUFA-120730/LUFA/Drivers/USB/Core/AVR8/../AVR8/Device_AVR8.h **** 				 *
 113:../../protocol/lufa/LUFA-120730/LUFA/Drivers/USB/Core/AVR8/../AVR8/Device_AVR8.h **** 				 *  On unsupported devices, this will evaluate to \ref NO_DESCRIPTOR and so will force the host
 114:../../protocol/lufa/LUFA-120730/LUFA/Drivers/USB/Core/AVR8/../AVR8/Device_AVR8.h **** 				 *  number for the device.
 115:../../protocol/lufa/LUFA-120730/LUFA/Drivers/USB/Core/AVR8/../AVR8/Device_AVR8.h **** 				 */
 116:../../protocol/lufa/LUFA-120730/LUFA/Drivers/USB/Core/AVR8/../AVR8/Device_AVR8.h **** 				#define USE_INTERNAL_SERIAL            0xDC
 117:../../protocol/lufa/LUFA-120730/LUFA/Drivers/USB/Core/AVR8/../AVR8/Device_AVR8.h **** 
 118:../../protocol/lufa/LUFA-120730/LUFA/Drivers/USB/Core/AVR8/../AVR8/Device_AVR8.h **** 				/** Length of the device's unique internal serial number, in bits, if present on the selected m
 119:../../protocol/lufa/LUFA-120730/LUFA/Drivers/USB/Core/AVR8/../AVR8/Device_AVR8.h **** 				 *  model.
 120:../../protocol/lufa/LUFA-120730/LUFA/Drivers/USB/Core/AVR8/../AVR8/Device_AVR8.h **** 				 */
 121:../../protocol/lufa/LUFA-120730/LUFA/Drivers/USB/Core/AVR8/../AVR8/Device_AVR8.h **** 				#define INTERNAL_SERIAL_LENGTH_BITS    80
 122:../../protocol/lufa/LUFA-120730/LUFA/Drivers/USB/Core/AVR8/../AVR8/Device_AVR8.h **** 
 123:../../protocol/lufa/LUFA-120730/LUFA/Drivers/USB/Core/AVR8/../AVR8/Device_AVR8.h **** 				/** Start address of the internal serial number, in the appropriate address space, if present o
 124:../../protocol/lufa/LUFA-120730/LUFA/Drivers/USB/Core/AVR8/../AVR8/Device_AVR8.h **** 				 *  model.
 125:../../protocol/lufa/LUFA-120730/LUFA/Drivers/USB/Core/AVR8/../AVR8/Device_AVR8.h **** 				 */
 126:../../protocol/lufa/LUFA-120730/LUFA/Drivers/USB/Core/AVR8/../AVR8/Device_AVR8.h **** 				#define INTERNAL_SERIAL_START_ADDRESS  0x0E
 127:../../protocol/lufa/LUFA-120730/LUFA/Drivers/USB/Core/AVR8/../AVR8/Device_AVR8.h **** 			#else
 128:../../protocol/lufa/LUFA-120730/LUFA/Drivers/USB/Core/AVR8/../AVR8/Device_AVR8.h **** 				#define USE_INTERNAL_SERIAL            NO_DESCRIPTOR
 129:../../protocol/lufa/LUFA-120730/LUFA/Drivers/USB/Core/AVR8/../AVR8/Device_AVR8.h **** 
 130:../../protocol/lufa/LUFA-120730/LUFA/Drivers/USB/Core/AVR8/../AVR8/Device_AVR8.h **** 				#define INTERNAL_SERIAL_LENGTH_BITS    0
 131:../../protocol/lufa/LUFA-120730/LUFA/Drivers/USB/Core/AVR8/../AVR8/Device_AVR8.h **** 				#define INTERNAL_SERIAL_START_ADDRESS  0
 132:../../protocol/lufa/LUFA-120730/LUFA/Drivers/USB/Core/AVR8/../AVR8/Device_AVR8.h **** 			#endif
 133:../../protocol/lufa/LUFA-120730/LUFA/Drivers/USB/Core/AVR8/../AVR8/Device_AVR8.h **** 
 134:../../protocol/lufa/LUFA-120730/LUFA/Drivers/USB/Core/AVR8/../AVR8/Device_AVR8.h **** 		/* Function Prototypes: */
 135:../../protocol/lufa/LUFA-120730/LUFA/Drivers/USB/Core/AVR8/../AVR8/Device_AVR8.h **** 			/** Sends a Remote Wakeup request to the host. This signals to the host that the device should
 136:../../protocol/lufa/LUFA-120730/LUFA/Drivers/USB/Core/AVR8/../AVR8/Device_AVR8.h **** 			 *  be taken out of suspended mode, and communications should resume.
 137:../../protocol/lufa/LUFA-120730/LUFA/Drivers/USB/Core/AVR8/../AVR8/Device_AVR8.h **** 			 *
 138:../../protocol/lufa/LUFA-120730/LUFA/Drivers/USB/Core/AVR8/../AVR8/Device_AVR8.h **** 			 *  Typically, this is implemented so that HID devices (mice, keyboards, etc.) can wake up the
 139:../../protocol/lufa/LUFA-120730/LUFA/Drivers/USB/Core/AVR8/../AVR8/Device_AVR8.h **** 			 *  host computer when the host has suspended all USB devices to enter a low power state.
 140:../../protocol/lufa/LUFA-120730/LUFA/Drivers/USB/Core/AVR8/../AVR8/Device_AVR8.h **** 			 *
 141:../../protocol/lufa/LUFA-120730/LUFA/Drivers/USB/Core/AVR8/../AVR8/Device_AVR8.h **** 			 *  \attention This function should only be used if the device has indicated to the host that it
 142:../../protocol/lufa/LUFA-120730/LUFA/Drivers/USB/Core/AVR8/../AVR8/Device_AVR8.h **** 			 *             supports the Remote Wakeup feature in the device descriptors, and should only be
 143:../../protocol/lufa/LUFA-120730/LUFA/Drivers/USB/Core/AVR8/../AVR8/Device_AVR8.h **** 			 *             issued if the host is currently allowing remote wakeup events from the device (i.
 144:../../protocol/lufa/LUFA-120730/LUFA/Drivers/USB/Core/AVR8/../AVR8/Device_AVR8.h **** 			 *             the \ref USB_Device_RemoteWakeupEnabled flag is set). When the \c NO_DEVICE_REMOT
 145:../../protocol/lufa/LUFA-120730/LUFA/Drivers/USB/Core/AVR8/../AVR8/Device_AVR8.h **** 			 *             compile time option is used, this function is unavailable.
 146:../../protocol/lufa/LUFA-120730/LUFA/Drivers/USB/Core/AVR8/../AVR8/Device_AVR8.h **** 			 *             \n\n
 147:../../protocol/lufa/LUFA-120730/LUFA/Drivers/USB/Core/AVR8/../AVR8/Device_AVR8.h **** 			 *
 148:../../protocol/lufa/LUFA-120730/LUFA/Drivers/USB/Core/AVR8/../AVR8/Device_AVR8.h **** 			 *  \attention The USB clock must be running for this function to operate. If the stack is initi
 149:../../protocol/lufa/LUFA-120730/LUFA/Drivers/USB/Core/AVR8/../AVR8/Device_AVR8.h **** 			 *             the \ref USB_OPT_MANUAL_PLL option enabled, the user must ensure that the PLL is 
 150:../../protocol/lufa/LUFA-120730/LUFA/Drivers/USB/Core/AVR8/../AVR8/Device_AVR8.h **** 			 *             before attempting to call this function.
 151:../../protocol/lufa/LUFA-120730/LUFA/Drivers/USB/Core/AVR8/../AVR8/Device_AVR8.h **** 			 *
 152:../../protocol/lufa/LUFA-120730/LUFA/Drivers/USB/Core/AVR8/../AVR8/Device_AVR8.h **** 			 *  \see \ref Group_StdDescriptors for more information on the RMWAKEUP feature and device descr
 153:../../protocol/lufa/LUFA-120730/LUFA/Drivers/USB/Core/AVR8/../AVR8/Device_AVR8.h **** 			 */
 154:../../protocol/lufa/LUFA-120730/LUFA/Drivers/USB/Core/AVR8/../AVR8/Device_AVR8.h **** 			void USB_Device_SendRemoteWakeup(void);
 155:../../protocol/lufa/LUFA-120730/LUFA/Drivers/USB/Core/AVR8/../AVR8/Device_AVR8.h **** 
 156:../../protocol/lufa/LUFA-120730/LUFA/Drivers/USB/Core/AVR8/../AVR8/Device_AVR8.h **** 		/* Inline Functions: */
 157:../../protocol/lufa/LUFA-120730/LUFA/Drivers/USB/Core/AVR8/../AVR8/Device_AVR8.h **** 			/** Returns the current USB frame number, when in device mode. Every millisecond the USB bus is 
 158:../../protocol/lufa/LUFA-120730/LUFA/Drivers/USB/Core/AVR8/../AVR8/Device_AVR8.h **** 			 *  the frame number is incremented by one.
 159:../../protocol/lufa/LUFA-120730/LUFA/Drivers/USB/Core/AVR8/../AVR8/Device_AVR8.h **** 			 *
 160:../../protocol/lufa/LUFA-120730/LUFA/Drivers/USB/Core/AVR8/../AVR8/Device_AVR8.h **** 			 *  \return Current USB frame number from the USB controller.
 161:../../protocol/lufa/LUFA-120730/LUFA/Drivers/USB/Core/AVR8/../AVR8/Device_AVR8.h **** 			 */
 162:../../protocol/lufa/LUFA-120730/LUFA/Drivers/USB/Core/AVR8/../AVR8/Device_AVR8.h **** 			static inline uint16_t USB_Device_GetFrameNumber(void) ATTR_ALWAYS_INLINE ATTR_WARN_UNUSED_RESUL
 163:../../protocol/lufa/LUFA-120730/LUFA/Drivers/USB/Core/AVR8/../AVR8/Device_AVR8.h **** 			static inline uint16_t USB_Device_GetFrameNumber(void)
 164:../../protocol/lufa/LUFA-120730/LUFA/Drivers/USB/Core/AVR8/../AVR8/Device_AVR8.h **** 			{
 165:../../protocol/lufa/LUFA-120730/LUFA/Drivers/USB/Core/AVR8/../AVR8/Device_AVR8.h **** 				return UDFNUM;
 166:../../protocol/lufa/LUFA-120730/LUFA/Drivers/USB/Core/AVR8/../AVR8/Device_AVR8.h **** 			}
 167:../../protocol/lufa/LUFA-120730/LUFA/Drivers/USB/Core/AVR8/../AVR8/Device_AVR8.h **** 
 168:../../protocol/lufa/LUFA-120730/LUFA/Drivers/USB/Core/AVR8/../AVR8/Device_AVR8.h **** 			#if !defined(NO_SOF_EVENTS)
 169:../../protocol/lufa/LUFA-120730/LUFA/Drivers/USB/Core/AVR8/../AVR8/Device_AVR8.h **** 				/** Enables the device mode Start Of Frame events. When enabled, this causes the
 170:../../protocol/lufa/LUFA-120730/LUFA/Drivers/USB/Core/AVR8/../AVR8/Device_AVR8.h **** 				 *  \ref EVENT_USB_Device_StartOfFrame() event to fire once per millisecond, synchronized to th
 171:../../protocol/lufa/LUFA-120730/LUFA/Drivers/USB/Core/AVR8/../AVR8/Device_AVR8.h **** 				 *  at the start of each USB frame when enumerated in device mode.
 172:../../protocol/lufa/LUFA-120730/LUFA/Drivers/USB/Core/AVR8/../AVR8/Device_AVR8.h **** 				 *
 173:../../protocol/lufa/LUFA-120730/LUFA/Drivers/USB/Core/AVR8/../AVR8/Device_AVR8.h **** 				 *  \note This function is not available when the \c NO_SOF_EVENTS compile time token is define
 174:../../protocol/lufa/LUFA-120730/LUFA/Drivers/USB/Core/AVR8/../AVR8/Device_AVR8.h **** 				 */
 175:../../protocol/lufa/LUFA-120730/LUFA/Drivers/USB/Core/AVR8/../AVR8/Device_AVR8.h **** 				static inline void USB_Device_EnableSOFEvents(void) ATTR_ALWAYS_INLINE;
 176:../../protocol/lufa/LUFA-120730/LUFA/Drivers/USB/Core/AVR8/../AVR8/Device_AVR8.h **** 				static inline void USB_Device_EnableSOFEvents(void)
 177:../../protocol/lufa/LUFA-120730/LUFA/Drivers/USB/Core/AVR8/../AVR8/Device_AVR8.h **** 				{
 178:../../protocol/lufa/LUFA-120730/LUFA/Drivers/USB/Core/AVR8/../AVR8/Device_AVR8.h **** 					USB_INT_Enable(USB_INT_SOFI);
 179:../../protocol/lufa/LUFA-120730/LUFA/Drivers/USB/Core/AVR8/../AVR8/Device_AVR8.h **** 				}
 180:../../protocol/lufa/LUFA-120730/LUFA/Drivers/USB/Core/AVR8/../AVR8/Device_AVR8.h **** 
 181:../../protocol/lufa/LUFA-120730/LUFA/Drivers/USB/Core/AVR8/../AVR8/Device_AVR8.h **** 				/** Disables the device mode Start Of Frame events. When disabled, this stops the firing of the
 182:../../protocol/lufa/LUFA-120730/LUFA/Drivers/USB/Core/AVR8/../AVR8/Device_AVR8.h **** 				 *  \ref EVENT_USB_Device_StartOfFrame() event when enumerated in device mode.
 183:../../protocol/lufa/LUFA-120730/LUFA/Drivers/USB/Core/AVR8/../AVR8/Device_AVR8.h **** 				 *
 184:../../protocol/lufa/LUFA-120730/LUFA/Drivers/USB/Core/AVR8/../AVR8/Device_AVR8.h **** 				 *  \note This function is not available when the \c NO_SOF_EVENTS compile time token is define
 185:../../protocol/lufa/LUFA-120730/LUFA/Drivers/USB/Core/AVR8/../AVR8/Device_AVR8.h **** 				 */
 186:../../protocol/lufa/LUFA-120730/LUFA/Drivers/USB/Core/AVR8/../AVR8/Device_AVR8.h **** 				static inline void USB_Device_DisableSOFEvents(void) ATTR_ALWAYS_INLINE;
 187:../../protocol/lufa/LUFA-120730/LUFA/Drivers/USB/Core/AVR8/../AVR8/Device_AVR8.h **** 				static inline void USB_Device_DisableSOFEvents(void)
 188:../../protocol/lufa/LUFA-120730/LUFA/Drivers/USB/Core/AVR8/../AVR8/Device_AVR8.h **** 				{
 189:../../protocol/lufa/LUFA-120730/LUFA/Drivers/USB/Core/AVR8/../AVR8/Device_AVR8.h **** 					USB_INT_Disable(USB_INT_SOFI);
 190:../../protocol/lufa/LUFA-120730/LUFA/Drivers/USB/Core/AVR8/../AVR8/Device_AVR8.h **** 				}
 191:../../protocol/lufa/LUFA-120730/LUFA/Drivers/USB/Core/AVR8/../AVR8/Device_AVR8.h **** 			#endif
 192:../../protocol/lufa/LUFA-120730/LUFA/Drivers/USB/Core/AVR8/../AVR8/Device_AVR8.h **** 
 193:../../protocol/lufa/LUFA-120730/LUFA/Drivers/USB/Core/AVR8/../AVR8/Device_AVR8.h **** 	/* Private Interface - For use in library only: */
 194:../../protocol/lufa/LUFA-120730/LUFA/Drivers/USB/Core/AVR8/../AVR8/Device_AVR8.h **** 	#if !defined(__DOXYGEN__)
 195:../../protocol/lufa/LUFA-120730/LUFA/Drivers/USB/Core/AVR8/../AVR8/Device_AVR8.h **** 		/* Inline Functions: */
 196:../../protocol/lufa/LUFA-120730/LUFA/Drivers/USB/Core/AVR8/../AVR8/Device_AVR8.h **** 			#if defined(USB_DEVICE_OPT_LOWSPEED)
 197:../../protocol/lufa/LUFA-120730/LUFA/Drivers/USB/Core/AVR8/../AVR8/Device_AVR8.h **** 			static inline void USB_Device_SetLowSpeed(void) ATTR_ALWAYS_INLINE;
 198:../../protocol/lufa/LUFA-120730/LUFA/Drivers/USB/Core/AVR8/../AVR8/Device_AVR8.h **** 			static inline void USB_Device_SetLowSpeed(void)
 199:../../protocol/lufa/LUFA-120730/LUFA/Drivers/USB/Core/AVR8/../AVR8/Device_AVR8.h **** 			{
 200:../../protocol/lufa/LUFA-120730/LUFA/Drivers/USB/Core/AVR8/../AVR8/Device_AVR8.h **** 				UDCON |=  (1 << LSM);
 201:../../protocol/lufa/LUFA-120730/LUFA/Drivers/USB/Core/AVR8/../AVR8/Device_AVR8.h **** 			}
 202:../../protocol/lufa/LUFA-120730/LUFA/Drivers/USB/Core/AVR8/../AVR8/Device_AVR8.h **** 
 203:../../protocol/lufa/LUFA-120730/LUFA/Drivers/USB/Core/AVR8/../AVR8/Device_AVR8.h **** 			static inline void USB_Device_SetFullSpeed(void) ATTR_ALWAYS_INLINE;
 204:../../protocol/lufa/LUFA-120730/LUFA/Drivers/USB/Core/AVR8/../AVR8/Device_AVR8.h **** 			static inline void USB_Device_SetFullSpeed(void)
 205:../../protocol/lufa/LUFA-120730/LUFA/Drivers/USB/Core/AVR8/../AVR8/Device_AVR8.h **** 			{
 206:../../protocol/lufa/LUFA-120730/LUFA/Drivers/USB/Core/AVR8/../AVR8/Device_AVR8.h **** 				UDCON &= ~(1 << LSM);
 207:../../protocol/lufa/LUFA-120730/LUFA/Drivers/USB/Core/AVR8/../AVR8/Device_AVR8.h **** 			}
 208:../../protocol/lufa/LUFA-120730/LUFA/Drivers/USB/Core/AVR8/../AVR8/Device_AVR8.h **** 			#endif
 209:../../protocol/lufa/LUFA-120730/LUFA/Drivers/USB/Core/AVR8/../AVR8/Device_AVR8.h **** 
 210:../../protocol/lufa/LUFA-120730/LUFA/Drivers/USB/Core/AVR8/../AVR8/Device_AVR8.h **** 			static inline void USB_Device_SetDeviceAddress(const uint8_t Address) ATTR_ALWAYS_INLINE;
 211:../../protocol/lufa/LUFA-120730/LUFA/Drivers/USB/Core/AVR8/../AVR8/Device_AVR8.h **** 			static inline void USB_Device_SetDeviceAddress(const uint8_t Address)
 212:../../protocol/lufa/LUFA-120730/LUFA/Drivers/USB/Core/AVR8/../AVR8/Device_AVR8.h **** 			{
 213:../../protocol/lufa/LUFA-120730/LUFA/Drivers/USB/Core/AVR8/../AVR8/Device_AVR8.h **** 				uint8_t Temp = (UDADDR & (1 << ADDEN)) | (Address & 0x7F);
 371               		.loc 4 213 0
 372 0140 8091 E300 		lds r24,227
 373 0144 8078      		andi r24,lo8(-128)
 374 0146 812B      		or r24,r17
 375               	.LVL26:
 214:../../protocol/lufa/LUFA-120730/LUFA/Drivers/USB/Core/AVR8/../AVR8/Device_AVR8.h **** 
 215:../../protocol/lufa/LUFA-120730/LUFA/Drivers/USB/Core/AVR8/../AVR8/Device_AVR8.h **** 				UDADDR = Temp;
 376               		.loc 4 215 0
 377 0148 8093 E300 		sts 227,r24
 216:../../protocol/lufa/LUFA-120730/LUFA/Drivers/USB/Core/AVR8/../AVR8/Device_AVR8.h **** 				UDADDR = Temp | (1 << ADDEN);
 378               		.loc 4 216 0
 379 014c 8068      		ori r24,lo8(-128)
 380               	.LVL27:
 381 014e 8093 E300 		sts 227,r24
 382               	.LVL28:
 383               	.LBE228:
 384               	.LBE227:
 135:../../protocol/lufa/LUFA-120730/LUFA/Drivers/USB/Core/DeviceStandardReq.c **** 	USB_DeviceState = (DeviceAddress) ? DEVICE_STATE_Addressed : DEVICE_STATE_Default;
 385               		.loc 1 135 0
 386 0152 1123      		tst r17
 387 0154 01F0      		breq .L36
 388 0156 83E0      		ldi r24,lo8(3)
 389 0158 00C0      		rjmp .L24
 390               	.L36:
 391 015a 82E0      		ldi r24,lo8(2)
 392               	.L24:
 393 015c 8093 0000 		sts USB_DeviceState,r24
 394               	.LVL29:
 395               	.LBB229:
 396               	.LBB230:
 317:../../protocol/lufa/LUFA-120730/LUFA/Drivers/USB/Core/../../../Common/Common.h **** 				GCC_MEMORY_BARRIER();
 397               		.loc 3 317 0
 320:../../protocol/lufa/LUFA-120730/LUFA/Drivers/USB/Core/../../../Common/Common.h **** 				SREG = GlobalIntState;
 398               		.loc 3 320 0
 399 0160 0FBF      		out __SREG__,r16
 330:../../protocol/lufa/LUFA-120730/LUFA/Drivers/USB/Core/../../../Common/Common.h **** 				GCC_MEMORY_BARRIER();
 400               		.loc 3 330 0
 401 0162 00C0      		rjmp .L4
 402               	.LVL30:
 403               	.L9:
 404               	.LBE230:
 405               	.LBE229:
 406               	.LBE218:
 407               	.LBE217:
  95:../../protocol/lufa/LUFA-120730/LUFA/Drivers/USB/Core/DeviceStandardReq.c **** 				if ((bmRequestType == (REQDIR_DEVICETOHOST | REQTYPE_STANDARD | REQREC_DEVICE)) ||
 408               		.loc 1 95 0
 409 0164 2058      		subi r18,lo8(-(-128))
 410               	.LVL31:
 411 0166 2230      		cpi r18,lo8(2)
 412 0168 00F0      		brlo .+2
 413 016a 00C0      		rjmp .L4
 414               	.LBB231:
 415               	.LBB232:
 248:../../protocol/lufa/LUFA-120730/LUFA/Drivers/USB/Core/DeviceStandardReq.c **** 	if (USB_ControlRequest.wValue == ((DTYPE_String << 8) | USE_INTERNAL_SERIAL))
 416               		.loc 1 248 0
 417 016c 8091 0000 		lds r24,USB_ControlRequest+2
 418 0170 9091 0000 		lds r25,USB_ControlRequest+2+1
 419 0174 8C3D      		cpi r24,-36
 420 0176 23E0      		ldi r18,3
 421 0178 9207      		cpc r25,r18
 422 017a 01F4      		brne .L25
 423               	.LBB233:
 424               	.LBB234:
 225:../../protocol/lufa/LUFA-120730/LUFA/Drivers/USB/Core/DeviceStandardReq.c **** 	SignatureDescriptor.Header.Type = DTYPE_String;
 425               		.loc 1 225 0
 426 017c 83E0      		ldi r24,lo8(3)
 427 017e 8A83      		std Y+2,r24
 226:../../protocol/lufa/LUFA-120730/LUFA/Drivers/USB/Core/DeviceStandardReq.c **** 	SignatureDescriptor.Header.Size = USB_STRING_LEN(INTERNAL_SERIAL_LENGTH_BITS / 4);
 428               		.loc 1 226 0
 429 0180 8AE2      		ldi r24,lo8(42)
 430 0182 8983      		std Y+1,r24
 431               	.LVL32:
 432               	.LBB235:
 433               	.LBB236:
 434               	.LBB237:
 435               	.LBB238:
 295:../../protocol/lufa/LUFA-120730/LUFA/Drivers/USB/Core/../../../Common/Common.h **** 				GCC_MEMORY_BARRIER();
 436               		.loc 3 295 0
 298:../../protocol/lufa/LUFA-120730/LUFA/Drivers/USB/Core/../../../Common/Common.h **** 				return SREG;
 437               		.loc 3 298 0
 438 0184 4FB7      		in r20,__SREG__
 439               	.LBE238:
 440               	.LBE237:
 441               	.LBB239:
 442               	.LBB240:
 360:../../protocol/lufa/LUFA-120730/LUFA/Drivers/USB/Core/../../../Common/Common.h **** 				GCC_MEMORY_BARRIER();
 443               		.loc 3 360 0
 363:../../protocol/lufa/LUFA-120730/LUFA/Drivers/USB/Core/../../../Common/Common.h **** 				cli();
 444               		.loc 3 363 0
 445               	/* #APP */
 446               	 ;  363 "../../protocol/lufa/LUFA-120730/LUFA/Drivers/USB/Core/../../../Common/Common.h" 1
 447 0186 F894      		cli
 448               	 ;  0 "" 2
 449               		.loc 3 370 0
 450               	.LVL33:
 451               	/* #NOAPP */
 452 0188 DE01      		movw r26,r28
 453 018a 1396      		adiw r26,3
 454               	.LBE240:
 455               	.LBE239:
 456               	.LBB241:
 217:../../protocol/lufa/LUFA-120730/LUFA/Drivers/USB/Core/AVR8/../AVR8/Device_AVR8.h **** 			}
 218:../../protocol/lufa/LUFA-120730/LUFA/Drivers/USB/Core/AVR8/../AVR8/Device_AVR8.h **** 
 219:../../protocol/lufa/LUFA-120730/LUFA/Drivers/USB/Core/AVR8/../AVR8/Device_AVR8.h **** 			static inline bool USB_Device_IsAddressSet(void) ATTR_ALWAYS_INLINE ATTR_WARN_UNUSED_RESULT;
 220:../../protocol/lufa/LUFA-120730/LUFA/Drivers/USB/Core/AVR8/../AVR8/Device_AVR8.h **** 			static inline bool USB_Device_IsAddressSet(void)
 221:../../protocol/lufa/LUFA-120730/LUFA/Drivers/USB/Core/AVR8/../AVR8/Device_AVR8.h **** 			{
 222:../../protocol/lufa/LUFA-120730/LUFA/Drivers/USB/Core/AVR8/../AVR8/Device_AVR8.h **** 				return (UDADDR & (1 << ADDEN));
 223:../../protocol/lufa/LUFA-120730/LUFA/Drivers/USB/Core/AVR8/../AVR8/Device_AVR8.h **** 			}
 224:../../protocol/lufa/LUFA-120730/LUFA/Drivers/USB/Core/AVR8/../AVR8/Device_AVR8.h **** 
 225:../../protocol/lufa/LUFA-120730/LUFA/Drivers/USB/Core/AVR8/../AVR8/Device_AVR8.h **** 			#if (USE_INTERNAL_SERIAL != NO_DESCRIPTOR)
 226:../../protocol/lufa/LUFA-120730/LUFA/Drivers/USB/Core/AVR8/../AVR8/Device_AVR8.h **** 			static inline void USB_Device_GetSerialString(uint16_t* const UnicodeString) ATTR_NON_NULL_PTR_A
 227:../../protocol/lufa/LUFA-120730/LUFA/Drivers/USB/Core/AVR8/../AVR8/Device_AVR8.h **** 			static inline void USB_Device_GetSerialString(uint16_t* const UnicodeString)
 228:../../protocol/lufa/LUFA-120730/LUFA/Drivers/USB/Core/AVR8/../AVR8/Device_AVR8.h **** 			{
 229:../../protocol/lufa/LUFA-120730/LUFA/Drivers/USB/Core/AVR8/../AVR8/Device_AVR8.h **** 				uint_reg_t CurrentGlobalInt = GetGlobalInterruptMask();
 230:../../protocol/lufa/LUFA-120730/LUFA/Drivers/USB/Core/AVR8/../AVR8/Device_AVR8.h **** 				GlobalInterruptDisable();
 231:../../protocol/lufa/LUFA-120730/LUFA/Drivers/USB/Core/AVR8/../AVR8/Device_AVR8.h **** 
 232:../../protocol/lufa/LUFA-120730/LUFA/Drivers/USB/Core/AVR8/../AVR8/Device_AVR8.h **** 				uint8_t SigReadAddress = INTERNAL_SERIAL_START_ADDRESS;
 233:../../protocol/lufa/LUFA-120730/LUFA/Drivers/USB/Core/AVR8/../AVR8/Device_AVR8.h **** 
 234:../../protocol/lufa/LUFA-120730/LUFA/Drivers/USB/Core/AVR8/../AVR8/Device_AVR8.h **** 				for (uint8_t SerialCharNum = 0; SerialCharNum < (INTERNAL_SERIAL_LENGTH_BITS / 4); SerialCharNu
 457               		.loc 4 234 0
 458 018c 20E0      		ldi r18,0
 459               	.LBE241:
 232:../../protocol/lufa/LUFA-120730/LUFA/Drivers/USB/Core/AVR8/../AVR8/Device_AVR8.h **** 				uint8_t SigReadAddress = INTERNAL_SERIAL_START_ADDRESS;
 460               		.loc 4 232 0
 461 018e 3EE0      		ldi r19,lo8(14)
 462               	.LBB244:
 463               	.LBB242:
 464               	.LBB243:
 235:../../protocol/lufa/LUFA-120730/LUFA/Drivers/USB/Core/AVR8/../AVR8/Device_AVR8.h **** 				{
 236:../../protocol/lufa/LUFA-120730/LUFA/Drivers/USB/Core/AVR8/../AVR8/Device_AVR8.h **** 					uint8_t SerialByte = boot_signature_byte_get(SigReadAddress);
 465               		.loc 4 236 0
 466 0190 51E2      		ldi r21,lo8(33)
 467               	.LVL34:
 468               	.L30:
 469 0192 E32F      		mov r30,r19
 470 0194 F0E0      		ldi r31,0
 471               	/* #APP */
 472               	 ;  236 "../../protocol/lufa/LUFA-120730/LUFA/Drivers/USB/Core/AVR8/../AVR8/Device_AVR8.h" 1
 473 0196 5093 5700 		sts 87, r21
 474 019a E491      		lpm r30, Z
 475               		
 476               	 ;  0 "" 2
 477               	.LVL35:
 478               	/* #NOAPP */
 479               	.LBE243:
 237:../../protocol/lufa/LUFA-120730/LUFA/Drivers/USB/Core/AVR8/../AVR8/Device_AVR8.h **** 
 238:../../protocol/lufa/LUFA-120730/LUFA/Drivers/USB/Core/AVR8/../AVR8/Device_AVR8.h **** 					if (SerialCharNum & 0x01)
 480               		.loc 4 238 0
 481 019c 20FF      		sbrs r18,0
 482 019e 00C0      		rjmp .L26
 239:../../protocol/lufa/LUFA-120730/LUFA/Drivers/USB/Core/AVR8/../AVR8/Device_AVR8.h **** 					{
 240:../../protocol/lufa/LUFA-120730/LUFA/Drivers/USB/Core/AVR8/../AVR8/Device_AVR8.h **** 						SerialByte >>= 4;
 483               		.loc 4 240 0
 484 01a0 E295      		swap r30
 485               	.LVL36:
 486 01a2 EF70      		andi r30,lo8(15)
 487               	.LVL37:
 241:../../protocol/lufa/LUFA-120730/LUFA/Drivers/USB/Core/AVR8/../AVR8/Device_AVR8.h **** 						SigReadAddress++;
 488               		.loc 4 241 0
 489 01a4 3F5F      		subi r19,lo8(-(1))
 490               	.LVL38:
 491               	.L26:
 242:../../protocol/lufa/LUFA-120730/LUFA/Drivers/USB/Core/AVR8/../AVR8/Device_AVR8.h **** 					}
 243:../../protocol/lufa/LUFA-120730/LUFA/Drivers/USB/Core/AVR8/../AVR8/Device_AVR8.h **** 
 244:../../protocol/lufa/LUFA-120730/LUFA/Drivers/USB/Core/AVR8/../AVR8/Device_AVR8.h **** 					SerialByte &= 0x0F;
 492               		.loc 4 244 0
 493 01a6 EF70      		andi r30,lo8(15)
 494               	.LVL39:
 495 01a8 8E2F      		mov r24,r30
 496 01aa 90E0      		ldi r25,0
 245:../../protocol/lufa/LUFA-120730/LUFA/Drivers/USB/Core/AVR8/../AVR8/Device_AVR8.h **** 
 246:../../protocol/lufa/LUFA-120730/LUFA/Drivers/USB/Core/AVR8/../AVR8/Device_AVR8.h **** 					UnicodeString[SerialCharNum] = cpu_to_le16((SerialByte >= 10) ?
 497               		.loc 4 246 0
 498 01ac EA30      		cpi r30,lo8(10)
 499 01ae 00F0      		brlo .L27
 500 01b0 C796      		adiw r24,55
 501 01b2 00C0      		rjmp .L28
 502               	.LVL40:
 503               	.L27:
 504 01b4 C096      		adiw r24,48
 505               	.LVL41:
 506               	.L28:
 507 01b6 8D93      		st X+,r24
 508 01b8 9D93      		st X+,r25
 509               	.LBE242:
 234:../../protocol/lufa/LUFA-120730/LUFA/Drivers/USB/Core/AVR8/../AVR8/Device_AVR8.h **** 				for (uint8_t SerialCharNum = 0; SerialCharNum < (INTERNAL_SERIAL_LENGTH_BITS / 4); SerialCharNu
 510               		.loc 4 234 0
 511 01ba 2F5F      		subi r18,lo8(-(1))
 512               	.LVL42:
 513 01bc 2431      		cpi r18,lo8(20)
 514 01be 01F4      		brne .L30
 515               	.LVL43:
 516               	.LBE244:
 517               	.LBB245:
 518               	.LBB246:
 317:../../protocol/lufa/LUFA-120730/LUFA/Drivers/USB/Core/../../../Common/Common.h **** 				GCC_MEMORY_BARRIER();
 519               		.loc 3 317 0
 320:../../protocol/lufa/LUFA-120730/LUFA/Drivers/USB/Core/../../../Common/Common.h **** 				SREG = GlobalIntState;
 520               		.loc 3 320 0
 521 01c0 4FBF      		out __SREG__,r20
 522               	.LVL44:
 330:../../protocol/lufa/LUFA-120730/LUFA/Drivers/USB/Core/../../../Common/Common.h **** 				GCC_MEMORY_BARRIER();
 523               		.loc 3 330 0
 524               	.LBE246:
 525               	.LBE245:
 526               	.LBE236:
 527               	.LBE235:
 528               	.LBB247:
 529               	.LBB248:
 444:../../protocol/lufa/LUFA-120730/LUFA/Drivers/USB/Core/AVR8/../AVR8/Endpoint_AVR8.h **** 				UEINTX &= ~(1 << RXSTPI);
 530               		.loc 2 444 0
 531 01c2 8091 E800 		lds r24,232
 532 01c6 877F      		andi r24,lo8(-9)
 533 01c8 8093 E800 		sts 232,r24
 534               	.LBE248:
 535               	.LBE247:
 232:../../protocol/lufa/LUFA-120730/LUFA/Drivers/USB/Core/DeviceStandardReq.c **** 	Endpoint_Write_Control_Stream_LE(&SignatureDescriptor, sizeof(SignatureDescriptor));
 536               		.loc 1 232 0
 537 01cc 6AE2      		ldi r22,lo8(42)
 538 01ce 70E0      		ldi r23,0
 539 01d0 CE01      		movw r24,r28
 540 01d2 0196      		adiw r24,1
 541 01d4 0E94 0000 		call Endpoint_Write_Control_Stream_LE
 542               	.LVL45:
 543 01d8 00C0      		rjmp .L64
 544               	.LVL46:
 545               	.L25:
 546               	.LBE234:
 547               	.LBE233:
 255:../../protocol/lufa/LUFA-120730/LUFA/Drivers/USB/Core/DeviceStandardReq.c **** 	if ((DescriptorSize = CALLBACK_USB_GetDescriptor(USB_ControlRequest.wValue, USB_ControlRequest.wIn
 548               		.loc 1 255 0
 549 01da AE01      		movw r20,r28
 550 01dc 4F5F      		subi r20,-1
 551 01de 5F4F      		sbci r21,-1
 552 01e0 6091 0000 		lds r22,USB_ControlRequest+4
 553 01e4 0E94 0000 		call CALLBACK_USB_GetDescriptor
 554               	.LVL47:
 555 01e8 0097      		sbiw r24,0
 556 01ea 01F4      		brne .+2
 557 01ec 00C0      		rjmp .L4
 558               	.LBB249:
 559               	.LBB250:
 444:../../protocol/lufa/LUFA-120730/LUFA/Drivers/USB/Core/AVR8/../AVR8/Endpoint_AVR8.h **** 				UEINTX &= ~(1 << RXSTPI);
 560               		.loc 2 444 0
 561 01ee 2091 E800 		lds r18,232
 562 01f2 277F      		andi r18,lo8(-9)
 563 01f4 2093 E800 		sts 232,r18
 564               	.LBE250:
 565               	.LBE249:
 273:../../protocol/lufa/LUFA-120730/LUFA/Drivers/USB/Core/DeviceStandardReq.c **** 	Endpoint_Write_Control_PStream_LE(DescriptorPointer, DescriptorSize);
 566               		.loc 1 273 0
 567 01f8 BC01      		movw r22,r24
 568 01fa 8981      		ldd r24,Y+1
 569 01fc 9A81      		ldd r25,Y+2
 570               	.LVL48:
 571 01fe 0E94 0000 		call Endpoint_Write_Control_PStream_LE
 572               	.LVL49:
 573               	.L64:
 574               	.LBB251:
 575               	.LBB252:
 471:../../protocol/lufa/LUFA-120730/LUFA/Drivers/USB/Core/AVR8/../AVR8/Endpoint_AVR8.h **** 					UEINTX &= ~((1 << RXOUTI) | (1 << FIFOCON));
 576               		.loc 2 471 0
 577 0202 8091 E800 		lds r24,232
 578 0206 8B77      		andi r24,lo8(123)
 579 0208 8093 E800 		sts 232,r24
 580 020c 00C0      		rjmp .L4
 581               	.LVL50:
 582               	.L10:
 583               	.LBE252:
 584               	.LBE251:
 585               	.LBE232:
 586               	.LBE231:
 103:../../protocol/lufa/LUFA-120730/LUFA/Drivers/USB/Core/DeviceStandardReq.c **** 				if (bmRequestType == (REQDIR_DEVICETOHOST | REQTYPE_STANDARD | REQREC_DEVICE))
 587               		.loc 1 103 0
 588 020e 2038      		cpi r18,lo8(-128)
 589 0210 01F4      		brne .L4
 590               	.LBB253:
 591               	.LBB254:
 592               	.LBB255:
 593               	.LBB256:
 444:../../protocol/lufa/LUFA-120730/LUFA/Drivers/USB/Core/AVR8/../AVR8/Endpoint_AVR8.h **** 				UEINTX &= ~(1 << RXSTPI);
 594               		.loc 2 444 0
 595 0212 8091 E800 		lds r24,232
 596 0216 877F      		andi r24,lo8(-9)
 597 0218 8093 E800 		sts 232,r24
 598               	.LBE256:
 599               	.LBE255:
 210:../../protocol/lufa/LUFA-120730/LUFA/Drivers/USB/Core/DeviceStandardReq.c **** 	Endpoint_Write_8(USB_Device_ConfigurationNumber);
 600               		.loc 1 210 0
 601 021c 8091 0000 		lds r24,USB_Device_ConfigurationNumber
 602               	.LVL51:
 603               	.LBB257:
 604               	.LBB258:
 554:../../protocol/lufa/LUFA-120730/LUFA/Drivers/USB/Core/AVR8/../AVR8/Endpoint_AVR8.h **** 				UEDATX = Data;
 605               		.loc 2 554 0
 606 0220 8093 F100 		sts 241,r24
 607               	.LVL52:
 608               	.L65:
 609               	.LBE258:
 610               	.LBE257:
 611               	.LBB259:
 612               	.LBB260:
 456:../../protocol/lufa/LUFA-120730/LUFA/Drivers/USB/Core/AVR8/../AVR8/Endpoint_AVR8.h **** 					UEINTX &= ~((1 << TXINI) | (1 << FIFOCON));
 613               		.loc 2 456 0
 614 0224 8091 E800 		lds r24,232
 615 0228 8E77      		andi r24,lo8(126)
 616               	.LVL53:
 617               	.L63:
 618 022a 8093 E800 		sts 232,r24
 619               	.LBE260:
 620               	.LBE259:
 213:../../protocol/lufa/LUFA-120730/LUFA/Drivers/USB/Core/DeviceStandardReq.c **** 	Endpoint_ClearStatusStage();
 621               		.loc 1 213 0
 622 022e 0E94 0000 		call Endpoint_ClearStatusStage
 623               	.LVL54:
 624 0232 00C0      		rjmp .L4
 625               	.LVL55:
 626               	.L11:
 627               	.LBE254:
 628               	.LBE253:
 108:../../protocol/lufa/LUFA-120730/LUFA/Drivers/USB/Core/DeviceStandardReq.c **** 				if (bmRequestType == (REQDIR_HOSTTODEVICE | REQTYPE_STANDARD | REQREC_DEVICE))
 629               		.loc 1 108 0
 630 0234 2111      		cpse r18,__zero_reg__
 631 0236 00C0      		rjmp .L4
 632               	.LBB261:
 633               	.LBB262:
 143:../../protocol/lufa/LUFA-120730/LUFA/Drivers/USB/Core/DeviceStandardReq.c **** 	if ((uint8_t)USB_ControlRequest.wValue > FIXED_NUM_CONFIGURATIONS)
 634               		.loc 1 143 0
 635 0238 9091 0000 		lds r25,USB_ControlRequest+2
 636 023c 9230      		cpi r25,lo8(2)
 637 023e 00F4      		brsh .L4
 638               	.LBB263:
 639               	.LBB264:
 444:../../protocol/lufa/LUFA-120730/LUFA/Drivers/USB/Core/AVR8/../AVR8/Endpoint_AVR8.h **** 				UEINTX &= ~(1 << RXSTPI);
 640               		.loc 2 444 0
 641 0240 8091 E800 		lds r24,232
 642 0244 877F      		andi r24,lo8(-9)
 643 0246 8093 E800 		sts 232,r24
 644               	.LBE264:
 645               	.LBE263:
 194:../../protocol/lufa/LUFA-120730/LUFA/Drivers/USB/Core/DeviceStandardReq.c **** 	USB_Device_ConfigurationNumber = (uint8_t)USB_ControlRequest.wValue;
 646               		.loc 1 194 0
 647 024a 9093 0000 		sts USB_Device_ConfigurationNumber,r25
 196:../../protocol/lufa/LUFA-120730/LUFA/Drivers/USB/Core/DeviceStandardReq.c **** 	Endpoint_ClearStatusStage();
 648               		.loc 1 196 0
 649 024e 0E94 0000 		call Endpoint_ClearStatusStage
 650               	.LVL56:
 198:../../protocol/lufa/LUFA-120730/LUFA/Drivers/USB/Core/DeviceStandardReq.c **** 	if (USB_Device_ConfigurationNumber)
 651               		.loc 1 198 0
 652 0252 8091 0000 		lds r24,USB_Device_ConfigurationNumber
 653 0256 8111      		cpse r24,__zero_reg__
 654 0258 00C0      		rjmp .L66
 655               	.LBB265:
 656               	.LBB266:
 222:../../protocol/lufa/LUFA-120730/LUFA/Drivers/USB/Core/AVR8/../AVR8/Device_AVR8.h **** 				return (UDADDR & (1 << ADDEN));
 657               		.loc 4 222 0
 658 025a 8091 E300 		lds r24,227
 659               	.LBE266:
 660               	.LBE265:
 201:../../protocol/lufa/LUFA-120730/LUFA/Drivers/USB/Core/DeviceStandardReq.c **** 	  USB_DeviceState = (USB_Device_IsAddressSet()) ? DEVICE_STATE_Configured : DEVICE_STATE_Powered;
 661               		.loc 1 201 0
 662 025e 87FF      		sbrs r24,7
 663 0260 00C0      		rjmp .L37
 664               	.L66:
 665 0262 84E0      		ldi r24,lo8(4)
 666 0264 00C0      		rjmp .L34
 667               	.L37:
 668 0266 81E0      		ldi r24,lo8(1)
 669               	.L34:
 670 0268 8093 0000 		sts USB_DeviceState,r24
 203:../../protocol/lufa/LUFA-120730/LUFA/Drivers/USB/Core/DeviceStandardReq.c **** 	EVENT_USB_Device_ConfigurationChanged();
 671               		.loc 1 203 0
 672 026c 0E94 0000 		call EVENT_USB_Device_ConfigurationChanged
 673               	.LVL57:
 674               	.L4:
 675               	.LBE262:
 676               	.LBE261:
 677               	.LBE183:
 678               	.LBB267:
 679               	.LBB268:
 431:../../protocol/lufa/LUFA-120730/LUFA/Drivers/USB/Core/AVR8/../AVR8/Endpoint_AVR8.h **** 				return ((UEINTX & (1 << RXSTPI)) ? true : false);
 680               		.loc 2 431 0
 681 0270 8091 E800 		lds r24,232
 682               	.LBE268:
 683               	.LBE267:
 115:../../protocol/lufa/LUFA-120730/LUFA/Drivers/USB/Core/DeviceStandardReq.c **** 	if (Endpoint_IsSETUPReceived())
 684               		.loc 1 115 0
 685 0274 83FF      		sbrs r24,3
 686 0276 00C0      		rjmp .L1
 687               	.LBB269:
 688               	.LBB270:
 491:../../protocol/lufa/LUFA-120730/LUFA/Drivers/USB/Core/AVR8/../AVR8/Endpoint_AVR8.h **** 				UECONX |= (1 << STALLRQ);
 689               		.loc 2 491 0
 690 0278 8091 EB00 		lds r24,235
 691 027c 8062      		ori r24,lo8(32)
 692 027e 8093 EB00 		sts 235,r24
 693               	.LBE270:
 694               	.LBE269:
 695               	.LBB271:
 696               	.LBB272:
 444:../../protocol/lufa/LUFA-120730/LUFA/Drivers/USB/Core/AVR8/../AVR8/Endpoint_AVR8.h **** 				UEINTX &= ~(1 << RXSTPI);
 697               		.loc 2 444 0
 698 0282 8091 E800 		lds r24,232
 699 0286 877F      		andi r24,lo8(-9)
 700 0288 8093 E800 		sts 232,r24
 701               	.L1:
 702               	/* epilogue start */
 703               	.LBE272:
 704               	.LBE271:
 120:../../protocol/lufa/LUFA-120730/LUFA/Drivers/USB/Core/DeviceStandardReq.c **** }
 705               		.loc 1 120 0
 706 028c AA96      		adiw r28,42
 707 028e 0FB6      		in __tmp_reg__,__SREG__
 708 0290 F894      		cli
 709 0292 DEBF      		out __SP_H__,r29
 710 0294 0FBE      		out __SREG__,__tmp_reg__
 711 0296 CDBF      		out __SP_L__,r28
 712 0298 DF91      		pop r29
 713 029a CF91      		pop r28
 714 029c 1F91      		pop r17
 715 029e 0F91      		pop r16
 716 02a0 0895      		ret
 717               		.cfi_endproc
 718               	.LFE84:
 720               		.comm	USB_Device_RemoteWakeupEnabled,1,1
 721               		.comm	USB_Device_CurrentlySelfPowered,1,1
 722               		.comm	USB_Device_ConfigurationNumber,1,1
 723               		.text
 724               	.Letext0:
 725               		.file 5 "/usr/local/CrossPack-AVR-20131216/avr/include/stdint.h"
 726               		.file 6 "../../protocol/lufa/LUFA-120730/LUFA/Drivers/USB/Core/StdDescriptors.h"
 727               		.file 7 "../../protocol/lufa/LUFA-120730/LUFA/Drivers/USB/Core/StdRequestType.h"
 728               		.file 8 "../../protocol/lufa/LUFA-120730/LUFA/Drivers/USB/Core/AVR8/../Device.h"
 729               		.file 9 "../../protocol/lufa/LUFA-120730/LUFA/Drivers/USB/Core/USBTask.h"
 730               		.file 10 "../../protocol/lufa/LUFA-120730/LUFA/Drivers/USB/Core/AVR8/../AVR8/EndpointStream_AVR8.h
 731               		.file 11 "../../protocol/lufa/LUFA-120730/LUFA/Drivers/USB/Core/Events.h"